 pcaputil

 Timestamp is 5dc9083e (Mon Nov 11 14:05:34 2019)

 Preferred load address is 00400000

 Start         Length     Name                   Class
 0001:00000000 0006cc97H .text$mn                CODE
 0002:00000000 00000274H .idata$5                DATA
 0002:00000274 00000004H .00cfg                  DATA
 0002:00000278 00000004H .CRT$XCA                DATA
 0002:0000027c 00000004H .CRT$XCAA               DATA
 0002:00000280 00000004H .CRT$XCZ                DATA
 0002:00000284 00000004H .CRT$XIA                DATA
 0002:00000288 00000004H .CRT$XIAA               DATA
 0002:0000028c 00000004H .CRT$XIAC               DATA
 0002:00000290 00000004H .CRT$XIZ                DATA
 0002:00000294 00000004H .CRT$XPA                DATA
 0002:00000298 00000004H .CRT$XPZ                DATA
 0002:0000029c 00000004H .CRT$XTA                DATA
 0002:000002a0 00000010H .CRT$XTZ                DATA
 0002:000002a4 00000000H .gfids$y                DATA
 0002:000002b0 0001db50H .rdata                  DATA
 0002:0001de00 00000004H .rdata$sxdata           DATA
 0002:0001de04 0000023cH .rdata$zzzdbg           DATA
 0002:0001e040 00000004H .rtc$IAA                DATA
 0002:0001e044 00000004H .rtc$IZZ                DATA
 0002:0001e048 00000004H .rtc$TAA                DATA
 0002:0001e04c 00000004H .rtc$TZZ                DATA
 0002:0001e050 0000003cH .xdata$x                DATA
 0002:0001e08c 00000000H .edata                  DATA
 0002:0001e08c 00000104H .idata$2                DATA
 0002:0001e190 00000014H .idata$3                DATA
 0002:0001e1a4 00000274H .idata$4                DATA
 0002:0001e418 00000a3eH .idata$6                DATA
 0003:00000000 000036a0H .data                   DATA
 0003:000036a0 00001c90H .bss                    DATA
 0004:00000000 000005e0H _RDATA                  DATA

  Address         Publics by Value              Rva+Base       Lib:Object

 0000:00000000       ___hybrid_code_map_count   00000000     <absolute>
 0000:00000000       ___guard_longjmp_table     00000000     <absolute>
 0000:00000000       ___guard_fids_count        00000000     <absolute>
 0000:00000000       ___hybrid_auxiliary_iat    00000000     <absolute>
 0000:00000000       ___guard_iat_table         00000000     <absolute>
 0000:00000000       ___volatile_metadata       00000000     <absolute>
 0000:00000000       ___guard_fids_table        00000000     <absolute>
 0000:00000000       ___enclave_config          00000000     <absolute>
 0000:00000000       ___guard_longjmp_count     00000000     <absolute>
 0000:00000000       ___dynamic_value_reloc_table 00000000     <absolute>
 0000:00000000       ___guard_iat_count         00000000     <absolute>
 0000:00000000       ___hybrid_code_map         00000000     <absolute>
 0000:00000001       ___safe_se_handler_count   00000001     <absolute>
 0000:00000100       ___guard_flags             00000100     <absolute>
 0000:00000000       ___ImageBase               00400000     <linker-defined>
 0001:00000bc0       _main                      00401bc0 f   pcaputil.obj
 0001:00001120       ___local_stdio_printf_options 00402120 f i pcaputil.obj
 0001:00001130       _printf                    00402130 f i pcaputil.obj
 0001:00001160       _pjmedia_codec_register_audio_codecs 00402160 f   pjmedia-codec-i386-win32-vc14-release:audio_codecs.obj
 0001:00001250       _pjmedia_codec_l16_deinit  00402250 f   pjmedia-codec-i386-win32-vc14-release:l16.obj
 0001:00001570       __get_startup_thread_locale_mode 00402570 f   MSVCRT:thread_locale.obj
 0001:00001570       ___scrt_initialize_winrt   00402570 f   MSVCRT:utility_desktop.obj
 0001:00001570       ___scrt_stub_for_initialize_mta 00402570 f   MSVCRT:utility_desktop.obj
 0001:00001570       _srtp_ekt_stream_init_from_policy 00402570 f   libsrtp-i386-win32-vc14-release:ekt.obj
 0001:00001570       _srtp_err_reporting_init   00402570 f   libsrtp-i386-win32-vc14-release:srtp_err.obj
 0001:00001570       __get_startup_new_mode     00402570 f   MSVCRT:new_mode.obj
 0001:00001570       ___scrt_exe_initialize_mta 00402570 f   MSVCRT:utility_desktop.obj
 0001:00001570       __get_startup_commit_mode  00402570 f   MSVCRT:commit_mode.obj
 0001:00001570       __matherr                  00402570 f   MSVCRT:matherr.obj
 0001:00001880       _pjmedia_codec_l16_init    00402880 f   pjmedia-codec-i386-win32-vc14-release:l16.obj
 0001:00001960       _pjmedia_codec_gsm_deinit  00402960 f   pjmedia-codec-i386-win32-vc14-release:gsm.obj
 0001:00002030       _pjmedia_codec_gsm_init    00403030 f   pjmedia-codec-i386-win32-vc14-release:gsm.obj
 0001:00002950       _pjmedia_codec_speex_deinit 00403950 f   pjmedia-codec-i386-win32-vc14-release:speex_codec.obj
 0001:00002be0       _pjmedia_codec_speex_init  00403be0 f   pjmedia-codec-i386-win32-vc14-release:speex_codec.obj
 0001:00002df0       _pjmedia_codec_ilbc_deinit 00403df0 f   pjmedia-codec-i386-win32-vc14-release:ilbc.obj
 0001:00003640       __snprintf                 00404640 f i pjmedia-codec-i386-win32-vc14-release:ilbc.obj
 0001:00003680       _pjmedia_codec_ilbc_init   00404680 f   pjmedia-codec-i386-win32-vc14-release:ilbc.obj
 0001:00003730       _pjmedia_codec_g722_deinit 00404730 f   pjmedia-codec-i386-win32-vc14-release:g722.obj
 0001:00003f20       _pjmedia_codec_g722_init   00404f20 f   pjmedia-codec-i386-win32-vc14-release:g722.obj
 0001:00004fc0       _pjmedia_codec_opus_deinit 00405fc0 f   pjmedia-codec-i386-win32-vc14-release:opus.obj
 0001:00005530       _pjmedia_codec_opus_init   00406530 f   pjmedia-codec-i386-win32-vc14-release:opus.obj
 0001:00005e70       _g722_enc_encode           00406e70 f   pjmedia-codec-i386-win32-vc14-release:g722_enc.obj
 0001:00006220       _g722_enc_init             00407220 f   pjmedia-codec-i386-win32-vc14-release:g722_enc.obj
 0001:00006220       _g722_dec_init             00407220 f   pjmedia-codec-i386-win32-vc14-release:g722_dec.obj
 0001:00006770       _g722_dec_decode           00407770 f   pjmedia-codec-i386-win32-vc14-release:g722_dec.obj
 0001:00006b70       _pjmedia_aud_subsys_init   00407b70 f   pjmedia-audiodev-i386-win32-vc14-release:audiodev.obj
 0001:00006c10       _pjmedia_aud_subsys_shutdown 00407c10 f   pjmedia-audiodev-i386-win32-vc14-release:audiodev.obj
 0001:00006c50       _pjmedia_audiodev_strerror 00407c50 f   pjmedia-audiodev-i386-win32-vc14-release:errno.obj
 0001:00007fb0       _pjmedia_wmme_factory      00408fb0 f   pjmedia-audiodev-i386-win32-vc14-release:wmme_dev.obj
 0001:00008780       _pjmedia_aud_dev_default_param 00409780 f   pjmedia-i386-win32-vc14-release:audiodev.obj
 0001:00008800       _pjmedia_aud_driver_deinit 00409800 f   pjmedia-i386-win32-vc14-release:audiodev.obj
 0001:000088d0       _pjmedia_aud_driver_init   004098d0 f   pjmedia-i386-win32-vc14-release:audiodev.obj
 0001:00008b50       _pjmedia_aud_stream_create 00409b50 f   pjmedia-i386-win32-vc14-release:audiodev.obj
 0001:00008d00       _pjmedia_aud_stream_destroy 00409d00 f   pjmedia-i386-win32-vc14-release:audiodev.obj
 0001:00008d20       _pjmedia_aud_stream_get_param 00409d20 f   pjmedia-i386-win32-vc14-release:audiodev.obj
 0001:00008d80       _pjmedia_aud_stream_start  00409d80 f   pjmedia-i386-win32-vc14-release:audiodev.obj
 0001:00008da0       _pjmedia_aud_stream_stop   00409da0 f   pjmedia-i386-win32-vc14-release:audiodev.obj
 0001:00008dc0       _pjmedia_get_aud_subsys    00409dc0 f   pjmedia-i386-win32-vc14-release:audiodev.obj
 0001:00008dd0       _pjmedia_port_destroy      00409dd0 f   pjmedia-i386-win32-vc14-release:port.obj
 0001:00008e00       _pjmedia_port_info_init    00409e00 f   pjmedia-i386-win32-vc14-release:port.obj
 0001:00008ef0       _pjmedia_port_put_frame    00409ef0 f   pjmedia-i386-win32-vc14-release:port.obj
 0001:00008f20       _pjmedia_codec_mgr_alloc_codec 00409f20 f   pjmedia-i386-win32-vc14-release:codec.obj
 0001:00008fc0       _pjmedia_codec_mgr_dealloc_codec 00409fc0 f   pjmedia-i386-win32-vc14-release:codec.obj
 0001:00008ff0       _pjmedia_codec_mgr_destroy 00409ff0 f   pjmedia-i386-win32-vc14-release:codec.obj
 0001:00009080       _pjmedia_codec_mgr_find_codecs_by_id 0040a080 f   pjmedia-i386-win32-vc14-release:codec.obj
 0001:00009160       _pjmedia_codec_mgr_get_codec_info 0040a160 f   pjmedia-i386-win32-vc14-release:codec.obj
 0001:000091e0       _pjmedia_codec_mgr_get_default_param 0040a1e0 f   pjmedia-i386-win32-vc14-release:codec.obj
 0001:00009350       _pjmedia_codec_mgr_init    0040a350 f   pjmedia-i386-win32-vc14-release:codec.obj
 0001:000093c0       _pjmedia_codec_mgr_register_factory 0040a3c0 f   pjmedia-i386-win32-vc14-release:codec.obj
 0001:00009580       _pjmedia_codec_mgr_unregister_factory 0040a580 f   pjmedia-i386-win32-vc14-release:codec.obj
 0001:00009710       _pjmedia_endpt_atexit      0040a710 f   pjmedia-i386-win32-vc14-release:endpoint.obj
 0001:00009770       _pjmedia_endpt_create2     0040a770 f   pjmedia-i386-win32-vc14-release:endpoint.obj
 0001:00009930       _pjmedia_endpt_create_pool 0040a930 f   pjmedia-i386-win32-vc14-release:endpoint.obj
 0001:00009950       _pjmedia_endpt_destroy2    0040a950 f   pjmedia-i386-win32-vc14-release:endpoint.obj
 0001:00009a10       _pjmedia_endpt_get_codec_mgr 0040aa10 f   pjmedia-i386-win32-vc14-release:endpoint.obj
 0001:00009a10       _pj_pool_getobjname        0040aa10 f   pjlib-i386-win32-vc14-release:pool.obj
 0001:00009a20       _sprintf                   0040aa20 f i pjmedia-i386-win32-vc14-release:endpoint.obj
 0001:00009ab0       _pjmedia_rtp_decode_rtp    0040aab0 f   pjmedia-i386-win32-vc14-release:rtp.obj
 0001:00009b40       _pjmedia_rtp_session_init  0040ab40 f   pjmedia-i386-win32-vc14-release:rtp.obj
 0001:00009be0       _pjmedia_rtp_session_update2 0040abe0 f   pjmedia-i386-win32-vc14-release:rtp.obj
 0001:0000a080       _pjmedia_transport_loop_create 0040b080 f   pjmedia-i386-win32-vc14-release:transport_loop.obj
 0001:0000c020       _get_libsrtp_errstr        0040d020 f   pjmedia-i386-win32-vc14-release:transport_srtp.obj
 0001:0000c330       _pjmedia_transport_srtp_create 0040d330 f   pjmedia-i386-win32-vc14-release:transport_srtp.obj
 0001:0000c760       _pjmedia_transport_srtp_decrypt_pkt 0040d760 f   pjmedia-i386-win32-vc14-release:transport_srtp.obj
 0001:0000c840       _pjmedia_transport_srtp_start 0040d840 f   pjmedia-i386-win32-vc14-release:transport_srtp.obj
 0001:0000cee0       _pjmedia_transport_srtp_stop 0040dee0 f   pjmedia-i386-win32-vc14-release:transport_srtp.obj
 0001:0000d6f0       _pjmedia_wav_writer_port_create 0040e6f0 f   pjmedia-i386-win32-vc14-release:wav_writer.obj
 0001:0000da00       _pjmedia_wav_writer_port_get_pos 0040ea00 f   pjmedia-i386-win32-vc14-release:wav_writer.obj
 0001:0000da30       _pjmedia_codec_g711_deinit 0040ea30 f   pjmedia-i386-win32-vc14-release:g711.obj
 0001:0000e110       _pjmedia_codec_g711_init   0040f110 f   pjmedia-i386-win32-vc14-release:g711.obj
 0001:0000e2a0       _pjmedia_plc_create        0040f2a0 f   pjmedia-i386-win32-vc14-release:plc_common.obj
 0001:0000e300       _pjmedia_plc_generate      0040f300 f   pjmedia-i386-win32-vc14-release:plc_common.obj
 0001:0000e330       _pjmedia_plc_save          0040f330 f   pjmedia-i386-win32-vc14-release:plc_common.obj
 0001:0000e360       _pjmedia_silence_det_apply 0040f360 f   pjmedia-i386-win32-vc14-release:silencedet.obj
 0001:0000e540       _pjmedia_silence_det_create 0040f540 f   pjmedia-i386-win32-vc14-release:silencedet.obj
 0001:0000e5c0       _pjmedia_silence_det_detect 0040f5c0 f   pjmedia-i386-win32-vc14-release:silencedet.obj
 0001:0000e7d0       _pjmedia_event_init        0040f7d0 f   pjmedia-i386-win32-vc14-release:event.obj
 0001:0000e810       _pjmedia_event_publish     0040f810 f   pjmedia-i386-win32-vc14-release:event.obj
 0001:0000e940       _pjmedia_sdp_attr_create   0040f940 f   pjmedia-i386-win32-vc14-release:sdp.obj
 0001:0000e9a0       _pjmedia_sdp_attr_find     0040f9a0 f   pjmedia-i386-win32-vc14-release:sdp.obj
 0001:0000ea20       _pjmedia_sdp_media_deactivate 0040fa20 f   pjmedia-i386-win32-vc14-release:sdp.obj
 0001:0000ea50       _pjmedia_sdp_media_find_attr 0040fa50 f   pjmedia-i386-win32-vc14-release:sdp.obj
 0001:0000ea80       _pjmedia_sdp_transport_get_proto 0040fa80 f   pjmedia-i386-win32-vc14-release:sdp.obj
 0001:0000ebc0       _pjmedia_strerror          0040fbc0 f   pjmedia-i386-win32-vc14-release:errno.obj
 0001:0000ecd0       __initialize_invalid_parameter_handler 0040fcd0 f   MSVCRT:invalid_parameter_handler.obj
 0001:0000ecd0       _vbr_destroy               0040fcd0 f   libspeex-i386-win32-vc14-release:vbr.obj
 0001:0000ecd0       __initialize_denormal_control 0040fcd0 f   MSVCRT:denormal_control.obj
 0001:0000ecd0       _pjmedia_wave_hdr_host_to_file 0040fcd0 f   pjmedia-i386-win32-vc14-release:wave.obj
 0001:0000ecd0       @_guard_check_icall_nop@4  0040fcd0 f   MSVCRT:guard_support.obj
 0001:0000f4a0       _pjmedia_wsola_create      004104a0 f   pjmedia-i386-win32-vc14-release:wsola.obj
 0001:0000f7f0       _pjmedia_wsola_generate    004107f0 f   pjmedia-i386-win32-vc14-release:wsola.obj
 0001:0000f8c0       _pjmedia_wsola_save        004108c0 f   pjmedia-i386-win32-vc14-release:wsola.obj
 0001:0000fd50       _pjlib_util_init           00410d50 f   pjlib-util-i386-win32-vc14-release:errno.obj
 0001:0000fd70       _pjlib_util_strerror       00410d70 f   pjlib-util-i386-win32-vc14-release:errno.obj
 0001:000106f0       _pj_getopt_long            004116f0 f   pjlib-util-i386-win32-vc14-release:getopt.obj
 0001:00010710       _pj_base64_decode          00411710 f   pjlib-util-i386-win32-vc14-release:base64.obj
 0001:00010900       _pj_base64_encode          00411900 f   pjlib-util-i386-win32-vc14-release:base64.obj
 0001:00010a60       _pj_pcap_close             00411a60 f   pjlib-util-i386-win32-vc14-release:pcap.obj
 0001:00010a80       _pj_pcap_filter_default    00411a80 f   pjlib-util-i386-win32-vc14-release:pcap.obj
 0001:00010aa0       _pj_pcap_open              00411aa0 f   pjlib-util-i386-win32-vc14-release:pcap.obj
 0001:00010b90       _pj_pcap_read_udp          00411b90 f   pjlib-util-i386-win32-vc14-release:pcap.obj
 0001:00010e60       _pj_pcap_set_filter        00411e60 f   pjlib-util-i386-win32-vc14-release:pcap.obj
 0001:00010f80       _pj_atexit                 00411f80 f   pjlib-i386-win32-vc14-release:os_core_win32.obj
 0001:00010fb0       _pj_atomic_dec_and_get     00411fb0 f   pjlib-i386-win32-vc14-release:os_core_win32.obj
 0001:00011000       _pj_atomic_destroy         00412000 f   pjlib-i386-win32-vc14-release:os_core_win32.obj
 0001:00011020       _pj_atomic_inc             00412020 f   pjlib-i386-win32-vc14-release:os_core_win32.obj
 0001:00011070       _pj_enter_critical_section 00412070 f   pjlib-i386-win32-vc14-release:os_core_win32.obj
 0001:000110d0       _pj_init                   004120d0 f   pjlib-i386-win32-vc14-release:os_core_win32.obj
 0001:000112e0       _pj_leave_critical_section 004122e0 f   pjlib-i386-win32-vc14-release:os_core_win32.obj
 0001:00011340       _pj_mutex_create           00412340 f   pjlib-i386-win32-vc14-release:os_core_win32.obj
 0001:00011390       _pj_mutex_create_simple    00412390 f   pjlib-i386-win32-vc14-release:os_core_win32.obj
 0001:00011390       _pj_mutex_create_recursive 00412390 f   pjlib-i386-win32-vc14-release:os_core_win32.obj
 0001:000113e0       _pj_mutex_destroy          004123e0 f   pjlib-i386-win32-vc14-release:os_core_win32.obj
 0001:00011450       _pj_mutex_lock             00412450 f   pjlib-i386-win32-vc14-release:os_core_win32.obj
 0001:000114c0       _pj_mutex_trylock          004124c0 f   pjlib-i386-win32-vc14-release:os_core_win32.obj
 0001:00011540       _pj_mutex_unlock           00412540 f   pjlib-i386-win32-vc14-release:os_core_win32.obj
 0001:000115b0       _pj_sem_destroy            004125b0 f   pjlib-i386-win32-vc14-release:os_core_win32.obj
 0001:00011640       _pj_sem_post               00412640 f   pjlib-i386-win32-vc14-release:os_core_win32.obj
 0001:000116e0       _pj_sem_trywait            004126e0 f   pjlib-i386-win32-vc14-release:os_core_win32.obj
 0001:00011740       _pj_sem_wait               00412740 f   pjlib-i386-win32-vc14-release:os_core_win32.obj
 0001:00011850       _pj_shutdown               00412850 f   pjlib-i386-win32-vc14-release:os_core_win32.obj
 0001:00011990       _pj_term_set_color         00412990 f   pjlib-i386-win32-vc14-release:os_core_win32.obj
 0001:00011a60       _pj_thread_check_stack     00412a60 f   pjlib-i386-win32-vc14-release:os_core_win32.obj
 0001:00011ab0       _pj_thread_create          00412ab0 f   pjlib-i386-win32-vc14-release:os_core_win32.obj
 0001:00011c00       _pj_thread_destroy         00412c00 f   pjlib-i386-win32-vc14-release:os_core_win32.obj
 0001:00011c90       _pj_thread_get_name        00412c90 f   pjlib-i386-win32-vc14-release:os_core_win32.obj
 0001:00011ce0       _pj_thread_join            00412ce0 f   pjlib-i386-win32-vc14-release:os_core_win32.obj
 0001:00011da0       _pj_thread_local_alloc     00412da0 f   pjlib-i386-win32-vc14-release:os_core_win32.obj
 0001:00011df0       _pj_thread_local_free      00412df0 f   pjlib-i386-win32-vc14-release:os_core_win32.obj
 0001:00011e40       _pj_thread_local_get       00412e40 f   pjlib-i386-win32-vc14-release:os_core_win32.obj
 0001:00011e50       _pj_thread_local_set       00412e50 f   pjlib-i386-win32-vc14-release:os_core_win32.obj
 0001:00011e90       _pj_thread_sleep           00412e90 f   pjlib-i386-win32-vc14-release:os_core_win32.obj
 0001:00011ee0       _pj_thread_this            00412ee0 f   pjlib-i386-win32-vc14-release:os_core_win32.obj
 0001:00011f70       _pj_htonl                  00412f70 f   pjlib-i386-win32-vc14-release:sock_bsd.obj
 0001:00011f80       _pj_htons                  00412f80 f   pjlib-i386-win32-vc14-release:sock_bsd.obj
 0001:00011f90       _pj_inet_aton              00412f90 f   pjlib-i386-win32-vc14-release:sock_bsd.obj
 0001:00012020       _pj_inet_pton              00413020 f   pjlib-i386-win32-vc14-release:sock_bsd.obj
 0001:00012180       _pj_ntohl                  00413180 f   pjlib-i386-win32-vc14-release:sock_bsd.obj
 0001:00012190       _pj_ntohs                  00413190 f   pjlib-i386-win32-vc14-release:sock_bsd.obj
 0001:000121a0       _pj_sock_accept            004131a0 f   pjlib-i386-win32-vc14-release:sock_bsd.obj
 0001:00012210       _pj_sock_getsockname       00413210 f   pjlib-i386-win32-vc14-release:sock_bsd.obj
 0001:00012270       _pj_sock_getsockopt        00413270 f   pjlib-i386-win32-vc14-release:sock_bsd.obj
 0001:000122e0       _pj_sock_recv              004132e0 f   pjlib-i386-win32-vc14-release:sock_bsd.obj
 0001:00012350       _pj_sock_recvfrom          00413350 f   pjlib-i386-win32-vc14-release:sock_bsd.obj
 0001:000123c0       _pj_sock_send              004133c0 f   pjlib-i386-win32-vc14-release:sock_bsd.obj
 0001:00012430       _pj_sock_sendto            00413430 f   pjlib-i386-win32-vc14-release:sock_bsd.obj
 0001:000124a0       _pj_inet_addr              004134a0 f   pjlib-i386-win32-vc14-release:sock_common.obj
 0001:000124c0       _pj_sockaddr_cmp           004134c0 f   pjlib-i386-win32-vc14-release:sock_common.obj
 0001:00012640       _pj_sockaddr_has_addr      00413640 f   pjlib-i386-win32-vc14-release:sock_common.obj
 0001:000126f0       _pj_sockaddr_in_set_str_addr 004136f0 f   pjlib-i386-win32-vc14-release:sock_common.obj
 0001:000127e0       _pj_sockaddr_init          004137e0 f   pjlib-i386-win32-vc14-release:sock_common.obj
 0001:000129a0       _pj_errno_clear_handlers   004139a0 f   pjlib-i386-win32-vc14-release:errno.obj
 0001:000129c0       _pj_perror_3               004139c0 f   pjlib-i386-win32-vc14-release:errno.obj
 0001:000129e0       _pj_perror_4               004139e0 f   pjlib-i386-win32-vc14-release:errno.obj
 0001:00012bd0       _pj_register_strerror      00413bd0 f   pjlib-i386-win32-vc14-release:errno.obj
 0001:00012ca0       _pj_strerror               00413ca0 f   pjlib-i386-win32-vc14-release:errno.obj
 0001:00012e20       _pj_log                    00413e20 f   pjlib-i386-win32-vc14-release:log.obj
 0001:00013320       _pj_log_1                  00414320 f   pjlib-i386-win32-vc14-release:log.obj
 0001:00013340       _pj_log_2                  00414340 f   pjlib-i386-win32-vc14-release:log.obj
 0001:00013360       _pj_log_3                  00414360 f   pjlib-i386-win32-vc14-release:log.obj
 0001:00013380       _pj_log_4                  00414380 f   pjlib-i386-win32-vc14-release:log.obj
 0001:000133a0       _pj_log_5                  004143a0 f   pjlib-i386-win32-vc14-release:log.obj
 0001:000133c0       _pj_log_get_color          004143c0 f   pjlib-i386-win32-vc14-release:log.obj
 0001:00013430       _pj_log_get_decor          00414430 f   pjlib-i386-win32-vc14-release:log.obj
 0001:00013440       _pj_log_get_level          00414440 f   pjlib-i386-win32-vc14-release:log.obj
 0001:00013450       _pj_log_init               00414450 f   pjlib-i386-win32-vc14-release:log.obj
 0001:000134c0       _pj_str                    004144c0 f   pjlib-i386-win32-vc14-release:string.obj
 0001:000134e0       _pj_strcmp                 004144e0 f   pjlib-i386-win32-vc14-release:string.obj
 0001:00013590       _pj_strcmp2                00414590 f   pjlib-i386-win32-vc14-release:string.obj
 0001:000135f0       _pj_strdup                 004145f0 f   pjlib-i386-win32-vc14-release:string.obj
 0001:00013630       _pj_strdup2                00414630 f   pjlib-i386-win32-vc14-release:string.obj
 0001:00013690       _pj_strdup_with_null       00414690 f   pjlib-i386-win32-vc14-release:string.obj
 0001:000136e0       _pj_stricmp                004146e0 f   pjlib-i386-win32-vc14-release:string.obj
 0001:00013740       _pj_stricmp2               00414740 f   pjlib-i386-win32-vc14-release:string.obj
 0001:000137b0       _pj_stristr                004147b0 f   pjlib-i386-win32-vc14-release:string.obj
 0001:00013800       _pj_strncpy_with_null      00414800 f   pjlib-i386-win32-vc14-release:string.obj
 0001:00013840       _pj_strnicmp2              00414840 f   pjlib-i386-win32-vc14-release:string.obj
 0001:000138b0       _pj_strtok                 004148b0 f   pjlib-i386-win32-vc14-release:string.obj
 0001:000139a0       _pj_strtok2                004149a0 f   pjlib-i386-win32-vc14-release:string.obj
 0001:00013a80       _pj_strtoul                00414a80 f   pjlib-i386-win32-vc14-release:string.obj
 0001:00013ae0       _pj_strtoul2               00414ae0 f   pjlib-i386-win32-vc14-release:string.obj
 0001:00013b90       _pj_utoa                   00414b90 f   pjlib-i386-win32-vc14-release:string.obj
 0001:00013c10       _pj_utoa_pad               00414c10 f   pjlib-i386-win32-vc14-release:string.obj
 0001:00013cb0       _pj_pool_alloc             00414cb0 f   pjlib-i386-win32-vc14-release:pool.obj
 0001:00013e20       _pj_pool_calloc            00414e20 f   pjlib-i386-win32-vc14-release:pool.obj
 0001:00013e50       _pj_pool_create            00414e50 f   pjlib-i386-win32-vc14-release:pool.obj
 0001:00013e60       _pj_pool_create_int        00414e60 f   pjlib-i386-win32-vc14-release:pool.obj
 0001:00013f70       _pj_pool_destroy_int       00414f70 f   pjlib-i386-win32-vc14-release:pool.obj
 0001:00013fb0       _pj_pool_get_capacity      00414fb0 f   pjlib-i386-win32-vc14-release:pool.obj
 0001:00013fc0       _pj_pool_get_used_size     00414fc0 f   pjlib-i386-win32-vc14-release:pool.obj
 0001:00013ff0       _pj_pool_init_int          00414ff0 f   pjlib-i386-win32-vc14-release:pool.obj
 0001:00014060       _pj_pool_release           00415060 f   pjlib-i386-win32-vc14-release:pool.obj
 0001:00014080       _pj_pool_reset             00415080 f   pjlib-i386-win32-vc14-release:pool.obj
 0001:00014490       _pj_caching_pool_destroy   00415490 f   pjlib-i386-win32-vc14-release:pool_caching.obj
 0001:00014570       _pj_caching_pool_init      00415570 f   pjlib-i386-win32-vc14-release:pool_caching.obj
 0001:00014630       _pj_list_erase             00415630 f   pjlib-i386-win32-vc14-release:list.obj
 0001:00014650       _pj_list_find_node         00415650 f   pjlib-i386-win32-vc14-release:list.obj
 0001:00014680       _pj_list_insert_after      00415680 f   pjlib-i386-win32-vc14-release:list.obj
 0001:000146a0       _pj_list_insert_before     004156a0 f   pjlib-i386-win32-vc14-release:list.obj
 0001:000146c0       _pj_get_netos_error        004156c0 f   pjlib-i386-win32-vc14-release:os_error_win32.obj
 0001:000146e0       _pj_get_os_error           004156e0 f   pjlib-i386-win32-vc14-release:os_error_win32.obj
 0001:00014700       _platform_strerror         00415700 f   pjlib-i386-win32-vc14-release:os_error_win32.obj
 0001:000147e0       _pj_array_erase            004157e0 f   pjlib-i386-win32-vc14-release:array.obj
 0001:00014820       _pj_gettimeofday           00415820 f   pjlib-i386-win32-vc14-release:os_time_win32.obj
 0001:000148d0       _pj_time_decode            004158d0 f   pjlib-i386-win32-vc14-release:os_time_win32.obj
 0001:00014a40       _ioqueue_dispatch_read_event 00415a40 f   pjlib-i386-win32-vc14-release:ioqueue_select.obj
 0001:00014c50       _ioqueue_dispatch_write_event 00415c50 f   pjlib-i386-win32-vc14-release:ioqueue_select.obj
 0001:00014ef0       _pj_ioqueue_create         00415ef0 f   pjlib-i386-win32-vc14-release:ioqueue_select.obj
 0001:000150c0       _pj_ioqueue_destroy        004160c0 f   pjlib-i386-win32-vc14-release:ioqueue_select.obj
 0001:00015180       _pj_ioqueue_poll           00416180 f   pjlib-i386-win32-vc14-release:ioqueue_select.obj
 0001:00015660       _pj_ioqueue_unlock_key     00416660 f   pjlib-i386-win32-vc14-release:ioqueue_select.obj
 0001:00015710       _pj_rand                   00416710 f   pjlib-i386-win32-vc14-release:rand.obj
 0001:00015740       _pj_get_timestamp          00416740 f   pjlib-i386-win32-vc14-release:os_timestamp_win32.obj
 0001:000157a0       _pj_get_timestamp_freq     004167a0 f   pjlib-i386-win32-vc14-release:os_timestamp_win32.obj
 0001:00015a40       _pj_grp_lock_add_ref       00416a40 f   pjlib-i386-win32-vc14-release:lock.obj
 0001:00015a60       _pj_grp_lock_dec_ref       00416a60 f   pjlib-i386-win32-vc14-release:lock.obj
 0001:00015a90       _pj_grp_lock_release       00416a90 f   pjlib-i386-win32-vc14-release:lock.obj
 0001:00015aa0       _pj_grp_lock_tryacquire    00416aa0 f   pjlib-i386-win32-vc14-release:lock.obj
 0001:00015ab0       _pj_lock_acquire           00416ab0 f   pjlib-i386-win32-vc14-release:lock.obj
 0001:00015ad0       _pj_lock_create_null_mutex 00416ad0 f   pjlib-i386-win32-vc14-release:lock.obj
 0001:00015af0       _pj_lock_create_recursive_mutex 00416af0 f   pjlib-i386-win32-vc14-release:lock.obj
 0001:00015b10       _pj_lock_create_simple_mutex 00416b10 f   pjlib-i386-win32-vc14-release:lock.obj
 0001:00015b30       _pj_lock_destroy           00416b30 f   pjlib-i386-win32-vc14-release:lock.obj
 0001:00015b50       _pj_lock_release           00416b50 f   pjlib-i386-win32-vc14-release:lock.obj
 0001:00015b70       _pj_lock_tryacquire        00416b70 f   pjlib-i386-win32-vc14-release:lock.obj
 0001:00015b90       _pj_file_close             00416b90 f   pjlib-i386-win32-vc14-release:file_io_win32.obj
 0001:00015bd0       _pj_file_getpos            00416bd0 f   pjlib-i386-win32-vc14-release:file_io_win32.obj
 0001:00015c50       _pj_file_open              00416c50 f   pjlib-i386-win32-vc14-release:file_io_win32.obj
 0001:00015d90       _pj_file_read              00416d90 f   pjlib-i386-win32-vc14-release:file_io_win32.obj
 0001:00015df0       _pj_file_setpos            00416df0 f   pjlib-i386-win32-vc14-release:file_io_win32.obj
 0001:00015e80       _pj_file_write             00416e80 f   pjlib-i386-win32-vc14-release:file_io_win32.obj
 0001:00015ee0       _pj_exception_id_alloc     00416ee0 f   pjlib-i386-win32-vc14-release:except.obj
 0001:00015f30       _pj_exception_id_free      00416f30 f   pjlib-i386-win32-vc14-release:except.obj
 0001:00015f70       _pj_pop_exception_handler_ 00416f70 f   pjlib-i386-win32-vc14-release:except.obj
 0001:00015fa0       _pj_throw_exception_       00416fa0 f   pjlib-i386-win32-vc14-release:except.obj
 0001:00016020       _pj_generate_unique_string 00417020 f   pjlib-i386-win32-vc14-release:guid_win32.obj
 0001:000160d0       _pj_getaddrinfo            004170d0 f   pjlib-i386-win32-vc14-release:addr_resolv_sock.obj
 0001:00016290       _pj_log_write              00417290 f   pjlib-i386-win32-vc14-release:log_writer_stdout.obj
 0001:000162f0       _pj_pool_create_on_buf     004172f0 f   pjlib-i386-win32-vc14-release:pool_buf.obj
 0001:000164c0       _pj_time_val_normalize     004174c0 f   pjlib-i386-win32-vc14-release:types.obj
 0001:00016550       _pj_gettickcount           00417550 f   pjlib-i386-win32-vc14-release:os_timestamp_common.obj
 0001:00016620       _PJ_FD_CLR                 00417620 f   pjlib-i386-win32-vc14-release:sock_select.obj
 0001:000166a0       _PJ_FD_COUNT               004176a0 f   pjlib-i386-win32-vc14-release:sock_select.obj
 0001:000166a0       _srtp_rdb_get_value        004176a0 f   libsrtp-i386-win32-vc14-release:rdb.obj
 0001:000166b0       _PJ_FD_ISSET               004176b0 f   pjlib-i386-win32-vc14-release:sock_select.obj
 0001:000166e0       _PJ_FD_ZERO                004176e0 f   pjlib-i386-win32-vc14-release:sock_select.obj
 0001:00016710       _pj_sock_select            00417710 f   pjlib-i386-win32-vc14-release:sock_select.obj
 0001:00016780       _gsm_create                00417780 f   libgsmcodec-i386-win32-vc14-release:gsm_create.obj
 0001:000167c0       _gsm_destroy               004177c0 f   libgsmcodec-i386-win32-vc14-release:gsm_destroy.obj
 0001:000167e0       _gsm_encode                004177e0 f   libgsmcodec-i386-win32-vc14-release:gsm_encode.obj
 0001:00016c30       _gsm_decode                00417c30 f   libgsmcodec-i386-win32-vc14-release:gsm_decode.obj
 0001:00017210       _Gsm_Coder                 00418210 f   libgsmcodec-i386-win32-vc14-release:code.obj
 0001:00017410       _Gsm_Decoder               00418410 f   libgsmcodec-i386-win32-vc14-release:decode.obj
 0001:00017b60       _Gsm_Long_Term_Predictor   00418b60 f   libgsmcodec-i386-win32-vc14-release:long_term.obj
 0001:00017ba0       _Gsm_Long_Term_Synthesis_Filtering 00418ba0 f   libgsmcodec-i386-win32-vc14-release:long_term.obj
 0001:00018710       _Gsm_LPC_Analysis          00419710 f   libgsmcodec-i386-win32-vc14-release:lpc.obj
 0001:00019020       _Gsm_Preprocess            0041a020 f   libgsmcodec-i386-win32-vc14-release:preprocess.obj
 0001:00019810       _Gsm_Short_Term_Analysis_Filter 0041a810 f   libgsmcodec-i386-win32-vc14-release:short_term.obj
 0001:00019910       _Gsm_Short_Term_Synthesis_Filter 0041a910 f   libgsmcodec-i386-win32-vc14-release:short_term.obj
 0001:0001a150       _Gsm_RPE_Decoding          0041b150 f   libgsmcodec-i386-win32-vc14-release:rpe.obj
 0001:0001a1b0       _Gsm_RPE_Encoding          0041b1b0 f   libgsmcodec-i386-win32-vc14-release:rpe.obj
 0001:0001a5d0       _gsm_add                   0041b5d0 f   libgsmcodec-i386-win32-vc14-release:add.obj
 0001:0001a600       _gsm_asl                   0041b600 f   libgsmcodec-i386-win32-vc14-release:add.obj
 0001:0001a670       _gsm_asr                   0041b670 f   libgsmcodec-i386-win32-vc14-release:add.obj
 0001:0001a6b0       _gsm_div                   0041b6b0 f   libgsmcodec-i386-win32-vc14-release:add.obj
 0001:0001a700       _gsm_mult                  0041b700 f   libgsmcodec-i386-win32-vc14-release:add.obj
 0001:0001a730       _gsm_norm                  0041b730 f   libgsmcodec-i386-win32-vc14-release:add.obj
 0001:0001a7c0       _gsm_sub                   0041b7c0 f   libgsmcodec-i386-win32-vc14-release:add.obj
 0001:0001a7f0       _iLBC_encode               0041b7f0 f   libilbccodec-i386-win32-vc14-release:iLBC_encode.obj
 0001:0001b750       _initEncode                0041c750 f   libilbccodec-i386-win32-vc14-release:iLBC_encode.obj
 0001:0001b870       _Decode                    0041c870 f   libilbccodec-i386-win32-vc14-release:iLBC_decode.obj
 0001:0001bf00       _iLBC_decode               0041cf00 f   libilbccodec-i386-win32-vc14-release:iLBC_decode.obj
 0001:0001c810       _initDecode                0041d810 f   libilbccodec-i386-win32-vc14-release:iLBC_decode.obj
 0001:0001ca10       _LPCencode                 0041da10 f   libilbccodec-i386-win32-vc14-release:LPCencode.obj
 0001:0001cc00       _SimpleInterpolateLSF      0041dc00 f   libilbccodec-i386-win32-vc14-release:LPCencode.obj
 0001:0001ceb0       _FrameClassify             0041deb0 f   libilbccodec-i386-win32-vc14-release:FrameClassify.obj
 0001:0001d270       _StateSearchW              0041e270 f   libilbccodec-i386-win32-vc14-release:StateSearchW.obj
 0001:0001d7b0       _StateConstructW           0041e7b0 f   libilbccodec-i386-win32-vc14-release:StateConstructW.obj
 0001:0001da80       _dopack                    0041ea80 f   libilbccodec-i386-win32-vc14-release:packing.obj
 0001:0001db10       _packcombine               0041eb10 f   libilbccodec-i386-win32-vc14-release:packing.obj
 0001:0001db30       _packsplit                 0041eb30 f   libilbccodec-i386-win32-vc14-release:packing.obj
 0001:0001db60       _unpack                    0041eb60 f   libilbccodec-i386-win32-vc14-release:packing.obj
 0001:0001dc10       _iCBSearch                 0041ec10 f   libilbccodec-i386-win32-vc14-release:iCBSearch.obj
 0001:0001eac0       _iCBConstruct              0041fac0 f   libilbccodec-i386-win32-vc14-release:iCBConstruct.obj
 0001:0001efc0       _index_conv_dec            0041ffc0 f   libilbccodec-i386-win32-vc14-release:iCBConstruct.obj
 0001:0001f010       _index_conv_enc            00420010 f   libilbccodec-i386-win32-vc14-release:iCBConstruct.obj
 0001:0001f060       _hpInput                   00420060 f   libilbccodec-i386-win32-vc14-release:hpInput.obj
 0001:0001f130       _anaFilter                 00420130 f   libilbccodec-i386-win32-vc14-release:anaFilter.obj
 0001:0001f400       _DecoderInterpolateLSF     00420400 f   libilbccodec-i386-win32-vc14-release:LPCdecode.obj
 0001:0001f5e0       _SimplelsfDEQ              004205e0 f   libilbccodec-i386-win32-vc14-release:LPCdecode.obj
 0001:0001f6f0       _compCorr                  004206f0 f   libilbccodec-i386-win32-vc14-release:doCPLC.obj
 0001:0001f810       _doThePLC                  00420810 f   libilbccodec-i386-win32-vc14-release:doCPLC.obj
 0001:0001fcf0       _LSF_check                 00420cf0 f   libilbccodec-i386-win32-vc14-release:helpfun.obj
 0001:0001fde0       _SplitVQ                   00420de0 f   libilbccodec-i386-win32-vc14-release:helpfun.obj
 0001:00020000       _autocorr                  00421000 f   libilbccodec-i386-win32-vc14-release:helpfun.obj
 0001:000200e0       _bwexpand                  004210e0 f   libilbccodec-i386-win32-vc14-release:helpfun.obj
 0001:000201d0       _interpolate               004211d0 f   libilbccodec-i386-win32-vc14-release:helpfun.obj
 0001:00020400       _levdurb                   00421400 f   libilbccodec-i386-win32-vc14-release:helpfun.obj
 0001:00020650       _sort_sq                   00421650 f   libilbccodec-i386-win32-vc14-release:helpfun.obj
 0001:000206e0       _window                    004216e0 f   libilbccodec-i386-win32-vc14-release:helpfun.obj
 0001:000208a0       _NearestNeighbor           004218a0 f   libilbccodec-i386-win32-vc14-release:enhancer.obj
 0001:00020980       _enh_upsample              00421980 f   libilbccodec-i386-win32-vc14-release:enhancer.obj
 0001:00020d00       _enhancerInterface         00421d00 f   libilbccodec-i386-win32-vc14-release:enhancer.obj
 0001:00021560       _getsseq                   00422560 f   libilbccodec-i386-win32-vc14-release:enhancer.obj
 0001:000219e0       _refiner                   004229e0 f   libilbccodec-i386-win32-vc14-release:enhancer.obj
 0001:00021e00       _smath                     00422e00 f   libilbccodec-i386-win32-vc14-release:enhancer.obj
 0001:000226a0       _xCorrCoef                 004236a0 f   libilbccodec-i386-win32-vc14-release:enhancer.obj
 0001:00022710       _hpOutput                  00423710 f   libilbccodec-i386-win32-vc14-release:hpOutput.obj
 0001:000227e0       _syntFilter                004237e0 f   libilbccodec-i386-win32-vc14-release:syntFilter.obj
 0001:00022aa0       _a2lsf                     00423aa0 f   libilbccodec-i386-win32-vc14-release:lsf.obj
 0001:00022df0       _lsf2a                     00423df0 f   libilbccodec-i386-win32-vc14-release:lsf.obj
 0001:00023260       _AllPoleFilter             00424260 f   libilbccodec-i386-win32-vc14-release:filter.obj
 0001:00023350       _DownSample                00424350 f   libilbccodec-i386-win32-vc14-release:filter.obj
 0001:00023650       _ZeroPoleFilter            00424650 f   libilbccodec-i386-win32-vc14-release:filter.obj
 0001:00023830       _gaindequant               00424830 f   libilbccodec-i386-win32-vc14-release:gainquant.obj
 0001:000238b0       _gainquant                 004248b0 f   libilbccodec-i386-win32-vc14-release:gainquant.obj
 0001:00023950       _createAugmentedVec        00424950 f   libilbccodec-i386-win32-vc14-release:createCB.obj
 0001:000239f0       _filteredCBvecs            004249f0 f   libilbccodec-i386-win32-vc14-release:createCB.obj
 0001:00023b40       _searchAugmentedCB         00424b40 f   libilbccodec-i386-win32-vc14-release:createCB.obj
 0001:00023ec0       _getCBvec                  00424ec0 f   libilbccodec-i386-win32-vc14-release:getCBvec.obj
 0001:00024380       _speex_mode_query          00425380 f   libspeex-i386-win32-vc14-release:modes.obj
 0001:000243a0       _fprintf                   004253a0 f i libspeex-i386-win32-vc14-release:bits.obj
 0001:000243d0       _speex_bits_advance        004253d0 f   libspeex-i386-win32-vc14-release:bits.obj
 0001:00024420       _speex_bits_destroy        00425420 f   libspeex-i386-win32-vc14-release:bits.obj
 0001:00024440       _speex_bits_init           00425440 f   libspeex-i386-win32-vc14-release:bits.obj
 0001:00024490       _speex_bits_pack           00425490 f   libspeex-i386-win32-vc14-release:bits.obj
 0001:000245a0       _speex_bits_peek           004255a0 f   libspeex-i386-win32-vc14-release:bits.obj
 0001:000245f0       _speex_bits_read_from      004255f0 f   libspeex-i386-win32-vc14-release:bits.obj
 0001:000246d0       _speex_bits_remaining      004256d0 f   libspeex-i386-win32-vc14-release:bits.obj
 0001:00024700       _speex_bits_reset          00425700 f   libspeex-i386-win32-vc14-release:bits.obj
 0001:00024730       _speex_bits_unpack_unsigned 00425730 f   libspeex-i386-win32-vc14-release:bits.obj
 0001:000247c0       _speex_bits_write          004257c0 f   libspeex-i386-win32-vc14-release:bits.obj
 0001:00024850       _nb_mode_query             00425850 f   libspeex-i386-win32-vc14-release:speex.obj
 0001:000248d0       _speex_decode_int          004258d0 f   libspeex-i386-win32-vc14-release:speex.obj
 0001:000249e0       _speex_decode_native       004259e0 f   libspeex-i386-win32-vc14-release:speex.obj
 0001:00024a00       _speex_decoder_ctl         00425a00 f   libspeex-i386-win32-vc14-release:speex.obj
 0001:00024a20       _speex_decoder_destroy     00425a20 f   libspeex-i386-win32-vc14-release:speex.obj
 0001:00024a40       _speex_decoder_init        00425a40 f   libspeex-i386-win32-vc14-release:speex.obj
 0001:00024a50       _speex_encode_int          00425a50 f   libspeex-i386-win32-vc14-release:speex.obj
 0001:00024b80       _speex_encode_native       00425b80 f   libspeex-i386-win32-vc14-release:speex.obj
 0001:00024ba0       _speex_encoder_ctl         00425ba0 f   libspeex-i386-win32-vc14-release:speex.obj
 0001:00024bc0       _speex_encoder_destroy     00425bc0 f   libspeex-i386-win32-vc14-release:speex.obj
 0001:00024be0       _speex_encoder_init        00425be0 f   libspeex-i386-win32-vc14-release:speex.obj
 0001:00024bf0       _wb_mode_query             00425bf0 f   libspeex-i386-win32-vc14-release:modes_wb.obj
 0001:00024c70       _speex_lib_get_mode        00425c70 f   libspeex-i386-win32-vc14-release:modes_wb.obj
 0001:00024c90       _forced_pitch_quant        00425c90 f   libspeex-i386-win32-vc14-release:ltp.obj
 0001:00025060       _forced_pitch_unquant      00426060 f   libspeex-i386-win32-vc14-release:ltp.obj
 0001:000251a0       _inner_prod                004261a0 f   libspeex-i386-win32-vc14-release:ltp.obj
 0001:00025220       _open_loop_nbest_pitch     00426220 f   libspeex-i386-win32-vc14-release:ltp.obj
 0001:00026560       _pitch_search_3tap         00427560 f   libspeex-i386-win32-vc14-release:ltp.obj
 0001:000267c0       _pitch_unquant_3tap        004277c0 f   libspeex-i386-win32-vc14-release:ltp.obj
 0001:00026e00       _lsp_quant_high            00427e00 f   libspeex-i386-win32-vc14-release:quant_lsp.obj
 0001:000275e0       _lsp_quant_lbr             004285e0 f   libspeex-i386-win32-vc14-release:quant_lsp.obj
 0001:00027de0       _lsp_quant_nb              00428de0 f   libspeex-i386-win32-vc14-release:quant_lsp.obj
 0001:00028680       _lsp_unquant_high          00429680 f   libspeex-i386-win32-vc14-release:quant_lsp.obj
 0001:00028a20       _lsp_unquant_lbr           00429a20 f   libspeex-i386-win32-vc14-release:quant_lsp.obj
 0001:00028eb0       _lsp_unquant_nb            00429eb0 f   libspeex-i386-win32-vc14-release:quant_lsp.obj
 0001:00029920       _noise_codebook_quant      0042a920 f   libspeex-i386-win32-vc14-release:cb_search.obj
 0001:00029ae0       _noise_codebook_unquant    0042aae0 f   libspeex-i386-win32-vc14-release:cb_search.obj
 0001:00029b60       _split_cb_search_shape_sign 0042ab60 f   libspeex-i386-win32-vc14-release:cb_search.obj
 0001:0002b4a0       _split_cb_shape_sign_unquant 0042c4a0 f   libspeex-i386-win32-vc14-release:cb_search.obj
 0001:0002b630       _nb_decode                 0042c630 f   libspeex-i386-win32-vc14-release:nb_celp.obj
 0001:0002c660       _nb_decoder_ctl            0042d660 f   libspeex-i386-win32-vc14-release:nb_celp.obj
 0001:0002ca90       _nb_decoder_destroy        0042da90 f   libspeex-i386-win32-vc14-release:nb_celp.obj
 0001:0002cad0       _nb_decoder_init           0042dad0 f   libspeex-i386-win32-vc14-release:nb_celp.obj
 0001:0002cc80       _nb_encode                 0042dc80 f   libspeex-i386-win32-vc14-release:nb_celp.obj
 0001:0002e090       _nb_encoder_ctl            0042f090 f   libspeex-i386-win32-vc14-release:nb_celp.obj
 0001:0002e750       _nb_encoder_destroy        0042f750 f   libspeex-i386-win32-vc14-release:nb_celp.obj
 0001:0002e7c0       _nb_encoder_init           0042f7c0 f   libspeex-i386-win32-vc14-release:nb_celp.obj
 0001:0002ea70       _vbr_analysis              0042fa70 f   libspeex-i386-win32-vc14-release:vbr.obj
 0001:0002f250       _vbr_init                  00430250 f   libspeex-i386-win32-vc14-release:vbr.obj
 0001:0002f300       _sb_decode                 00430300 f   libspeex-i386-win32-vc14-release:sb_celp.obj
 0001:0002fac0       _sb_decoder_ctl            00430ac0 f   libspeex-i386-win32-vc14-release:sb_celp.obj
 0001:00030000       _sb_decoder_destroy        00431000 f   libspeex-i386-win32-vc14-release:sb_celp.obj
 0001:00030050       _sb_decoder_init           00431050 f   libspeex-i386-win32-vc14-release:sb_celp.obj
 0001:00030190       _sb_encode                 00431190 f   libspeex-i386-win32-vc14-release:sb_celp.obj
 0001:00030ef0       _sb_encoder_ctl            00431ef0 f   libspeex-i386-win32-vc14-release:sb_celp.obj
 0001:00031800       _sb_encoder_destroy        00432800 f   libspeex-i386-win32-vc14-release:sb_celp.obj
 0001:00031860       _sb_encoder_init           00432860 f   libspeex-i386-win32-vc14-release:sb_celp.obj
 0001:00031a90       _bw_lpc                    00432a90 f   libspeex-i386-win32-vc14-release:filters.obj
 0001:00031b50       _compute_impulse_response  00432b50 f   libspeex-i386-win32-vc14-release:filters.obj
 0001:00031ee0       _compute_rms16             00432ee0 f   libspeex-i386-win32-vc14-release:filters.obj
 0001:00031ee0       _compute_rms               00432ee0 f   libspeex-i386-win32-vc14-release:filters.obj
 0001:00031fa0       _filter_mem16              00432fa0 f   libspeex-i386-win32-vc14-release:filters.obj
 0001:00032190       _fir_mem16                 00433190 f   libspeex-i386-win32-vc14-release:filters.obj
 0001:00032390       _highpass                  00433390 f   libspeex-i386-win32-vc14-release:filters.obj
 0001:000324c0       _iir_mem16                 004334c0 f   libspeex-i386-win32-vc14-release:filters.obj
 0001:000326c0       _interp_pitch              004336c0 f   libspeex-i386-win32-vc14-release:filters.obj
 0001:00032a50       _multicomb                 00433a50 f   libspeex-i386-win32-vc14-release:filters.obj
 0001:00032f10       _qmf_decomp                00433f10 f   libspeex-i386-win32-vc14-release:filters.obj
 0001:00033230       _qmf_synth                 00434230 f   libspeex-i386-win32-vc14-release:filters.obj
 0001:000336d0       _residue_percep_zero16     004346d0 f   libspeex-i386-win32-vc14-release:filters.obj
 0001:00033770       _sanitize_values32         00434770 f   libspeex-i386-win32-vc14-release:filters.obj
 0001:000337d0       _signal_div                004347d0 f   libspeex-i386-win32-vc14-release:filters.obj
 0001:00033930       _signal_mul                00434930 f   libspeex-i386-win32-vc14-release:filters.obj
 0001:00033aa0       _syn_percep_zero16         00434aa0 f   libspeex-i386-win32-vc14-release:filters.obj
 0001:00033b40       _scal_quant                00434b40 f   libspeex-i386-win32-vc14-release:vq.obj
 0001:00033bb0       _vq_nbest                  00434bb0 f   libspeex-i386-win32-vc14-release:vq.obj
 0001:00033d00       _vq_nbest_sign             00434d00 f   libspeex-i386-win32-vc14-release:vq.obj
 0001:00033e90       _speex_default_user_handler 00434e90 f   libspeex-i386-win32-vc14-release:speex_callbacks.obj
 0001:00033ec0       _speex_inband_handler      00434ec0 f   libspeex-i386-win32-vc14-release:speex_callbacks.obj
 0001:00033f80       __spx_autocorr             00434f80 f   libspeex-i386-win32-vc14-release:lpc.obj
 0001:00034080       __spx_lpc                  00435080 f   libspeex-i386-win32-vc14-release:lpc.obj
 0001:00034230       _lpc_to_lsp                00435230 f   libspeex-i386-win32-vc14-release:lsp.obj
 0001:000349a0       _lsp_enforce_margin        004359a0 f   libspeex-i386-win32-vc14-release:lsp.obj
 0001:00034a40       _lsp_interpolate           00435a40 f   libspeex-i386-win32-vc14-release:lsp.obj
 0001:00034c90       _lsp_to_lpc                00435c90 f   libspeex-i386-win32-vc14-release:lsp.obj
 0001:00034ea0       _srtp_event_reporter       00435ea0 f   libsrtp-i386-win32-vc14-release:srtp.obj
 0001:00034f40       ___local_stdio_scanf_options 00435f40 f i libsrtp-i386-win32-vc14-release:srtp.obj
 0001:00034fd0       _srtp_add_stream           00435fd0 f   libsrtp-i386-win32-vc14-release:srtp.obj
 0001:00035280       _srtp_create               00436280 f   libsrtp-i386-win32-vc14-release:srtp.obj
 0001:00035300       _srtp_crypto_policy_set_aes_cm_256_hmac_sha1_32 00436300 f   libsrtp-i386-win32-vc14-release:srtp.obj
 0001:00035340       _srtp_crypto_policy_set_aes_cm_256_hmac_sha1_80 00436340 f   libsrtp-i386-win32-vc14-release:srtp.obj
 0001:00035380       _srtp_dealloc              00436380 f   libsrtp-i386-win32-vc14-release:srtp.obj
 0001:00035660       _srtp_get_session_keys     00436660 f   libsrtp-i386-win32-vc14-release:srtp.obj
 0001:00035770       _srtp_init                 00436770 f   libsrtp-i386-win32-vc14-release:srtp.obj
 0001:00035790       _srtp_inject_mki           00436790 f   libsrtp-i386-win32-vc14-release:srtp.obj
 0001:00035ae0       _srtp_protect              00436ae0 f   libsrtp-i386-win32-vc14-release:srtp.obj
 0001:00035e10       _srtp_protect_mki          00436e10 f   libsrtp-i386-win32-vc14-release:srtp.obj
 0001:000363c0       _srtp_protect_rtcp         004373c0 f   libsrtp-i386-win32-vc14-release:srtp.obj
 0001:000365f0       _srtp_protect_rtcp_mki     004375f0 f   libsrtp-i386-win32-vc14-release:srtp.obj
 0001:000369a0       _srtp_shutdown             004379a0 f   libsrtp-i386-win32-vc14-release:srtp.obj
 0001:000369b0       _srtp_stream_alloc         004379b0 f   libsrtp-i386-win32-vc14-release:srtp.obj
 0001:00036c40       _srtp_stream_clone         00437c40 f   libsrtp-i386-win32-vc14-release:srtp.obj
 0001:00036e60       _srtp_stream_dealloc       00437e60 f   libsrtp-i386-win32-vc14-release:srtp.obj
 0001:000370e0       _srtp_stream_init          004380e0 f   libsrtp-i386-win32-vc14-release:srtp.obj
 0001:00037260       _srtp_stream_init_keys     00438260 f   libsrtp-i386-win32-vc14-release:srtp.obj
 0001:00037a80       _srtp_unprotect            00438a80 f   libsrtp-i386-win32-vc14-release:srtp.obj
 0001:00037da0       _srtp_unprotect_mki        00438da0 f   libsrtp-i386-win32-vc14-release:srtp.obj
 0001:000383f0       _srtp_unprotect_rtcp       004393f0 f   libsrtp-i386-win32-vc14-release:srtp.obj
 0001:00038670       _srtp_unprotect_rtcp_mki   00439670 f   libsrtp-i386-win32-vc14-release:srtp.obj
 0001:00038b60       _srtp_validate_policy_master_keys 00439b60 f   libsrtp-i386-win32-vc14-release:srtp.obj
 0001:00038c10       _srtp_crypto_alloc         00439c10 f   libsrtp-i386-win32-vc14-release:alloc.obj
 0001:00038c70       _srtp_crypto_free          00439c70 f   libsrtp-i386-win32-vc14-release:alloc.obj
 0001:00038ca0       _bitvector_alloc           00439ca0 f   libsrtp-i386-win32-vc14-release:datatypes.obj
 0001:00038d00       _bitvector_dealloc         00439d00 f   libsrtp-i386-win32-vc14-release:datatypes.obj
 0001:00038d30       _bitvector_left_shift      00439d30 f   libsrtp-i386-win32-vc14-release:datatypes.obj
 0001:00038e90       _bitvector_set_to_zero     00439e90 f   libsrtp-i386-win32-vc14-release:datatypes.obj
 0001:00038eb0       _octet_string_is_eq        00439eb0 f   libsrtp-i386-win32-vc14-release:datatypes.obj
 0001:00038f80       _octet_string_set_to_zero  00439f80 f   libsrtp-i386-win32-vc14-release:datatypes.obj
 0001:00038fa0       _srtp_octet_string_hex_string 00439fa0 f   libsrtp-i386-win32-vc14-release:datatypes.obj
 0001:00039040       _v128_copy_octet_string    0043a040 f   libsrtp-i386-win32-vc14-release:datatypes.obj
 0001:000390c0       _v128_hex_string           0043a0c0 f   libsrtp-i386-win32-vc14-release:datatypes.obj
 0001:00039150       _v128_left_shift           0043a150 f   libsrtp-i386-win32-vc14-release:datatypes.obj
 0001:00039230       _srtp_err_report           0043a230 f   libsrtp-i386-win32-vc14-release:srtp_err.obj
 0001:00039260       _srtp_rdbx_add_index       0043a260 f   libsrtp-i386-win32-vc14-release:rdbx.obj
 0001:000392b0       _srtp_rdbx_check           0043a2b0 f   libsrtp-i386-win32-vc14-release:rdbx.obj
 0001:000392f0       _srtp_rdbx_dealloc         0043a2f0 f   libsrtp-i386-win32-vc14-release:rdbx.obj
 0001:00039310       _srtp_rdbx_estimate_index  0043a310 f   libsrtp-i386-win32-vc14-release:rdbx.obj
 0001:000393c0       _srtp_rdbx_get_packet_index 0043a3c0 f   libsrtp-i386-win32-vc14-release:rdbx.obj
 0001:000393d0       _srtp_rdbx_get_window_size 0043a3d0 f   libsrtp-i386-win32-vc14-release:rdbx.obj
 0001:000393d0       _srtp_cipher_get_key_length 0043a3d0 f   libsrtp-i386-win32-vc14-release:cipher.obj
 0001:000393d0       _srtp_auth_get_tag_length  0043a3d0 f   libsrtp-i386-win32-vc14-release:auth.obj
 0001:000393e0       _srtp_rdbx_init            0043a3e0 f   libsrtp-i386-win32-vc14-release:rdbx.obj
 0001:00039420       _srtp_rdbx_set_roc         0043a420 f   libsrtp-i386-win32-vc14-release:rdbx.obj
 0001:00039480       _srtp_rdbx_set_roc_seq     0043a480 f   libsrtp-i386-win32-vc14-release:rdbx.obj
 0001:000394e0       _srtp_rdb_add_index        0043a4e0 f   libsrtp-i386-win32-vc14-release:rdb.obj
 0001:00039530       _srtp_rdb_check            0043a530 f   libsrtp-i386-win32-vc14-release:rdb.obj
 0001:00039580       _srtp_rdb_increment        0043a580 f   libsrtp-i386-win32-vc14-release:rdb.obj
 0001:000395a0       _srtp_rdb_init             0043a5a0 f   libsrtp-i386-win32-vc14-release:rdb.obj
 0001:000395d0       _srtp_cipher_dealloc       0043a5d0 f   libsrtp-i386-win32-vc14-release:cipher.obj
 0001:000395f0       _srtp_cipher_decrypt       0043a5f0 f   libsrtp-i386-win32-vc14-release:cipher.obj
 0001:00039620       _srtp_cipher_encrypt       0043a620 f   libsrtp-i386-win32-vc14-release:cipher.obj
 0001:00039650       _srtp_cipher_get_tag       0043a650 f   libsrtp-i386-win32-vc14-release:cipher.obj
 0001:00039690       _srtp_cipher_init          0043a690 f   libsrtp-i386-win32-vc14-release:cipher.obj
 0001:000396c0       _srtp_cipher_output        0043a6c0 f   libsrtp-i386-win32-vc14-release:cipher.obj
 0001:000396f0       _srtp_cipher_set_aad       0043a6f0 f   libsrtp-i386-win32-vc14-release:cipher.obj
 0001:00039730       _srtp_cipher_set_iv        0043a730 f   libsrtp-i386-win32-vc14-release:cipher.obj
 0001:00039760       _srtp_cipher_type_self_test 0043a760 f   libsrtp-i386-win32-vc14-release:cipher.obj
 0001:00039780       _srtp_cipher_type_test     0043a780 f   libsrtp-i386-win32-vc14-release:cipher.obj
 0001:0003a560       _srtp_auth_get_key_length  0043b560 f   libsrtp-i386-win32-vc14-release:auth.obj
 0001:0003a570       _srtp_auth_get_prefix_length 0043b570 f   libsrtp-i386-win32-vc14-release:auth.obj
 0001:0003a580       _srtp_auth_type_self_test  0043b580 f   libsrtp-i386-win32-vc14-release:auth.obj
 0001:0003a5a0       _srtp_auth_type_test       0043b5a0 f   libsrtp-i386-win32-vc14-release:auth.obj
 0001:0003a820       _srtp_key_limit_clone      0043b820 f   libsrtp-i386-win32-vc14-release:key.obj
 0001:0003a840       _srtp_key_limit_set        0043b840 f   libsrtp-i386-win32-vc14-release:key.obj
 0001:0003a880       _srtp_key_limit_update     0043b880 f   libsrtp-i386-win32-vc14-release:key.obj
 0001:0003a8e0       _srtp_crypto_kernel_alloc_auth 0043b8e0 f   libsrtp-i386-win32-vc14-release:crypto_kernel.obj
 0001:0003a930       _srtp_crypto_kernel_alloc_cipher 0043b930 f   libsrtp-i386-win32-vc14-release:crypto_kernel.obj
 0001:0003a980       _srtp_crypto_kernel_init   0043b980 f   libsrtp-i386-win32-vc14-release:crypto_kernel.obj
 0001:0003adb0       _srtp_crypto_kernel_load_debug_module 0043bdb0 f   libsrtp-i386-win32-vc14-release:crypto_kernel.obj
 0001:0003ae30       _srtp_crypto_kernel_shutdown 0043be30 f   libsrtp-i386-win32-vc14-release:crypto_kernel.obj
 0001:0003af30       _srtp_ekt_alloc            0043bf30 f   libsrtp-i386-win32-vc14-release:ekt.obj
 0001:0003af40       _srtp_ekt_octets_after_base_tag 0043bf40 f   libsrtp-i386-win32-vc14-release:ekt.obj
 0001:0003af60       _srtp_ekt_write_data       0043bf60 f   libsrtp-i386-win32-vc14-release:ekt.obj
 0001:0003b0b0       _srtp_stream_init_from_ekt 0043c0b0 f   libsrtp-i386-win32-vc14-release:ekt.obj
 0001:0003c570       _srtp_aes_decrypt          0043d570 f   libsrtp-i386-win32-vc14-release:aes.obj
 0001:0003c6a0       _srtp_aes_encrypt          0043d6a0 f   libsrtp-i386-win32-vc14-release:aes.obj
 0001:0003c7d0       _srtp_aes_expand_decryption_key 0043d7d0 f   libsrtp-i386-win32-vc14-release:aes.obj
 0001:0003cad0       _srtp_aes_expand_encryption_key 0043dad0 f   libsrtp-i386-win32-vc14-release:aes.obj
 0001:0003cc10       _srtp_sha1_core            0043dc10 f   libsrtp-i386-win32-vc14-release:sha1.obj
 0001:0003d160       _srtp_sha1_final           0043e160 f   libsrtp-i386-win32-vc14-release:sha1.obj
 0001:0003d7a0       _srtp_sha1_init            0043e7a0 f   libsrtp-i386-win32-vc14-release:sha1.obj
 0001:0003d7e0       _srtp_sha1_update          0043e7e0 f   libsrtp-i386-win32-vc14-release:sha1.obj
 0001:0003d8b5       ___WSAFDIsSet@8            0043e8b5 f   ws2_32:WS2_32.dll
 0001:0003d8bb       @__security_check_cookie@4 0043e8bb f   MSVCRT:secchk.obj
 0001:0003db13       _mainCRTStartup            0043eb13 f   MSVCRT:exe_main.obj
 0001:0003db20       __aulldiv                  0043eb20 f   MSVCRT:ulldiv.obj
 0001:0003db88       ___raise_securityfailure   0043eb88 f   MSVCRT:gs_report.obj
 0001:0003dbb0       ___report_gsfailure        0043ebb0 f   MSVCRT:gs_report.obj
 0001:0003dca9       ___report_rangecheckfailure 0043eca9 f   MSVCRT:gs_report.obj
 0001:0003dcb5       ___report_securityfailure  0043ecb5 f   MSVCRT:gs_report.obj
 0001:0003dd90       ___vdecl_cos2              0043ed90 f   MSVCRT:svml_dcos2_dispatch.obj
 0001:0003dda0       __alldiv                   0043eda0 f   MSVCRT:lldiv.obj
 0001:0003de50       __allmul                   0043ee50 f   MSVCRT:llmul.obj
 0001:0003de90       __ftoui3                   0043ee90 f   MSVCRT:ftol3.obj
 0001:0003de9f       __ftoul3                   0043ee9f f   MSVCRT:ftol3.obj
 0001:0003deae       __ftol3                    0043eeae f   MSVCRT:ftol3.obj
 0001:0003debb       __ftol3_NaN                0043eebb f   MSVCRT:ftol3.obj
 0001:0003ded3       __ftol3_work               0043eed3 f   MSVCRT:ftol3.obj
 0001:0003df59       __ftol3_common             0043ef59 f   MSVCRT:ftol3.obj
 0001:0003e01b       __ftol3_arg_error          0043f01b f   MSVCRT:ftol3.obj
 0001:0003e02d       __ftol3_except             0043f02d f   MSVCRT:ftol3.obj
 0001:0003e071       __dtoui3                   0043f071 f   MSVCRT:ftol3.obj
 0001:0003e080       __dtoul3                   0043f080 f   MSVCRT:ftol3.obj
 0001:0003e08f       __dtol3                    0043f08f f   MSVCRT:ftol3.obj
 0001:0003e09c       __dtol3_NaN                0043f09c f   MSVCRT:ftol3.obj
 0001:0003e0b9       __dtol3_work               0043f0b9 f   MSVCRT:ftol3.obj
 0001:0003e1a0       __ultod3                   0043f1a0 f   MSVCRT:ftol3.obj
 0001:0003e1e0       __ltod3                    0043f1e0 f   MSVCRT:ftol3.obj
 0001:0003e210       __alloca_probe             0043f210 f   MSVCRT:chkstk.obj
 0001:0003e210       __chkstk                   0043f210 f   MSVCRT:chkstk.obj
 0001:0003e240       __alloca_probe_16          0043f240 f   MSVCRT:alloca16.obj
 0001:0003e256       __alloca_probe_8           0043f256     MSVCRT:alloca16.obj
 0001:0003e26c       ___isa_available_init      0043f26c f   MSVCRT:cpu_disp.obj
 0001:0003e447       ___scrt_acquire_startup_lock 0043f447 f   MSVCRT:utility.obj
 0001:0003e479       ___scrt_initialize_crt     0043f479 f   MSVCRT:utility.obj
 0001:0003e4b2       ___scrt_initialize_onexit_tables 0043f4b2 f   MSVCRT:utility.obj
 0001:0003e557       ___scrt_is_nonwritable_in_current_image 0043f557 f   MSVCRT:utility.obj
 0001:0003e5eb       ___scrt_release_startup_lock 0043f5eb f   MSVCRT:utility.obj
 0001:0003e608       ___scrt_uninitialize_crt   0043f608 f   MSVCRT:utility.obj
 0001:0003e630       __onexit                   0043f630 f   MSVCRT:utility.obj
 0001:0003e66b       _atexit                    0043f66b f   MSVCRT:utility.obj
 0001:0003e6cd       ___security_init_cookie    0043f6cd f   MSVCRT:gs_support.obj
 0001:0003e718       __get_startup_argv_mode    0043f718 f   MSVCRT:argv_mode.obj
 0001:0003e71c       __get_startup_file_mode    0043f71c f   MSVCRT:file_mode.obj
 0001:0003e722       ?__scrt_initialize_type_info@@YAXXZ 0043f722 f   MSVCRT:tncleanup.obj
 0001:0003e72e       ___scrt_stub_for_acrt_initialize 0043f72e f   MSVCRT:ucrt_stubs.obj
 0001:0003e72e       ___acrt_uninitialize       0043f72e f   MSVCRT:ucrt_stubs.obj
 0001:0003e72e       ___vcrt_uninitialize       0043f72e f   MSVCRT:ucrt_stubs.obj
 0001:0003e72e       ___scrt_stub_for_acrt_uninitialize 0043f72e f   MSVCRT:ucrt_stubs.obj
 0001:0003e72e       ___vcrt_initialize         0043f72e f   MSVCRT:ucrt_stubs.obj
 0001:0003e72e       ___acrt_initialize         0043f72e f   MSVCRT:ucrt_stubs.obj
 0001:0003e72e       __should_initialize_environment 0043f72e f   MSVCRT:env_mode.obj
 0001:0003e731       __initialize_default_precision 0043f731 f   MSVCRT:default_precision.obj
 0001:0003e752       ___scrt_initialize_default_local_stdio_options 0043f752 f   MSVCRT:default_local_stdio_options.obj
 0001:0003e76f       ___scrt_is_user_matherr_present 0043f76f f   MSVCRT:matherr_detection.obj
 0001:0003e77b       ___scrt_get_dyn_tls_init_callback 0043f77b f   MSVCRT:dyn_tls_init.obj
 0001:0003e781       ___scrt_get_dyn_tls_dtor_callback 0043f781 f   MSVCRT:dyn_tls_dtor.obj
 0001:0003e787       ___scrt_fastfail           0043f787 f   MSVCRT:utility_desktop.obj
 0001:0003e8a1       ___scrt_initialize_mta     0043f8a1 f   MSVCRT:utility_desktop.obj
 0001:0003e8a6       ___scrt_is_managed_app     0043f8a6 f   MSVCRT:utility_desktop.obj
 0001:0003e8e9       ___scrt_set_unhandled_exception_filter 0043f8e9 f   MSVCRT:utility_desktop.obj
 0001:0003e8f5       ___scrt_unhandled_exception_filter@4 0043f8f5 f   MSVCRT:utility_desktop.obj
 0001:0003e936       __crt_debugger_hook        0043f936 f   MSVCRT:utility_desktop.obj
 0001:0003e93e       __RTC_Initialize           0043f93e f   MSVCRT:initsect.obj
 0001:0003e96a       __RTC_Terminate            0043f96a f   MSVCRT:initsect.obj
 0001:0003e9a0       __SEH_prolog4              0043f9a0 f   MSVCRT:sehprolg4.obj
 0001:0003e9e6       __SEH_epilog4              0043f9e6 f   MSVCRT:sehprolg4.obj
 0001:0003e9fb       __except_handler4          0043f9fb f   MSVCRT:chandler4gs.obj
 0001:0003ea20       ___sse2_cos2               0043fa20 f   MSVCRT:svml_dcos2_sse2.obj
 0001:0003ebc0       ___scrt_is_ucrt_dll_in_use 0043fbc0 f   MSVCRT:ucrt_detection.obj
 0001:0003ebd0       ___common_sin_reduction_LA 0043fbd0 f   MSVCRT:svml_dtrig.obj
 0001:0003ef20       ___common_cos_reduction_LA 0043ff20 f   MSVCRT:svml_dtrig.obj
 0001:0003f210       ___common_pi04_reduction_LA 00440210 f   MSVCRT:svml_dtrig.obj
 0001:0003f7d0       _compute_stereo_width      004407d0 f   opus:opus_encoder.obj
 0001:0003fa00       _downmix_int               00440a00 f   opus:opus_encoder.obj
 0001:0003ff30       _frame_size_select         00440f30 f   opus:opus_encoder.obj
 0001:00040270       _opus_encode               00441270 f   opus:opus_encoder.obj
 0001:00040340       _opus_encode_native        00441340 f   opus:opus_encoder.obj
 0001:00042bb0       _opus_encoder_ctl          00443bb0 f   opus:opus_encoder.obj
 0001:00043520       _opus_encoder_get_size     00444520 f   opus:opus_encoder.obj
 0001:00043570       _opus_encoder_init         00444570 f   opus:opus_encoder.obj
 0001:00043950       _opus_decode               00444950 f   opus:opus_decoder.obj
 0001:00044430       _opus_decode_native        00445430 f   opus:opus_decoder.obj
 0001:000447c0       _opus_decoder_get_size     004457c0 f   opus:opus_decoder.obj
 0001:00044810       _opus_decoder_init         00445810 f   opus:opus_decoder.obj
 0001:00044950       _opus_packet_get_nb_frames 00445950 f   opus:opus_decoder.obj
 0001:000449a0       _opus_packet_get_nb_samples 004459a0 f   opus:opus_decoder.obj
 0001:00044ab0       _opus_packet_pad           00445ab0 f   opus:repacketizer.obj
 0001:00044b60       _opus_repacketizer_cat     00445b60 f   opus:repacketizer.obj
 0001:00044c30       _opus_repacketizer_get_nb_frames 00445c30 f   opus:repacketizer.obj
 0001:00044c40       _opus_repacketizer_get_size 00445c40 f   opus:repacketizer.obj
 0001:00044c50       _opus_repacketizer_init    00445c50 f   opus:repacketizer.obj
 0001:00044c60       _opus_repacketizer_out     00445c60 f   opus:repacketizer.obj
 0001:00044c80       _opus_repacketizer_out_range 00445c80 f   opus:repacketizer.obj
 0001:00044ca0       _opus_repacketizer_out_range_impl 00445ca0 f   opus:repacketizer.obj
 0001:00045360       _celt_encode_with_ec       00446360 f   opus:celt_encoder.obj
 0001:00047120       _celt_encoder_get_size     00448120 f   opus:celt_encoder.obj
 0001:00047160       _celt_encoder_init         00448160 f   opus:celt_encoder.obj
 0001:000472a0       _celt_preemphasis          004482a0 f   opus:celt_encoder.obj
 0001:00048270       _opus_custom_encoder_ctl   00449270 f   opus:celt_encoder.obj
 0001:000493c0       _ec_enc_bit_logp           0044a3c0 f   opus:entenc.obj
 0001:00049400       _ec_enc_bits               0044a400 f   opus:entenc.obj
 0001:00049500       _ec_enc_done               0044a500 f   opus:entenc.obj
 0001:00049660       _ec_enc_icdf               0044a660 f   opus:entenc.obj
 0001:000496d0       _ec_enc_init               0044a6d0 f   opus:entenc.obj
 0001:00049810       _ec_enc_patch_initial_bits 0044a810 f   opus:entenc.obj
 0001:000498a0       _ec_enc_shrink             0044a8a0 f   opus:entenc.obj
 0001:000498d0       _ec_enc_uint               0044a8d0 f   opus:entenc.obj
 0001:000499e0       _ec_encode                 0044a9e0 f   opus:entenc.obj
 0001:00049a40       _ec_encode_bin             0044aa40 f   opus:entenc.obj
 0001:00049aa0       _opus_select_arch          0044aaa0 f   opus:x86cpu.obj
 0001:00049b80       _silk_Encode               0044ab80 f   opus:enc_API.obj
 0001:0004a940       _silk_Get_Encoder_Size     0044b940 f   opus:enc_API.obj
 0001:0004a950       _silk_InitEncoder          0044b950 f   opus:enc_API.obj
 0001:0004ac10       _run_analysis              0044bc10 f   opus:analysis.obj
 0001:0004ceb0       _tonality_analysis_init    0044deb0 f   opus:analysis.obj
 0001:0004cf00       _tonality_analysis_reset   0044df00 f   opus:analysis.obj
 0001:0004cf40       _tonality_get_info         0044df40 f   opus:analysis.obj
 0001:0004d150       _silk_lin2log              0044e150 f   opus:lin2log.obj
 0001:0004d1c0       _silk_log2lin              0044e1c0 f   opus:log2lin.obj
 0001:0004df70       _celt_decode_with_ec       0044ef70 f   opus:celt_decoder.obj
 0001:0004eaf0       _celt_decoder_get_size     0044faf0 f   opus:celt_decoder.obj
 0001:0004eb30       _celt_decoder_init         0044fb30 f   opus:celt_decoder.obj
 0001:0004f430       _opus_custom_decoder_ctl   00450430 f   opus:celt_decoder.obj
 0001:0004f660       _ec_dec_bit_logp           00450660 f   opus:entdec.obj
 0001:0004f6b0       _ec_dec_bits               004506b0 f   opus:entdec.obj
 0001:0004f720       _ec_dec_icdf               00450720 f   opus:entdec.obj
 0001:0004f770       _ec_dec_init               00450770 f   opus:entdec.obj
 0001:0004f860       _ec_dec_uint               00450860 f   opus:entdec.obj
 0001:0004f9b0       _ec_dec_update             004509b0 f   opus:entdec.obj
 0001:0004fa00       _ec_decode                 00450a00 f   opus:entdec.obj
 0001:0004fa40       _ec_decode_bin             00450a40 f   opus:entdec.obj
 0001:0004fa80       _encode_size               00450a80 f   opus:opus.obj
 0001:0004fac0       _opus_packet_get_samples_per_frame 00450ac0 f   opus:opus.obj
 0001:0004fb60       _opus_packet_parse_impl    00450b60 f   opus:opus.obj
 0001:0004fec0       _opus_pcm_soft_clip        00450ec0 f   opus:opus.obj
 0001:000503f0       _silk_Decode               004513f0 f   opus:dec_API.obj
 0001:00050e30       _silk_Get_Decoder_Size     00451e30 f   opus:dec_API.obj
 0001:00050e40       _silk_InitDecoder          00451e40 f   opus:dec_API.obj
 0001:00050e90       _clt_mdct_backward_c       00451e90 f   opus:mdct.obj
 0001:000510a0       _clt_mdct_forward_c        004520a0 f   opus:mdct.obj
 0001:000513b0       _opus_custom_mode_create   004523b0 f   opus:modes.obj
 0001:00051420       _ec_tell_frac              00452420 f   opus:entcode.obj
 0001:00051460       _comb_filter               00452460 f   opus:celt.obj
 0001:000516c0       _comb_filter_const_c       004526c0 f   opus:celt.obj
 0001:00051760       _init_caps                 00452760 f   opus:celt.obj
 0001:000517d0       _resampling_factor         004527d0 f   opus:celt.obj
 0001:00051830       _celt_pitch_xcorr_c        00452830 f   opus:pitch.obj
 0001:00051ad0       _pitch_downsample          00452ad0 f   opus:pitch.obj
 0001:00051cc0       _pitch_search              00452cc0 f   opus:pitch.obj
 0001:00052000       _remove_doubling           00453000 f   opus:pitch.obj
 0001:000523c0       _compute_allocation        004533c0 f   opus:rate.obj
 0001:00052e80       _anti_collapse             00453e80 f   opus:bands.obj
 0001:00053110       _bitexact_cos              00454110 f   opus:bands.obj
 0001:00053170       _bitexact_log2tan          00454170 f   opus:bands.obj
 0001:00053200       _celt_lcg_rand             00454200 f   opus:bands.obj
 0001:00053220       _compute_band_energies     00454220 f   opus:bands.obj
 0001:00053bd0       _denormalise_bands         00454bd0 f   opus:bands.obj
 0001:00053cf0       _haar1                     00454cf0 f   opus:bands.obj
 0001:00053d70       _hysteresis_decision       00454d70 f   opus:bands.obj
 0001:00054180       _normalise_bands           00455180 f   opus:bands.obj
 0001:000542c0       _quant_all_bands           004552c0 f   opus:bands.obj
 0001:00055f40       _spreading_decision        00456f40 f   opus:bands.obj
 0001:00056190       _amp2Log2                  00457190 f   opus:quant_bands.obj
 0001:00056260       _quant_coarse_energy       00457260 f   opus:quant_bands.obj
 0001:000569b0       _quant_energy_finalise     004579b0 f   opus:quant_bands.obj
 0001:00056ac0       _quant_fine_energy         00457ac0 f   opus:quant_bands.obj
 0001:00056be0       _unquant_coarse_energy     00457be0 f   opus:quant_bands.obj
 0001:00056d50       _unquant_energy_finalise   00457d50 f   opus:quant_bands.obj
 0001:00056e10       _unquant_fine_energy       00457e10 f   opus:quant_bands.obj
 0001:00056ea0       _silk_resampler            00457ea0 f   opus:resampler.obj
 0001:00056ff0       _silk_resampler_init       00457ff0 f   opus:resampler.obj
 0001:00057400       _silk_stereo_LR_to_MS      00458400 f   opus:stereo_LR_to_MS.obj
 0001:00057bb0       _silk_stereo_encode_mid_only 00458bb0 f   opus:stereo_encode_pred.obj
 0001:00057bd0       _silk_stereo_encode_pred   00458bd0 f   opus:stereo_encode_pred.obj
 0001:00057c40       _check_control_input       00458c40 f   opus:check_control_input.obj
 0001:00057d90       _silk_control_SNR          00458d90 f   opus:control_SNR.obj
 0001:00057e50       _silk_encode_pulses        00458e50 f   opus:encode_pulses.obj
 0001:00058280       _silk_encode_indices       00459280 f   opus:encode_indices.obj
 0001:000585f0       _silk_HP_variable_cutoff   004595f0 f   opus:HP_variable_cutoff.obj
 0001:00058770       _silk_encode_do_VAD_FLP    00459770 f   opus:encode_frame_FLP.obj
 0001:00058810       _silk_encode_frame_FLP     00459810 f   opus:encode_frame_FLP.obj
 0001:00059400       _silk_init_encoder         0045a400 f   opus:init_encoder.obj
 0001:00059450       _silk_control_encoder      0045a450 f   opus:control_codec.obj
 0001:0005a270       _opus_fft_c                0045b270 f   opus:kiss_fft.obj
 0001:0005a5f0       _opus_fft_impl             0045b5f0 f   opus:kiss_fft.obj
 0001:0005a940       _mlp_process               0045b940 f   opus:mlp.obj
 0001:0005aca0       _celt_inner_prod_sse       0045bca0 f   opus:pitch_sse.obj
 0001:0005ad90       _comb_filter_const_sse     0045bd90 f   opus:pitch_sse.obj
 0001:0005ae30       _dual_inner_prod_sse       0045be30 f   opus:pitch_sse.obj
 0001:0005af20       _xcorr_kernel_sse          0045bf20 f   opus:pitch_sse.obj
 0001:0005b010       _op_pvq_search_sse2        0045c010 f   opus:vq_sse2.obj
 0001:0005b3e0       _alg_quant                 0045c3e0 f   opus:vq.obj
 0001:0005b4b0       _alg_unquant               0045c4b0 f   opus:vq.obj
 0001:0005b540       _exp_rotation              0045c540 f   opus:vq.obj
 0001:0005b780       _op_pvq_search_c           0045c780 f   opus:vq.obj
 0001:0005ba30       _renormalise_vector        0045ca30 f   opus:vq.obj
 0001:0005bab0       _stereo_itheta             0045cab0 f   opus:vq.obj
 0001:0005bc40       __celt_autocorr            0045cc40 f   opus:celt_lpc.obj
 0001:0005be30       __celt_lpc                 0045ce30 f   opus:celt_lpc.obj
 0001:0005bf60       _celt_fir_c                0045cf60 f   opus:celt_lpc.obj
 0001:0005c190       _celt_iir                  0045d190 f   opus:celt_lpc.obj
 0001:0005c530       _silk_stereo_MS_to_LR      0045d530 f   opus:stereo_MS_to_LR.obj
 0001:0005c7b0       _silk_stereo_decode_mid_only 0045d7b0 f   opus:stereo_decode_pred.obj
 0001:0005c7d0       _silk_stereo_decode_pred   0045d7d0 f   opus:stereo_decode_pred.obj
 0001:0005c900       _silk_init_decoder         0045d900 f   opus:init_decoder.obj
 0001:0005c960       _silk_decoder_set_fs       0045d960 f   opus:decoder_set_fs.obj
 0001:0005caf0       _silk_decode_frame         0045daf0 f   opus:decode_frame.obj
 0001:0005cc90       _silk_decode_indices       0045dc90 f   opus:decode_indices.obj
 0001:0005cfa0       _silk_decode_pulses        0045dfa0 f   opus:decode_pulses.obj
 0001:0005d1d0       _isqrt32                   0045e1d0 f   opus:mathops.obj
 0001:0005d200       _ec_laplace_decode         0045e200 f   opus:laplace.obj
 0001:0005d2b0       _ec_laplace_encode         0045e2b0 f   opus:laplace.obj
 0001:0005d370       _silk_resampler_private_IIR_FIR 0045e370 f   opus:resampler_private_IIR_FIR.obj
 0001:0005d560       _silk_resampler_private_down_FIR 0045e560 f   opus:resampler_private_down_FIR.obj
 0001:0005e030       _silk_resampler_private_up2_HQ 0045f030 f   opus:resampler_private_up2_HQ.obj
 0001:0005e1d0       _silk_resampler_private_up2_HQ_wrapper 0045f1d0 f   opus:resampler_private_up2_HQ.obj
 0001:0005e250       _silk_stereo_find_predictor 0045f250 f   opus:stereo_find_predictor.obj
 0001:0005e420       _silk_stereo_quant_pred    0045f420 f   opus:stereo_quant_pred.obj
 0001:0005e520       _silk_decode_signs         0045f520 f   opus:code_signs.obj
 0001:0005e5d0       _silk_encode_signs         0045f5d0 f   opus:code_signs.obj
 0001:0005e670       _silk_shell_decoder        0045f670 f   opus:shell_coder.obj
 0001:0005e9b0       _silk_shell_encoder        0045f9b0 f   opus:shell_coder.obj
 0001:0005ec30       _silk_NLSF_unpack          0045fc30 f   opus:NLSF_unpack.obj
 0001:0005ed00       _silk_gains_ID             0045fd00 f   opus:gain_quant.obj
 0001:0005ed30       _silk_gains_dequant        0045fd30 f   opus:gain_quant.obj
 0001:0005ede0       _silk_gains_quant          0045fde0 f   opus:gain_quant.obj
 0001:0005f170       _silk_LP_variable_cutoff   00460170 f   opus:LP_variable_cutoff.obj
 0001:0005f210       _silk_noise_shape_analysis_FLP 00460210 f   opus:noise_shape_analysis_FLP.obj
 0001:0005fdf0       _silk_find_pitch_lags_FLP  00460df0 f   opus:find_pitch_lags_FLP.obj
 0001:00060090       _silk_find_pred_coefs_FLP  00461090 f   opus:find_pred_coefs_FLP.obj
 0001:00060310       _silk_process_gains_FLP    00461310 f   opus:process_gains_FLP.obj
 0001:00060550       _silk_A2NLSF_FLP           00461550 f   opus:wrappers_FLP.obj
 0001:000605c0       _silk_NLSF2A_FLP           004615c0 f   opus:wrappers_FLP.obj
 0001:00060680       _silk_NSQ_wrapper_FLP      00461680 f   opus:wrappers_FLP.obj
 0001:00060ae0       _silk_process_NLSFs_FLP    00461ae0 f   opus:wrappers_FLP.obj
 0001:00060b80       _silk_quant_LTP_gains_FLP  00461b80 f   opus:wrappers_FLP.obj
 0001:00060d40       _silk_VAD_GetNoiseLevels   00461d40 f   opus:VAD.obj
 0001:00060e40       _silk_VAD_GetSA_Q8_c       00461e40 f   opus:VAD.obj
 0001:00061440       _silk_VAD_Init             00462440 f   opus:VAD.obj
 0001:000614e0       _silk_control_audio_bandwidth 004624e0 f   opus:control_audio_bandwidth.obj
 0001:00061800       _decode_pulses             00462800 f   opus:cwrs.obj
 0001:00061860       _encode_pulses             00462860 f   opus:cwrs.obj
 0001:00061940       _silk_PLC                  00462940 f   opus:PLC.obj
 0001:000619d0       _silk_PLC_Reset            004629d0 f   opus:PLC.obj
 0001:000624a0       _silk_PLC_glue_frames      004634a0 f   opus:PLC.obj
 0001:000628e0       _silk_CNG                  004638e0 f   opus:CNG.obj
 0001:00063090       _silk_CNG_Reset            00464090 f   opus:CNG.obj
 0001:00063100       _silk_decode_parameters    00464100 f   opus:decode_parameters.obj
 0001:00063380       _silk_decode_core          00464380 f   opus:decode_core.obj
 0001:00063e30       _silk_resampler_private_AR2 00464e30 f   opus:resampler_private_AR2.obj
 0001:00063ea0       _silk_sum_sqr_shift        00464ea0 f   opus:sum_sqr_shift.obj
 0001:00063f80       _silk_inner_prod_aligned_scale 00464f80 f   opus:inner_prod_aligned.obj
 0001:00064020       _silk_biquad_alt_stride1   00465020 f   opus:biquad_alt.obj
 0001:00064180       _silk_bwexpander_FLP       00465180 f   opus:bwexpander_FLP.obj
 0001:00064200       _silk_schur_FLP            00465200 f   opus:schur_FLP.obj
 0001:000642f0       _silk_k2a_FLP              004652f0 f   opus:k2a_FLP.obj
 0001:00064360       _silk_autocorrelation_FLP  00465360 f   opus:autocorrelation_FLP.obj
 0001:000643b0       _silk_energy_FLP           004653b0 f   opus:energy_FLP.obj
 0001:00064450       _silk_warped_autocorrelation_FLP 00465450 f   opus:warped_autocorrelation_FLP.obj
 0001:00064660       _silk_apply_sine_window_FLP 00465660 f   opus:apply_sine_window_FLP.obj
 0001:00064b60       _silk_pitch_analysis_core_FLP 00465b60 f   opus:pitch_analysis_core_FLP.obj
 0001:000658b0       _silk_LPC_analysis_filter_FLP 004668b0 f   opus:LPC_analysis_filter_FLP.obj
 0001:00065b80       _silk_scale_copy_vector_FLP 00466b80 f   opus:scale_copy_vector_FLP.obj
 0001:00065c80       _silk_LTP_scale_ctrl_FLP   00466c80 f   opus:LTP_scale_ctrl_FLP.obj
 0001:00065d10       _silk_find_LPC_FLP         00466d10 f   opus:find_LPC_FLP.obj
 0001:00065f20       _silk_find_LTP_FLP         00466f20 f   opus:find_LTP_FLP.obj
 0001:00066000       _silk_LTP_analysis_filter_FLP 00467000 f   opus:LTP_analysis_filter_FLP.obj
 0001:000660f0       _silk_residual_energy_FLP  004670f0 f   opus:residual_energy_FLP.obj
 0001:00066240       _silk_A2NLSF               00467240 f   opus:A2NLSF.obj
 0001:00066ae0       _silk_NLSF2A               00467ae0 f   opus:NLSF2A.obj
 0001:00066d40       _silk_quant_LTP_gains      00467d40 f   opus:quant_LTP_gains.obj
 0001:00066f10       _silk_NSQ_c                00467f10 f   opus:NSQ.obj
 0001:000671c0       _silk_noise_shape_quantizer 004681c0 f   opus:NSQ.obj
 0001:00067e00       _silk_NSQ_del_dec_c        00468e00 f   opus:NSQ_del_dec.obj
 0001:00069660       _silk_process_NLSFs        0046a660 f   opus:process_NLSFs.obj
 0001:00069820       _silk_VAD_GetSA_Q8_sse4_1  0046a820 f   opus:VAD_sse.obj
 0001:00069e00       _silk_ana_filt_bank_1      0046ae00 f   opus:ana_filt_bank_1.obj
 0001:00069f20       _silk_sigm_Q15             0046af20 f   opus:sigm_Q15.obj
 0001:00069f90       _silk_LPC_analysis_filter  0046af90 f   opus:LPC_analysis_filter.obj
 0001:0006a0b0       _silk_bwexpander           0046b0b0 f   opus:bwexpander.obj
 0001:0006a540       _silk_LPC_inverse_pred_gain_c 0046b540 f   opus:LPC_inv_pred_gain.obj
 0001:0006a5f0       _silk_decode_pitch         0046b5f0 f   opus:decode_pitch.obj
 0001:0006a6b0       _silk_NLSF_decode          0046b6b0 f   opus:NLSF_decode.obj
 0001:0006a800       _silk_inner_product_FLP    0046b800 f   opus:inner_product_FLP.obj
 0001:0006a8f0       _silk_resampler_down2      0046b8f0 f   opus:resampler_down2.obj
 0001:0006a9d0       _silk_resampler_down2_3    0046b9d0 f   opus:resampler_down2_3.obj
 0001:0006ac60       _silk_insertion_sort_decreasing_FLP 0046bc60 f   opus:sort_FLP.obj
 0001:0006ad50       _silk_burg_modified_FLP    0046bd50 f   opus:burg_modified_FLP.obj
 0001:0006b2f0       _silk_interpolate          0046c2f0 f   opus:interpolate.obj
 0001:0006b340       _silk_scale_vector_FLP     0046c340 f   opus:scale_vector_FLP.obj
 0001:0006b3f0       _silk_corrMatrix_FLP       0046c3f0 f   opus:corrMatrix_FLP.obj
 0001:0006b570       _silk_corrVector_FLP       0046c570 f   opus:corrMatrix_FLP.obj
 0001:0006b5b0       _silk_bwexpander_32        0046c5b0 f   opus:bwexpander_32.obj
 0001:0006b650       _silk_LPC_fit              0046c650 f   opus:LPC_fit.obj
 0001:0006b810       _silk_VQ_WMat_EC_c         0046c810 f   opus:VQ_WMat_EC.obj
 0001:0006ba60       _silk_NLSF_VQ_weights_laroia 0046ca60 f   opus:NLSF_VQ_weights_laroia.obj
 0001:0006bb90       _silk_NLSF_encode          0046cb90 f   opus:NLSF_encode.obj
 0001:0006bfb0       _silk_NLSF_stabilize       0046cfb0 f   opus:NLSF_stabilize.obj
 0001:0006c260       _silk_insertion_sort_increasing 0046d260 f   opus:sort.obj
 0001:0006c360       _silk_insertion_sort_increasing_all_values_int16 0046d360 f   opus:sort.obj
 0001:0006c3d0       _silk_NLSF_VQ              0046d3d0 f   opus:NLSF_VQ.obj
 0001:0006c4c0       _silk_NLSF_del_dec_quant   0046d4c0 f   opus:NLSF_del_dec_quant.obj
 0001:0006caba       _IsProcessorFeaturePresent@4 0046daba f   kernel32:KERNEL32.dll
 0001:0006cac0       __ftol2_sse                0046dac0 f   libcmt:ftol2.obj
 0001:0006cac9       __ftol2_pentium4           0046dac9 f   libcmt:ftol2.obj
 0001:0006cadc       __ftol2_sse_excpt          0046dadc f   libcmt:ftol2.obj
 0001:0006cb00       __ftol2                    0046db00 f   libcmt:ftol2.obj
 0001:0006cb80       __allshr                   0046db80 f   libcmt:llshr.obj
 0001:0006cba1       _memcpy                    0046dba1 f   vcruntime:VCRUNTIME140.dll
 0001:0006cba7       _memset                    0046dba7 f   vcruntime:VCRUNTIME140.dll
 0001:0006cbad       _memmove                   0046dbad f   vcruntime:VCRUNTIME140.dll
 0001:0006cbb3       _strchr                    0046dbb3 f   vcruntime:VCRUNTIME140.dll
 0001:0006cbb9       _longjmp                   0046dbb9 f   vcruntime:VCRUNTIME140.dll
 0001:0006cbbf       __except_handler4_common   0046dbbf f   vcruntime:VCRUNTIME140.dll
 0001:0006cbc5       _exit                      0046dbc5 f   ucrt:api-ms-win-crt-runtime-l1-1-0.dll
 0001:0006cbcb       __libm_sse2_cos_precise    0046dbcb f   ucrt:api-ms-win-crt-math-l1-1-0.dll
 0001:0006cbd1       __CIfmod                   0046dbd1 f   ucrt:api-ms-win-crt-math-l1-1-0.dll
 0001:0006cbd7       __libm_sse2_log10_precise  0046dbd7 f   ucrt:api-ms-win-crt-math-l1-1-0.dll
 0001:0006cbdd       __libm_sse2_pow_precise    0046dbdd f   ucrt:api-ms-win-crt-math-l1-1-0.dll
 0001:0006cbe3       __libm_sse2_sqrt_precise   0046dbe3 f   ucrt:api-ms-win-crt-math-l1-1-0.dll
 0001:0006cbe9       _floor                     0046dbe9 f   ucrt:api-ms-win-crt-math-l1-1-0.dll
 0001:0006cbef       __libm_sse2_exp_precise    0046dbef f   ucrt:api-ms-win-crt-math-l1-1-0.dll
 0001:0006cbf5       __libm_sse2_log_precise    0046dbf5 f   ucrt:api-ms-win-crt-math-l1-1-0.dll
 0001:0006cbfb       __libm_sse2_acos_precise   0046dbfb f   ucrt:api-ms-win-crt-math-l1-1-0.dll
 0001:0006cc01       __seh_filter_exe           0046dc01 f   ucrt:api-ms-win-crt-runtime-l1-1-0.dll
 0001:0006cc07       __set_app_type             0046dc07 f   ucrt:api-ms-win-crt-runtime-l1-1-0.dll
 0001:0006cc0d       ___setusermatherr          0046dc0d f   ucrt:api-ms-win-crt-math-l1-1-0.dll
 0001:0006cc13       __configure_narrow_argv    0046dc13 f   ucrt:api-ms-win-crt-runtime-l1-1-0.dll
 0001:0006cc19       __initialize_narrow_environment 0046dc19 f   ucrt:api-ms-win-crt-runtime-l1-1-0.dll
 0001:0006cc1f       __get_initial_narrow_environment 0046dc1f f   ucrt:api-ms-win-crt-runtime-l1-1-0.dll
 0001:0006cc25       __initterm                 0046dc25 f   ucrt:api-ms-win-crt-runtime-l1-1-0.dll
 0001:0006cc2b       __initterm_e               0046dc2b f   ucrt:api-ms-win-crt-runtime-l1-1-0.dll
 0001:0006cc31       __exit                     0046dc31 f   ucrt:api-ms-win-crt-runtime-l1-1-0.dll
 0001:0006cc37       __set_fmode                0046dc37 f   ucrt:api-ms-win-crt-stdio-l1-1-0.dll
 0001:0006cc3d       ___p___argc                0046dc3d f   ucrt:api-ms-win-crt-runtime-l1-1-0.dll
 0001:0006cc43       ___p___argv                0046dc43 f   ucrt:api-ms-win-crt-runtime-l1-1-0.dll
 0001:0006cc49       __cexit                    0046dc49 f   ucrt:api-ms-win-crt-runtime-l1-1-0.dll
 0001:0006cc4f       __c_exit                   0046dc4f f   ucrt:api-ms-win-crt-runtime-l1-1-0.dll
 0001:0006cc55       __register_thread_local_exe_atexit_callback 0046dc55 f   ucrt:api-ms-win-crt-runtime-l1-1-0.dll
 0001:0006cc5b       __configthreadlocale       0046dc5b f   ucrt:api-ms-win-crt-locale-l1-1-0.dll
 0001:0006cc61       __set_new_mode             0046dc61 f   ucrt:api-ms-win-crt-heap-l1-1-0.dll
 0001:0006cc67       ___p__commode              0046dc67 f   ucrt:api-ms-win-crt-stdio-l1-1-0.dll
 0001:0006cc6d       __except1                  0046dc6d f   ucrt:api-ms-win-crt-math-l1-1-0.dll
 0001:0006cc73       __initialize_onexit_table  0046dc73 f   ucrt:api-ms-win-crt-runtime-l1-1-0.dll
 0001:0006cc79       __register_onexit_function 0046dc79 f   ucrt:api-ms-win-crt-runtime-l1-1-0.dll
 0001:0006cc7f       __crt_atexit               0046dc7f f   ucrt:api-ms-win-crt-runtime-l1-1-0.dll
 0001:0006cc85       __controlfp_s              0046dc85 f   ucrt:api-ms-win-crt-runtime-l1-1-0.dll
 0001:0006cc8b       _terminate                 0046dc8b f   ucrt:api-ms-win-crt-runtime-l1-1-0.dll
 0001:0006cc91       __CIpow                    0046dc91 f   ucrt:api-ms-win-crt-math-l1-1-0.dll
 0002:00000000       __imp__QueryPerformanceFrequency@4 0046e000     kernel32:KERNEL32.dll
 0002:00000004       __imp__GetModuleHandleW@4  0046e004     kernel32:KERNEL32.dll
 0002:00000008       __imp__IsDebuggerPresent@0 0046e008     kernel32:KERNEL32.dll
 0002:0000000c       __imp__InitializeSListHead@4 0046e00c     kernel32:KERNEL32.dll
 0002:00000010       __imp__GetSystemTimeAsFileTime@4 0046e010     kernel32:KERNEL32.dll
 0002:00000014       __imp__IsProcessorFeaturePresent@4 0046e014     kernel32:KERNEL32.dll
 0002:00000018       __imp__TerminateProcess@8  0046e018     kernel32:KERNEL32.dll
 0002:0000001c       __imp__GetCurrentProcess@0 0046e01c     kernel32:KERNEL32.dll
 0002:00000020       __imp__SetUnhandledExceptionFilter@4 0046e020     kernel32:KERNEL32.dll
 0002:00000024       __imp__UnhandledExceptionFilter@4 0046e024     kernel32:KERNEL32.dll
 0002:00000028       __imp__WriteFile@20        0046e028     kernel32:KERNEL32.dll
 0002:0000002c       __imp__SetFilePointer@16   0046e02c     kernel32:KERNEL32.dll
 0002:00000030       __imp__ReadFile@20         0046e030     kernel32:KERNEL32.dll
 0002:00000034       __imp__CreateFileA@28      0046e034     kernel32:KERNEL32.dll
 0002:00000038       __imp__QueryPerformanceCounter@4 0046e038     kernel32:KERNEL32.dll
 0002:0000003c       __imp__SystemTimeToFileTime@8 0046e03c     kernel32:KERNEL32.dll
 0002:00000040       __imp__FileTimeToSystemTime@8 0046e040     kernel32:KERNEL32.dll
 0002:00000044       __imp__GetLocalTime@4      0046e044     kernel32:KERNEL32.dll
 0002:00000048       __imp__FormatMessageA@28   0046e048     kernel32:KERNEL32.dll
 0002:0000004c       __imp__SetConsoleTextAttribute@8 0046e04c     kernel32:KERNEL32.dll
 0002:00000050       __imp__TlsFree@4           0046e050     kernel32:KERNEL32.dll
 0002:00000054       __imp__TlsSetValue@8       0046e054     kernel32:KERNEL32.dll
 0002:00000058       __imp__TlsGetValue@4       0046e058     kernel32:KERNEL32.dll
 0002:0000005c       __imp__TlsAlloc@0          0046e05c     kernel32:KERNEL32.dll
 0002:00000060       __imp__GetCurrentThreadId@0 0046e060     kernel32:KERNEL32.dll
 0002:00000064       __imp__CreateThread@24     0046e064     kernel32:KERNEL32.dll
 0002:00000068       __imp__GetCurrentProcessId@0 0046e068     kernel32:KERNEL32.dll
 0002:0000006c       __imp__Sleep@4             0046e06c     kernel32:KERNEL32.dll
 0002:00000070       __imp__WaitForSingleObject@8 0046e070     kernel32:KERNEL32.dll
 0002:00000074       __imp__ReleaseSemaphore@12 0046e074     kernel32:KERNEL32.dll
 0002:00000078       __imp__DeleteCriticalSection@4 0046e078     kernel32:KERNEL32.dll
 0002:0000007c       __imp__TryEnterCriticalSection@4 0046e07c     kernel32:KERNEL32.dll
 0002:00000080       __imp__LeaveCriticalSection@4 0046e080     kernel32:KERNEL32.dll
 0002:00000084       __imp__EnterCriticalSection@4 0046e084     kernel32:KERNEL32.dll
 0002:00000088       __imp__InitializeCriticalSection@4 0046e088     kernel32:KERNEL32.dll
 0002:0000008c       __imp__GetLastError@0      0046e08c     kernel32:KERNEL32.dll
 0002:00000090       __imp__GetStdHandle@4      0046e090     kernel32:KERNEL32.dll
 0002:00000094       __imp__SetThreadPriority@8 0046e094     kernel32:KERNEL32.dll
 0002:00000098       __imp__GetCurrentThread@0  0046e098     kernel32:KERNEL32.dll
 0002:0000009c       __imp__WaitForMultipleObjects@16 0046e09c     kernel32:KERNEL32.dll
 0002:000000a0       __imp__CreateEventA@16     0046e0a0     kernel32:KERNEL32.dll
 0002:000000a4       __imp__SetEvent@4          0046e0a4     kernel32:KERNEL32.dll
 0002:000000a8       __imp__CloseHandle@4       0046e0a8     kernel32:KERNEL32.dll
 0002:000000ac       \177KERNEL32_NULL_THUNK_DATA 0046e0ac     kernel32:KERNEL32.dll
 0002:000000b0       __imp__longjmp             0046e0b0     vcruntime:VCRUNTIME140.dll
 0002:000000b4       __imp__memcpy              0046e0b4     vcruntime:VCRUNTIME140.dll
 0002:000000b8       __imp__memset              0046e0b8     vcruntime:VCRUNTIME140.dll
 0002:000000bc       __imp__memmove             0046e0bc     vcruntime:VCRUNTIME140.dll
 0002:000000c0       __imp__strchr              0046e0c0     vcruntime:VCRUNTIME140.dll
 0002:000000c4       __imp___except_handler4_common 0046e0c4     vcruntime:VCRUNTIME140.dll
 0002:000000c8       \177VCRUNTIME140_NULL_THUNK_DATA 0046e0c8     vcruntime:VCRUNTIME140.dll
 0002:000000cc       __imp__waveOutReset@4      0046e0cc     winmm:WINMM.dll
 0002:000000d0       __imp__waveOutRestart@4    0046e0d0     winmm:WINMM.dll
 0002:000000d4       __imp__waveOutPause@4      0046e0d4     winmm:WINMM.dll
 0002:000000d8       __imp__waveOutWrite@12     0046e0d8     winmm:WINMM.dll
 0002:000000dc       __imp__waveOutUnprepareHeader@12 0046e0dc     winmm:WINMM.dll
 0002:000000e0       __imp__waveOutPrepareHeader@12 0046e0e0     winmm:WINMM.dll
 0002:000000e4       __imp__waveInGetDevCapsA@12 0046e0e4     winmm:WINMM.dll
 0002:000000e8       __imp__waveOutOpen@24      0046e0e8     winmm:WINMM.dll
 0002:000000ec       __imp__waveOutSetVolume@8  0046e0ec     winmm:WINMM.dll
 0002:000000f0       __imp__waveOutGetVolume@8  0046e0f0     winmm:WINMM.dll
 0002:000000f4       __imp__waveOutGetDevCapsA@12 0046e0f4     winmm:WINMM.dll
 0002:000000f8       __imp__waveOutGetNumDevs@0 0046e0f8     winmm:WINMM.dll
 0002:000000fc       __imp__waveInGetErrorTextA@12 0046e0fc     winmm:WINMM.dll
 0002:00000100       __imp__waveOutGetErrorTextA@12 0046e100     winmm:WINMM.dll
 0002:00000104       __imp__waveInGetNumDevs@0  0046e104     winmm:WINMM.dll
 0002:00000108       __imp__waveInOpen@24       0046e108     winmm:WINMM.dll
 0002:0000010c       __imp__waveInClose@4       0046e10c     winmm:WINMM.dll
 0002:00000110       __imp__waveInPrepareHeader@12 0046e110     winmm:WINMM.dll
 0002:00000114       __imp__waveInReset@4       0046e114     winmm:WINMM.dll
 0002:00000118       __imp__waveInStop@4        0046e118     winmm:WINMM.dll
 0002:0000011c       __imp__waveInStart@4       0046e11c     winmm:WINMM.dll
 0002:00000120       __imp__waveInAddBuffer@12  0046e120     winmm:WINMM.dll
 0002:00000124       __imp__waveOutClose@4      0046e124     winmm:WINMM.dll
 0002:00000128       __imp__waveInUnprepareHeader@12 0046e128     winmm:WINMM.dll
 0002:0000012c       \177WINMM_NULL_THUNK_DATA  0046e12c     winmm:WINMM.dll
 0002:00000130       __imp__sendto@24           0046e130     ws2_32:WS2_32.dll
 0002:00000134       __imp__send@16             0046e134     ws2_32:WS2_32.dll
 0002:00000138       __imp__recvfrom@24         0046e138     ws2_32:WS2_32.dll
 0002:0000013c       __imp__recv@16             0046e13c     ws2_32:WS2_32.dll
 0002:00000140       __imp__ntohs@4             0046e140     ws2_32:WS2_32.dll
 0002:00000144       __imp__ntohl@4             0046e144     ws2_32:WS2_32.dll
 0002:00000148       __imp__inet_addr@4         0046e148     ws2_32:WS2_32.dll
 0002:0000014c       __imp__htons@4             0046e14c     ws2_32:WS2_32.dll
 0002:00000150       __imp__htonl@4             0046e150     ws2_32:WS2_32.dll
 0002:00000154       __imp__getsockopt@20       0046e154     ws2_32:WS2_32.dll
 0002:00000158       __imp__getsockname@12      0046e158     ws2_32:WS2_32.dll
 0002:0000015c       __imp__accept@12           0046e15c     ws2_32:WS2_32.dll
 0002:00000160       __imp__WSAGetLastError@0   0046e160     ws2_32:WS2_32.dll
 0002:00000164       __imp__WSACleanup@0        0046e164     ws2_32:WS2_32.dll
 0002:00000168       __imp__WSAStartup@8        0046e168     ws2_32:WS2_32.dll
 0002:0000016c       __imp__WSAStringToAddressA@20 0046e16c     ws2_32:WS2_32.dll
 0002:00000170       __imp__gethostbyname@4     0046e170     ws2_32:WS2_32.dll
 0002:00000174       __imp____WSAFDIsSet@8      0046e174     ws2_32:WS2_32.dll
 0002:00000178       __imp__select@20           0046e178     ws2_32:WS2_32.dll
 0002:0000017c       \177WS2_32_NULL_THUNK_DATA 0046e17c     ws2_32:WS2_32.dll
 0002:00000180       __imp__atoi                0046e180     ucrt:api-ms-win-crt-convert-l1-1-0.dll
 0002:00000184       \177api-ms-win-crt-convert-l1-1-0_NULL_THUNK_DATA 0046e184     ucrt:api-ms-win-crt-convert-l1-1-0.dll
 0002:00000188       __imp___set_new_mode       0046e188     ucrt:api-ms-win-crt-heap-l1-1-0.dll
 0002:0000018c       __imp__malloc              0046e18c     ucrt:api-ms-win-crt-heap-l1-1-0.dll
 0002:00000190       __imp__free                0046e190     ucrt:api-ms-win-crt-heap-l1-1-0.dll
 0002:00000194       __imp__realloc             0046e194     ucrt:api-ms-win-crt-heap-l1-1-0.dll
 0002:00000198       __imp__calloc              0046e198     ucrt:api-ms-win-crt-heap-l1-1-0.dll
 0002:0000019c       \177api-ms-win-crt-heap-l1-1-0_NULL_THUNK_DATA 0046e19c     ucrt:api-ms-win-crt-heap-l1-1-0.dll
 0002:000001a0       __imp___configthreadlocale 0046e1a0     ucrt:api-ms-win-crt-locale-l1-1-0.dll
 0002:000001a4       \177api-ms-win-crt-locale-l1-1-0_NULL_THUNK_DATA 0046e1a4     ucrt:api-ms-win-crt-locale-l1-1-0.dll
 0002:000001a8       __imp___libm_sse2_pow_precise 0046e1a8     ucrt:api-ms-win-crt-math-l1-1-0.dll
 0002:000001ac       __imp___libm_sse2_cos_precise 0046e1ac     ucrt:api-ms-win-crt-math-l1-1-0.dll
 0002:000001b0       __imp___CIpow              0046e1b0     ucrt:api-ms-win-crt-math-l1-1-0.dll
 0002:000001b4       __imp___except1            0046e1b4     ucrt:api-ms-win-crt-math-l1-1-0.dll
 0002:000001b8       __imp___libm_sse2_acos_precise 0046e1b8     ucrt:api-ms-win-crt-math-l1-1-0.dll
 0002:000001bc       __imp___libm_sse2_log_precise 0046e1bc     ucrt:api-ms-win-crt-math-l1-1-0.dll
 0002:000001c0       __imp___libm_sse2_exp_precise 0046e1c0     ucrt:api-ms-win-crt-math-l1-1-0.dll
 0002:000001c4       __imp__floor               0046e1c4     ucrt:api-ms-win-crt-math-l1-1-0.dll
 0002:000001c8       __imp___libm_sse2_sqrt_precise 0046e1c8     ucrt:api-ms-win-crt-math-l1-1-0.dll
 0002:000001cc       __imp____setusermatherr    0046e1cc     ucrt:api-ms-win-crt-math-l1-1-0.dll
 0002:000001d0       __imp___CIfmod             0046e1d0     ucrt:api-ms-win-crt-math-l1-1-0.dll
 0002:000001d4       __imp___libm_sse2_log10_precise 0046e1d4     ucrt:api-ms-win-crt-math-l1-1-0.dll
 0002:000001d8       \177api-ms-win-crt-math-l1-1-0_NULL_THUNK_DATA 0046e1d8     ucrt:api-ms-win-crt-math-l1-1-0.dll
 0002:000001dc       __imp___initialize_onexit_table 0046e1dc     ucrt:api-ms-win-crt-runtime-l1-1-0.dll
 0002:000001e0       __imp__exit                0046e1e0     ucrt:api-ms-win-crt-runtime-l1-1-0.dll
 0002:000001e4       __imp___crt_atexit         0046e1e4     ucrt:api-ms-win-crt-runtime-l1-1-0.dll
 0002:000001e8       __imp___register_onexit_function 0046e1e8     ucrt:api-ms-win-crt-runtime-l1-1-0.dll
 0002:000001ec       __imp___controlfp_s        0046e1ec     ucrt:api-ms-win-crt-runtime-l1-1-0.dll
 0002:000001f0       __imp__terminate           0046e1f0     ucrt:api-ms-win-crt-runtime-l1-1-0.dll
 0002:000001f4       __imp___seh_filter_exe     0046e1f4     ucrt:api-ms-win-crt-runtime-l1-1-0.dll
 0002:000001f8       __imp___set_app_type       0046e1f8     ucrt:api-ms-win-crt-runtime-l1-1-0.dll
 0002:000001fc       __imp___initterm_e         0046e1fc     ucrt:api-ms-win-crt-runtime-l1-1-0.dll
 0002:00000200       __imp___configure_narrow_argv 0046e200     ucrt:api-ms-win-crt-runtime-l1-1-0.dll
 0002:00000204       __imp___initialize_narrow_environment 0046e204     ucrt:api-ms-win-crt-runtime-l1-1-0.dll
 0002:00000208       __imp___get_initial_narrow_environment 0046e208     ucrt:api-ms-win-crt-runtime-l1-1-0.dll
 0002:0000020c       __imp___initterm           0046e20c     ucrt:api-ms-win-crt-runtime-l1-1-0.dll
 0002:00000210       __imp___register_thread_local_exe_atexit_callback 0046e210     ucrt:api-ms-win-crt-runtime-l1-1-0.dll
 0002:00000214       __imp___exit               0046e214     ucrt:api-ms-win-crt-runtime-l1-1-0.dll
 0002:00000218       __imp___c_exit             0046e218     ucrt:api-ms-win-crt-runtime-l1-1-0.dll
 0002:0000021c       __imp____p___argc          0046e21c     ucrt:api-ms-win-crt-runtime-l1-1-0.dll
 0002:00000220       __imp____p___argv          0046e220     ucrt:api-ms-win-crt-runtime-l1-1-0.dll
 0002:00000224       __imp___cexit              0046e224     ucrt:api-ms-win-crt-runtime-l1-1-0.dll
 0002:00000228       \177api-ms-win-crt-runtime-l1-1-0_NULL_THUNK_DATA 0046e228     ucrt:api-ms-win-crt-runtime-l1-1-0.dll
 0002:0000022c       __imp____stdio_common_vfprintf 0046e22c     ucrt:api-ms-win-crt-stdio-l1-1-0.dll
 0002:00000230       __imp__puts                0046e230     ucrt:api-ms-win-crt-stdio-l1-1-0.dll
 0002:00000234       __imp____p__commode        0046e234     ucrt:api-ms-win-crt-stdio-l1-1-0.dll
 0002:00000238       __imp____acrt_iob_func     0046e238     ucrt:api-ms-win-crt-stdio-l1-1-0.dll
 0002:0000023c       __imp____stdio_common_vsprintf 0046e23c     ucrt:api-ms-win-crt-stdio-l1-1-0.dll
 0002:00000240       __imp___set_fmode          0046e240     ucrt:api-ms-win-crt-stdio-l1-1-0.dll
 0002:00000244       \177api-ms-win-crt-stdio-l1-1-0_NULL_THUNK_DATA 0046e244     ucrt:api-ms-win-crt-stdio-l1-1-0.dll
 0002:00000248       __imp__isdigit             0046e248     ucrt:api-ms-win-crt-string-l1-1-0.dll
 0002:0000024c       __imp___strnicmp           0046e24c     ucrt:api-ms-win-crt-string-l1-1-0.dll
 0002:00000250       __imp__isxdigit            0046e250     ucrt:api-ms-win-crt-string-l1-1-0.dll
 0002:00000254       __imp__strncmp             0046e254     ucrt:api-ms-win-crt-string-l1-1-0.dll
 0002:00000258       __imp__strncpy             0046e258     ucrt:api-ms-win-crt-string-l1-1-0.dll
 0002:0000025c       __imp___stricmp            0046e25c     ucrt:api-ms-win-crt-string-l1-1-0.dll
 0002:00000260       \177api-ms-win-crt-string-l1-1-0_NULL_THUNK_DATA 0046e260     ucrt:api-ms-win-crt-string-l1-1-0.dll
 0002:00000264       __imp__rand                0046e264     ucrt:api-ms-win-crt-utility-l1-1-0.dll
 0002:00000268       \177api-ms-win-crt-utility-l1-1-0_NULL_THUNK_DATA 0046e268     ucrt:api-ms-win-crt-utility-l1-1-0.dll
 0002:0000026c       __imp__CoCreateGuid@4      0046e26c     ole32:ole32.dll
 0002:00000270       \177ole32_NULL_THUNK_DATA  0046e270     ole32:ole32.dll
 0002:00000274       ___guard_check_icall_fptr  0046e274     MSVCRT:guard_support.obj
 0002:00000278       ___xc_a                    0046e278     MSVCRT:initializers.obj
 0002:00000280       ___xc_z                    0046e280     MSVCRT:initializers.obj
 0002:00000284       ___xi_a                    0046e284     MSVCRT:initializers.obj
 0002:00000290       ___xi_z                    0046e290     MSVCRT:initializers.obj
 0002:00000294       ___xp_a                    0046e294     MSVCRT:initializers.obj
 0002:00000298       ___xp_z                    0046e298     MSVCRT:initializers.obj
 0002:0000029c       ___xt_a                    0046e29c     MSVCRT:initializers.obj
 0002:000002a0       ___xt_z                    0046e2a0     MSVCRT:initializers.obj
 0002:000002b0       __xmm@00000000000000060000000000000001 0046e2b0     pcaputil.obj
 0002:000002c8       ??_C@_03KDMMNJLE@L16@      0046e2c8     pjmedia-codec-i386-win32-vc14-release:l16.obj
 0002:000002cc       ??_C@_03DPOHGIK@l16@       0046e2cc     pjmedia-codec-i386-win32-vc14-release:l16.obj
 0002:000002d0       ??_C@_03PDFFOBMG@GSM@      0046e2d0     pjmedia-codec-i386-win32-vc14-release:gsm.obj
 0002:000002d4       ??_C@_03POKOCMLK@gsm@      0046e2d4     pjmedia-codec-i386-win32-vc14-release:gsm.obj
 0002:000002d8       ??_C@_05JPFLDMPI@speex@    0046e2d8     pjmedia-codec-i386-win32-vc14-release:speex_codec.obj
 0002:00000340       ??_C@_0BP@EFILPKKM@Adjusting?5quality?5to?55?5for?5uwb@ 0046e340     pjmedia-codec-i386-win32-vc14-release:speex_codec.obj
 0002:00000360       ??_C@_0O@GPAECDMN@speex_codec?4c@ 0046e360     pjmedia-codec-i386-win32-vc14-release:speex_codec.obj
 0002:00000370       ??_C@_04GMGOKAFF@mode@     0046e370     pjmedia-codec-i386-win32-vc14-release:ilbc.obj
 0002:00000378       ??_C@_04NEHHLPDD@iLBC@     0046e378     pjmedia-codec-i386-win32-vc14-release:ilbc.obj
 0002:00000380       ??_C@_02PJNFELNH@30@       0046e380     pjmedia-codec-i386-win32-vc14-release:ilbc.obj
 0002:00000384       ??_C@_02PIBHCBOA@20@       0046e384     pjmedia-codec-i386-win32-vc14-release:ilbc.obj
 0002:00000388       ??_C@_06LOAMOCKH@iLBC?$CFp@ 0046e388     pjmedia-codec-i386-win32-vc14-release:ilbc.obj
 0002:00000390       ??_C@_06NIFDGHKL@ilbc?$CFp@ 0046e390     pjmedia-codec-i386-win32-vc14-release:ilbc.obj
 0002:00000398       ??_C@_0DA@IJNJIJBB@Normalized?5iLBC?5encoder?5and?5dec@ 0046e398     pjmedia-codec-i386-win32-vc14-release:ilbc.obj
 0002:000003c8       ??_C@_0BL@PLFPNNLG@iLBC?5codec?5opened?0?5mode?$DN?$CFd@ 0046e3c8     pjmedia-codec-i386-win32-vc14-release:ilbc.obj
 0002:000003e4       ??_C@_0BC@LKOHDGGA@iLBC?5codec?5closed@ 0046e3e4     pjmedia-codec-i386-win32-vc14-release:ilbc.obj
 0002:000003f8       ??_C@_04HEGNCJCM@G722@     0046e3f8     pjmedia-codec-i386-win32-vc14-release:g722.obj
 0002:00000400       ??_C@_04LFKMAGCI@g722@     0046e400     pjmedia-codec-i386-win32-vc14-release:g722.obj
 0002:00000408       ??_C@_06CAPECCAP@opus?4c@  0046e408     pjmedia-codec-i386-win32-vc14-release:opus.obj
 0002:00000410       ??_C@_0BA@PAFFCOOK@maxplaybackrate@ 0046e410     pjmedia-codec-i386-win32-vc14-release:opus.obj
 0002:00000420       ??_C@_0BF@BDOEAPGC@sprop?9maxcapturerate@ 0046e420     pjmedia-codec-i386-win32-vc14-release:opus.obj
 0002:00000438       ??_C@_06BDDNELGJ@stereo@   0046e438     pjmedia-codec-i386-win32-vc14-release:opus.obj
 0002:00000440       ??_C@_0N@LGCDEDLG@sprop?9stereo@ 0046e440     pjmedia-codec-i386-win32-vc14-release:opus.obj
 0002:00000450       ??_C@_0BC@FELJIFG@maxaveragebitrate@ 0046e450     pjmedia-codec-i386-win32-vc14-release:opus.obj
 0002:00000464       ??_C@_0N@GDJGKMFI@useinbandfec@ 0046e464     pjmedia-codec-i386-win32-vc14-release:opus.obj
 0002:00000474       ??_C@_06PNALHJ@usedtx@     0046e474     pjmedia-codec-i386-win32-vc14-release:opus.obj
 0002:0000047c       ??_C@_03KBHCHMDE@cbr@      0046e47c     pjmedia-codec-i386-win32-vc14-release:opus.obj
 0002:00000480       ??_C@_04BPKIMIGM@opus@     0046e480     pjmedia-codec-i386-win32-vc14-release:opus.obj
 0002:00000488       ??_C@_04NDJCCKBE@OPUS@     0046e488     pjmedia-codec-i386-win32-vc14-release:opus.obj
 0002:00000490       ??_C@_0L@CEJEJOAH@opus_mutex@ 0046e490     pjmedia-codec-i386-win32-vc14-release:opus.obj
 0002:0000049c       ??_C@_0CI@IIKNKPML@Unable?5to?5allocate?5memory?5for?5t@ 0046e49c     pjmedia-codec-i386-win32-vc14-release:opus.obj
 0002:000004c4       ??_C@_0BJ@MFBHBOIL@Unable?5to?5create?5encoder@ 0046e4c4     pjmedia-codec-i386-win32-vc14-release:opus.obj
 0002:000004e0       ??_C@_0IB@KENCEGG@Initialize?5Opus?5encoder?0?5sample@ 0046e4e0     pjmedia-codec-i386-win32-vc14-release:opus.obj
 0002:00000564       ??_C@_0BN@CBBKPHEO@Unable?5to?5initialize?5decoder@ 0046e564     pjmedia-codec-i386-win32-vc14-release:opus.obj
 0002:00000584       ??_C@_0CA@KBKILKMJ@Encoded?5size?5bigger?5than?5buffer@ 0046e584     pjmedia-codec-i386-win32-vc14-release:opus.obj
 0002:000005a4       ??_C@_0BD@DFIKLGCB@Parse?5failed?$CB?5?$CI?$CFd?$CJ@ 0046e5a4     pjmedia-codec-i386-win32-vc14-release:opus.obj
 0002:000005b8       ??_C@_0CM@CADPHKCL@Opus?5ptime?5change?5detected?3?5?$CFd?5@ 0046e5b8     pjmedia-codec-i386-win32-vc14-release:opus.obj
 0002:000005e4       ??_C@_0BE@EEHLFIEF@Encode?5failed?$CB?5?$CI?$CFd?$CJ@ 0046e5e4     pjmedia-codec-i386-win32-vc14-release:opus.obj
 0002:000005f8       ??_C@_0CC@HMGILCD@Encode?5failed?$CB?5?$CI?$CFd?$CJ?0?5out_size?3?5@ 0046e5f8     pjmedia-codec-i386-win32-vc14-release:opus.obj
 0002:0000061c       ??_C@_0P@FLNNLFBL@Decode?5failed?$CB@ 0046e61c     pjmedia-codec-i386-win32-vc14-release:opus.obj
 0002:0000062c       ??_C@_0BA@OJEHJFKJ@Recover?5failed?$CB@ 0046e62c     pjmedia-codec-i386-win32-vc14-release:opus.obj
 0002:0000063c       ??_C@_0N@GPENNOHO@opus?9factory@ 0046e63c     pjmedia-codec-i386-win32-vc14-release:opus.obj
 0002:0000064c       ??_C@_0CM@FLKHNIHF@Unable?5to?5create?5memory?5pool?5fo@ 0046e64c     pjmedia-codec-i386-win32-vc14-release:opus.obj
 0002:00000678       ??_C@_0CA@DHBDIKNK@Unable?5to?5get?5the?5codec?5manager@ 0046e678     pjmedia-codec-i386-win32-vc14-release:opus.obj
 0002:00000698       ??_C@_0CF@BINPEJFB@Unable?5to?5register?5the?5codec?5fa@ 0046e698     pjmedia-codec-i386-win32-vc14-release:opus.obj
 0002:000006c0       ??_C@_0CH@PDLDHFIM@Unable?5to?5unregister?5the?5codec?5@ 0046e6c0     pjmedia-codec-i386-win32-vc14-release:opus.obj
 0002:000006e8       ??_C@_02GMHACPFF@?$CFu@    0046e6e8     pjmedia-codec-i386-win32-vc14-release:opus.obj
 0002:000006ec       ??_C@_01HIHLOKLC@1@        0046e6ec     pjmedia-codec-i386-win32-vc14-release:opus.obj
 0002:000006f0       _g722_qmf_coeff            0046e6f0     pjmedia-codec-i386-win32-vc14-release:g722_enc.obj
 0002:00000d68       ??_C@_0DC@MHBBCDGM@Unspecified?5audio?5device?5error?5@ 0046ed68     pjmedia-audiodev-i386-win32-vc14-release:errno.obj
 0002:00000d9c       ??_C@_0DG@FEDKLOFB@Unknown?5error?5from?5audio?5driver@ 0046ed9c     pjmedia-audiodev-i386-win32-vc14-release:errno.obj
 0002:00000dd4       ??_C@_0DE@DOHCBKFK@Audio?5subsystem?5not?5initialized@ 0046edd4     pjmedia-audiodev-i386-win32-vc14-release:errno.obj
 0002:00000e08       ??_C@_0CL@NCBJPCNF@Invalid?5audio?5device?5?$CIPJMEDIA_E@ 0046ee08     pjmedia-audiodev-i386-win32-vc14-release:errno.obj
 0002:00000e34       ??_C@_0CM@LOPLLMHO@Found?5no?5audio?5devices?5?$CIPJMEDIA@ 0046ee34     pjmedia-audiodev-i386-win32-vc14-release:errno.obj
 0002:00000e60       ??_C@_0DM@DPDKGMIE@Unable?5to?5find?5default?5audio?5de@ 0046ee60     pjmedia-audiodev-i386-win32-vc14-release:errno.obj
 0002:00000e9c       ??_C@_0CP@JIPJOIMB@Audio?5device?5not?5ready?5?$CIPJMEDIA@ 0046ee9c     pjmedia-audiodev-i386-win32-vc14-release:errno.obj
 0002:00000ecc       ??_C@_0DO@NMIGLFFA@Invalid?5or?5unsupported?5audio?5ca@ 0046eecc     pjmedia-audiodev-i386-win32-vc14-release:errno.obj
 0002:00000f10       ??_C@_0ED@PLJALPOA@Invalid?5or?5unsupported?5audio?5de@ 0046ef10     pjmedia-audiodev-i386-win32-vc14-release:errno.obj
 0002:00000f54       ??_C@_0DM@JKDJGBNG@Bad?5or?5invalid?5audio?5device?5for@ 0046ef54     pjmedia-audiodev-i386-win32-vc14-release:errno.obj
 0002:00000f90       ??_C@_0DN@BLAJILEA@Invalid?5audio?5device?5sample?5for@ 0046ef90     pjmedia-audiodev-i386-win32-vc14-release:errno.obj
 0002:00000fd0       ??_C@_0DE@LJJGJIEF@Bad?5audio?5latency?5setting?5?$CIPJME@ 0046efd0     pjmedia-audiodev-i386-win32-vc14-release:errno.obj
 0002:00001004       ??_C@_0BJ@GMHLEOAL@MMSYSTEM?5native?5error?5?$CFd@ 0046f004     pjmedia-audiodev-i386-win32-vc14-release:errno.obj
 0002:00001020       ??_C@_0CC@MFOJNIAN@Unknown?5pjmedia?9audiodev?5error?5@ 0046f020     pjmedia-audiodev-i386-win32-vc14-release:errno.obj
 0002:00001044       ??_C@_0M@KBHHDDLP@Wave?5mapper@ 0046f044     pjmedia-audiodev-i386-win32-vc14-release:wmme_dev.obj
 0002:00001050       ??_C@_04CPNMDOAK@WMME@     0046f050     pjmedia-audiodev-i386-win32-vc14-release:wmme_dev.obj
 0002:00001058       ??_C@_0BB@EOKKHGLD@WMME?5initialized@ 0046f058     pjmedia-audiodev-i386-win32-vc14-release:wmme_dev.obj
 0002:0000106c       ??_C@_0L@HHCCMOGO@wmme_dev?4c@ 0046f06c     pjmedia-audiodev-i386-win32-vc14-release:wmme_dev.obj
 0002:00001078       ??_C@_0BM@OMJMEAMB@WMME?5found?5no?5sound?5devices@ 0046f078     pjmedia-audiodev-i386-win32-vc14-release:wmme_dev.obj
 0002:00001094       ??_C@_11LOCGONAA@@         0046f094     pjmedia-audiodev-i386-win32-vc14-release:wmme_dev.obj
 0002:00001098       ??_C@_0BH@GEMAAOCL@WMME?5found?5?$CFd?5devices?3@ 0046f098     pjmedia-audiodev-i386-win32-vc14-release:wmme_dev.obj
 0002:000010b0       ??_C@_0CA@NLJGEGOG@?5dev_id?5?$CFd?3?5?$CFs?5?5?$CIin?$DN?$CFd?0?5out?$DN?$CFd?$CJ@ 0046f0b0     pjmedia-audiodev-i386-win32-vc14-release:wmme_dev.obj
 0002:000010d0       ??_C@_03CCLNCNJA@PCM@      0046f0d0     pjmedia-audiodev-i386-win32-vc14-release:wmme_dev.obj
 0002:000010d8       ??_C@_0HB@MKIBCFPJ@?5WaveAPI?5Sound?5player?5?$CC?$CFs?$CC?5init@ 0046f0d8     pjmedia-audiodev-i386-win32-vc14-release:wmme_dev.obj
 0002:00001150       ??_C@_0HD@PIICIPL@?5WaveAPI?5Sound?5recorder?5?$CC?$CFs?$CC?5in@ 0046f150     pjmedia-audiodev-i386-win32-vc14-release:wmme_dev.obj
 0002:000011c4       ??_C@_0CJ@BMOAEONK@Failed?5to?5write?5audio?5frame?5for@ 0046f1c4     pjmedia-audiodev-i386-win32-vc14-release:wmme_dev.obj
 0002:000011f0       ??_C@_0BP@EAOBDJJO@Failed?5to?5add?5recording?5buffer@ 0046f1f0     pjmedia-audiodev-i386-win32-vc14-release:wmme_dev.obj
 0002:00001210       ??_C@_0BI@BEJPJEBJ@WMME?3?5thread?5stopping?4?4@ 0046f210     pjmedia-audiodev-i386-win32-vc14-release:wmme_dev.obj
 0002:00001228       ??_C@_0CB@JKFANBEJ@WMME?5thread?5stopped?5due?5to?5erro@ 0046f228     pjmedia-audiodev-i386-win32-vc14-release:wmme_dev.obj
 0002:0000124c       ??_C@_08MOOOBPLB@wmme?9dev@ 0046f24c     pjmedia-audiodev-i386-win32-vc14-release:wmme_dev.obj
 0002:00001258       ??_C@_04ODOGNMHC@wmme@     0046f258     pjmedia-audiodev-i386-win32-vc14-release:wmme_dev.obj
 0002:00001260       ??_C@_0BN@MNACKNIN@WMME?5playback?5stream?5started@ 0046f260     pjmedia-audiodev-i386-win32-vc14-release:wmme_dev.obj
 0002:00001280       ??_C@_0BM@NKDLICNM@WMME?5capture?5stream?5started@ 0046f280     pjmedia-audiodev-i386-win32-vc14-release:wmme_dev.obj
 0002:0000129c       ??_C@_0BN@FMJNHCPG@Stopped?5WMME?5playback?5stream@ 0046f29c     pjmedia-audiodev-i386-win32-vc14-release:wmme_dev.obj
 0002:000012bc       ??_C@_0BM@KCHDOGNE@Stopped?5WMME?5capture?5stream@ 0046f2bc     pjmedia-audiodev-i386-win32-vc14-release:wmme_dev.obj
 0002:000012d8       ??_C@_09OFDCJLJM@WMME?5base@ 0046f2d8     pjmedia-audiodev-i386-win32-vc14-release:wmme_dev.obj
 0002:000012e4       ??_C@_07GBKCPIDJ@ext?9fmt@ 0046f2e4     pjmedia-i386-win32-vc14-release:audiodev.obj
 0002:000012ec       ??_C@_0BI@GGHCECPI@Extended?1non?9PCM?5format@ 0046f2ec     pjmedia-i386-win32-vc14-release:audiodev.obj
 0002:00001304       ??_C@_0L@IKNMBADD@latency?9in@ 0046f304     pjmedia-i386-win32-vc14-release:audiodev.obj
 0002:00001310       ??_C@_0CC@LIGOHOJN@Input?5latency?1buffer?5size?5setti@ 0046f310     pjmedia-i386-win32-vc14-release:audiodev.obj
 0002:00001334       ??_C@_0M@MBBBBCLJ@latency?9out@ 0046f334     pjmedia-i386-win32-vc14-release:audiodev.obj
 0002:00001340       ??_C@_0CD@GAINMBC@Output?5latency?1buffer?5size?5sett@ 0046f340     pjmedia-i386-win32-vc14-release:audiodev.obj
 0002:00001364       ??_C@_06KGGLCDDG@vol?9in@  0046f364     pjmedia-i386-win32-vc14-release:audiodev.obj
 0002:0000136c       ??_C@_0BF@CCEKOJAN@Input?5volume?5setting@ 0046f36c     pjmedia-i386-win32-vc14-release:audiodev.obj
 0002:00001384       ??_C@_07LBFHFBAF@vol?9out@ 0046f384     pjmedia-i386-win32-vc14-release:audiodev.obj
 0002:0000138c       ??_C@_0BG@IBEHJHAD@Output?5volume?5setting@ 0046f38c     pjmedia-i386-win32-vc14-release:audiodev.obj
 0002:000013a4       ??_C@_08BPNDLGG@meter?9in@ 0046f3a4     pjmedia-i386-win32-vc14-release:audiodev.obj
 0002:000013b0       ??_C@_0M@NCGIGNPG@Input?5meter@ 0046f3b0     pjmedia-i386-win32-vc14-release:audiodev.obj
 0002:000013bc       ??_C@_09NKJLJGOJ@meter?9out@ 0046f3bc     pjmedia-i386-win32-vc14-release:audiodev.obj
 0002:000013c8       ??_C@_0N@GBEOEOEP@Output?5meter@ 0046f3c8     pjmedia-i386-win32-vc14-release:audiodev.obj
 0002:000013d8       ??_C@_08FPHJDLBG@route?9in@ 0046f3d8     pjmedia-i386-win32-vc14-release:audiodev.obj
 0002:000013e4       ??_C@_0O@JDPFDDM@Input?5routing@ 0046f3e4     pjmedia-i386-win32-vc14-release:audiodev.obj
 0002:000013f4       ??_C@_09IKMAGDNF@route?9out@ 0046f3f4     pjmedia-i386-win32-vc14-release:audiodev.obj
 0002:00001400       ??_C@_0P@JOFPIEJJ@Output?5routing@ 0046f400     pjmedia-i386-win32-vc14-release:audiodev.obj
 0002:00001410       ??_C@_03FNONIBCK@aec@      0046f410     pjmedia-i386-win32-vc14-release:audiodev.obj
 0002:00001414       ??_C@_0BM@HPDLGLFJ@Accoustic?5echo?5cancellation@ 0046f414     pjmedia-i386-win32-vc14-release:audiodev.obj
 0002:00001430       ??_C@_08MKAPJCJE@aec?9tail@ 0046f430     pjmedia-i386-win32-vc14-release:audiodev.obj
 0002:0000143c       ??_C@_0BM@PBLLADJD@Tail?5length?5setting?5for?5AEC@ 0046f43c     pjmedia-i386-win32-vc14-release:audiodev.obj
 0002:00001458       ??_C@_03NIGLNABH@vad@      0046f458     pjmedia-i386-win32-vc14-release:audiodev.obj
 0002:0000145c       ??_C@_0BJ@PEELNNPF@Voice?5activity?5detection@ 0046f45c     pjmedia-i386-win32-vc14-release:audiodev.obj
 0002:00001478       ??_C@_03JPNNGDEE@cng@      0046f478     pjmedia-i386-win32-vc14-release:audiodev.obj
 0002:0000147c       ??_C@_0BJ@MNDOFJGN@Comfort?5noise?5generation@ 0046f47c     pjmedia-i386-win32-vc14-release:audiodev.obj
 0002:00001498       ??_C@_03NOPFEPFL@plg@      0046f498     pjmedia-i386-win32-vc14-release:audiodev.obj
 0002:0000149c       ??_C@_0BI@OMEMKBHH@Packet?5loss?5concealment@ 0046f49c     pjmedia-i386-win32-vc14-release:audiodev.obj
 0002:000014b8       ??_C@_0EF@NLCNMHAD@?$CFd?5device?$CIs?$CJ?5cannot?5be?5register@ 0046f4b8     pjmedia-i386-win32-vc14-release:audiodev.obj
 0002:00001500       ??_C@_0L@FGHHAHLM@audiodev?4c@ 0046f500     pjmedia-i386-win32-vc14-release:audiodev.obj
 0002:0000150c       ??_C@_09GLMNEMC@codec?9mgr@ 0046f50c     pjmedia-i386-win32-vc14-release:codec.obj
 0002:00001518       ??_C@_0L@MMBOMEDE@?$CF?4?$CKs?1?$CFu?1?$CFu@ 0046f518     pjmedia-i386-win32-vc14-release:codec.obj
 0002:00001554       ??_C@_07OEHJJJKF@RTP?1AVP@ 0046f554     pjmedia-i386-win32-vc14-release:endpoint.obj
 0002:0000155c       ??_C@_02BBAPPCCJ@IN@       0046f55c     pjmedia-i386-win32-vc14-release:endpoint.obj
 0002:00001560       ??_C@_03OPDBOKBD@IP4@      0046f560     pjmedia-i386-win32-vc14-release:endpoint.obj
 0002:00001564       ??_C@_03NNAHIIJB@IP6@      0046f564     pjmedia-i386-win32-vc14-release:endpoint.obj
 0002:00001568       ??_C@_07HDFHIMAJ@pjmedia@  0046f568     pjmedia-i386-win32-vc14-release:endpoint.obj
 0002:00001570       ??_C@_08LMCBNPPN@sendrecv@ 0046f570     pjmedia-i386-win32-vc14-release:endpoint.obj
 0002:0000157c       ??_C@_07LBNDIDNE@med?9ept@ 0046f57c     pjmedia-i386-win32-vc14-release:endpoint.obj
 0002:00001588       ??_C@_0EL@BIFHLACC@Warning?3?5no?5worker?5thread?5is?5cr@ 0046f588     pjmedia-i386-win32-vc14-release:endpoint.obj
 0002:000015d4       ??_C@_0L@DLFDMOGF@endpoint?4c@ 0046f5d4     pjmedia-i386-win32-vc14-release:endpoint.obj
 0002:000015e0       ??_C@_05CECBHAPI@media@    0046f5e0     pjmedia-i386-win32-vc14-release:endpoint.obj
 0002:000015e6       ??_C@_00CNPNBAHC@@         0046f5e6     pjmedia-i386-win32-vc14-release:endpoint.obj
 0002:000015e8       ??_C@_01CLKCMJKC@?5@       0046f5e8     pjmedia-i386-win32-vc14-release:endpoint.obj
 0002:000015ec       ??_C@_0DL@OIPEDDCB@pjmedia_rtp_session_init?3?5ses?$DN?$CF@ 0046f5ec     pjmedia-i386-win32-vc14-release:rtp.obj
 0002:00001628       ??_C@_05BDLJEHIL@rtp?4c@   0046f628     pjmedia-i386-win32-vc14-release:rtp.obj
 0002:00001630       ??_C@_0DF@MINIEIGK@TX?5RTP?5packet?5dropped?5because?5o@ 0046f630     pjmedia-i386-win32-vc14-release:transport_loop.obj
 0002:00001668       ??_C@_0DF@BFHKOPKN@RX?5RTP?5packet?5dropped?5because?5o@ 0046f668     pjmedia-i386-win32-vc14-release:transport_loop.obj
 0002:000016a0       ??_C@_06CCKFFBIK@tploop@   0046f6a0     pjmedia-i386-win32-vc14-release:transport_loop.obj
 0002:000016a8       ??_C@_09PFCHIMEP@127?40?40?41@ 0046f6a8     pjmedia-i386-win32-vc14-release:transport_loop.obj
 0002:000016b4       ??_C@_03KOIMFPNC@?3?31@    0046f6b4     pjmedia-i386-win32-vc14-release:transport_loop.obj
 0002:000016d0       ??_C@_08MPIAKENM@RTP?1SAVP@ 0046f6d0     pjmedia-i386-win32-vc14-release:transport_srtp.obj
 0002:000016dc       ??_C@_06LAEHEPPF@crypto@   0046f6dc     pjmedia-i386-win32-vc14-release:transport_srtp.obj
 0002:000016e4       ??_C@_04HIBGFPH@NULL@      0046f6e4     pjmedia-i386-win32-vc14-release:transport_srtp.obj
 0002:000016ec       ??_C@_0BI@FCCBBIDC@AES_256_CM_HMAC_SHA1_80@ 0046f6ec     pjmedia-i386-win32-vc14-release:transport_srtp.obj
 0002:00001704       ??_C@_0BI@GMECJFFB@AES_256_CM_HMAC_SHA1_32@ 0046f704     pjmedia-i386-win32-vc14-release:transport_srtp.obj
 0002:0000171c       ??_C@_0BI@OADHPNHF@AES_CM_128_HMAC_SHA1_80@ 0046f71c     pjmedia-i386-win32-vc14-release:transport_srtp.obj
 0002:00001734       ??_C@_0BI@NOFEHABG@AES_CM_128_HMAC_SHA1_32@ 0046f734     pjmedia-i386-win32-vc14-release:transport_srtp.obj
 0002:0000174c       ??_C@_02MFDMBIJM@ok@       0046f74c     pjmedia-i386-win32-vc14-release:transport_srtp.obj
 0002:00001750       ??_C@_0BE@KFOIPNMM@unspecified?5failure@ 0046f750     pjmedia-i386-win32-vc14-release:transport_srtp.obj
 0002:00001764       ??_C@_0BG@LENPEKHL@unsupported?5parameter@ 0046f764     pjmedia-i386-win32-vc14-release:transport_srtp.obj
 0002:0000177c       ??_C@_0BJ@DGLNBGGB@couldn?8t?5allocate?5memory@ 0046f77c     pjmedia-i386-win32-vc14-release:transport_srtp.obj
 0002:00001798       ??_C@_0BN@LJIJFBAJ@couldn?8t?5deallocate?5properly@ 0046f798     pjmedia-i386-win32-vc14-release:transport_srtp.obj
 0002:000017b8       ??_C@_0BE@KBPICNEA@couldn?8t?5initialize@ 0046f7b8     pjmedia-i386-win32-vc14-release:transport_srtp.obj
 0002:000017cc       ??_C@_0CI@FEPPFOBO@can?8t?5process?5as?5much?5data?5as?5r@ 0046f7cc     pjmedia-i386-win32-vc14-release:transport_srtp.obj
 0002:000017f4       ??_C@_0BH@DJJHFLDI@authentication?5failure@ 0046f7f4     pjmedia-i386-win32-vc14-release:transport_srtp.obj
 0002:0000180c       ??_C@_0P@MHOCHBCE@cipher?5failure@ 0046f80c     pjmedia-i386-win32-vc14-release:transport_srtp.obj
 0002:0000181c       ??_C@_0CA@LIFPFHJ@replay?5check?5failed?5?$CIbad?5index?$CJ@ 0046f81c     pjmedia-i386-win32-vc14-release:transport_srtp.obj
 0002:0000183c       ??_C@_0CE@GCMJOMFK@replay?5check?5failed?5?$CIindex?5too?5@ 0046f83c     pjmedia-i386-win32-vc14-release:transport_srtp.obj
 0002:00001860       ??_C@_0BO@KLFALCF@algorithm?5failed?5test?5routine@ 0046f860     pjmedia-i386-win32-vc14-release:transport_srtp.obj
 0002:00001880       ??_C@_0BG@JKFIFBMN@unsupported?5operation@ 0046f880     pjmedia-i386-win32-vc14-release:transport_srtp.obj
 0002:00001898       ??_C@_0BN@PDJKDLOF@no?5appropriate?5context?5found@ 0046f898     pjmedia-i386-win32-vc14-release:transport_srtp.obj
 0002:000018b8       ??_C@_0CF@DOHHPHGD@unable?5to?5perform?5desired?5valid@ 0046f8b8     pjmedia-i386-win32-vc14-release:transport_srtp.obj
 0002:000018e0       ??_C@_0BH@NKHPNDDN@can?8t?5use?5key?5any?5more@ 0046f8e0     pjmedia-i386-win32-vc14-release:transport_srtp.obj
 0002:000018f8       ??_C@_0BH@CDHGOGDE@error?5in?5use?5of?5socket@ 0046f8f8     pjmedia-i386-win32-vc14-release:transport_srtp.obj
 0002:00001910       ??_C@_0BL@DJFHEKEC@error?5in?5use?5POSIX?5signals@ 0046f910     pjmedia-i386-win32-vc14-release:transport_srtp.obj
 0002:0000192c       ??_C@_0BD@HFMCMINA@nonce?5check?5failed@ 0046f92c     pjmedia-i386-win32-vc14-release:transport_srtp.obj
 0002:00001940       ??_C@_0BD@FCFDDPHP@couldn?8t?5read?5data@ 0046f940     pjmedia-i386-win32-vc14-release:transport_srtp.obj
 0002:00001954       ??_C@_0BE@PIHIJLHG@couldn?8t?5write?5data@ 0046f954     pjmedia-i386-win32-vc14-release:transport_srtp.obj
 0002:00001968       ??_C@_0BD@PIIFGNCP@error?5pasring?5data@ 0046f968     pjmedia-i386-win32-vc14-release:transport_srtp.obj
 0002:0000197c       ??_C@_0BE@FFKLLGEP@error?5encoding?5data@ 0046f97c     pjmedia-i386-win32-vc14-release:transport_srtp.obj
 0002:00001990       ??_C@_0BN@OEPMNKMP@error?5while?5using?5semaphores@ 0046f990     pjmedia-i386-win32-vc14-release:transport_srtp.obj
 0002:000019b0       ??_C@_0BI@JNCDFEKK@error?5while?5using?5pfkey@ 0046f9b0     pjmedia-i386-win32-vc14-release:transport_srtp.obj
 0002:000019c8       ??_C@_0EB@EJGHAKCH@Warning?3?5simple?5random?5generato@ 0046f9c8     pjmedia-i386-win32-vc14-release:transport_srtp.obj
 0002:00001a0c       ??_C@_0BB@HGEADDBB@transport_srtp?4c@ 0046fa0c     pjmedia-i386-win32-vc14-release:transport_srtp.obj
 0002:00001a20       ??_C@_0CE@BAIPFCEP@Failed?5encoding?5plain?5key?5to?5ba@ 0046fa20     pjmedia-i386-win32-vc14-release:transport_srtp.obj
 0002:00001a44       ??_C@_0BA@OGAKIHAO@?$CFd?5?$CFs?5inline?3?$CFs@ 0046fa44     pjmedia-i386-win32-vc14-release:transport_srtp.obj
 0002:00001a54       ??_C@_0BP@IBJNGPHO@Attribute?5crypto?5expecting?5tag@ 0046fa54     pjmedia-i386-win32-vc14-release:transport_srtp.obj
 0002:00001a74       ??_C@_0CI@IIDGBGP@Attribute?5crypto?5expecting?5cryp@ 0046fa74     pjmedia-i386-win32-vc14-release:transport_srtp.obj
 0002:00001a9c       ??_C@_02LMMGGCAJ@?3?5@     0046fa9c     pjmedia-i386-win32-vc14-release:transport_srtp.obj
 0002:00001aa0       ??_C@_0CG@JCJFEHFF@Attribute?5crypto?5expecting?5key?5@ 0046faa0     pjmedia-i386-win32-vc14-release:transport_srtp.obj
 0002:00001ac8       ??_C@_06OGMBMJA@inline@    0046fac8     pjmedia-i386-win32-vc14-release:transport_srtp.obj
 0002:00001ad0       ??_C@_0DC@FIGAPMKM@Attribute?5crypto?5key?5method?5?8?$CF?4@ 0046fad0     pjmedia-i386-win32-vc14-release:transport_srtp.obj
 0002:00001b04       ??_C@_02MINBJDHL@?$HM?5@   0046fb04     pjmedia-i386-win32-vc14-release:transport_srtp.obj
 0002:00001b08       ??_C@_0BP@FKKPLPLE@Attribute?5crypto?5expecting?5key@ 0046fb08     pjmedia-i386-win32-vc14-release:transport_srtp.obj
 0002:00001b28       ??_C@_0N@FJKIJMGM@Key?5too?5long@ 0046fb28     pjmedia-i386-win32-vc14-release:transport_srtp.obj
 0002:00001b38       ??_C@_0CH@PPONEAL@Failed?5decoding?5crypto?5key?5from@ 0046fb38     pjmedia-i386-win32-vc14-release:transport_srtp.obj
 0002:00001b60       ??_C@_0BA@CMIKGIPP@SRTP?5not?5active@ 0046fb60     pjmedia-i386-win32-vc14-release:transport_srtp.obj
 0002:00001b70       ??_C@_04LFNPDDCP@SDES@     0046fb70     pjmedia-i386-win32-vc14-release:transport_srtp.obj
 0002:00001b78       ??_C@_09LMBOLLED@DTLS?9SRTP@ 0046fb78     pjmedia-i386-win32-vc14-release:transport_srtp.obj
 0002:00001b84       ??_C@_0CD@NFEKFFAL@SRTP?5started?0?5keying?$DN?$CFs?0?5crypto@ 0046fb84     pjmedia-i386-win32-vc14-release:transport_srtp.obj
 0002:00001ba8       ??_C@_0BP@CAGNCNCA@Failed?5to?5restart?5SRTP?0?5err?$DN?$CFs@ 0046fba8     pjmedia-i386-win32-vc14-release:transport_srtp.obj
 0002:00001bc8       ??_C@_0CO@EDHKLEPP@Failed?5to?5unprotect?5SRTP?0?5pkt?5s@ 0046fbc8     pjmedia-i386-win32-vc14-release:transport_srtp.obj
 0002:00001bf8       ??_C@_0CP@OAIPELPD@Failed?5to?5unprotect?5SRTCP?0?5pkt?5@ 0046fbf8     pjmedia-i386-win32-vc14-release:transport_srtp.obj
 0002:00001c28       ??_C@_0BL@LHHEAKNJ@SRTP?5uses?5keying?5method?5?$CFs@ 0046fc28     pjmedia-i386-win32-vc14-release:transport_srtp.obj
 0002:00001c44       ??_C@_0CN@IMPBKLBH@SRTP?5failed?5stop?5underlying?5med@ 0046fc44     pjmedia-i386-win32-vc14-release:transport_srtp.obj
 0002:00001c74       ??_C@_0BJ@BOBCJFAN@Unknown?5libsrtp?5error?5?$CFd@ 0046fc74     pjmedia-i386-win32-vc14-release:transport_srtp.obj
 0002:00001c90       ??_C@_04HJOFNBFH@sdes@     0046fc90     pjmedia-i386-win32-vc14-release:transport_srtp.obj
 0002:00001c98       ??_C@_0BJ@FEOOEBIC@SRTP?5keying?5SDES?5created@ 0046fc98     pjmedia-i386-win32-vc14-release:transport_srtp.obj
 0002:00001cb4       ??_C@_0CB@KJOFGAC@Failed?5to?5initialize?5libsrtp?3?5?$CF@ 0046fcb4     pjmedia-i386-win32-vc14-release:transport_srtp.obj
 0002:00001cd8       ??_C@_0CD@JOBKHEBK@Failed?5to?5register?5libsrtp?5dein@ 0046fcd8     pjmedia-i386-win32-vc14-release:transport_srtp.obj
 0002:00001cfc       ??_C@_0CD@EDFIBBCB@Failed?5to?5deinitialize?5libsrtp?3@ 0046fcfc     pjmedia-i386-win32-vc14-release:transport_srtp.obj
 0002:00001d20       ??_C@_06IPCNFNJD@srtp?$CFp@ 0046fd20     pjmedia-i386-win32-vc14-release:transport_srtp.obj
 0002:00001d28       ??_C@_0BB@JENPEJDI@?9?9key?5too?5long?9?9@ 0046fd28     pjmedia-i386-win32-vc14-release:transport_srtp.obj
 0002:00001d3c       ??_C@_0O@LPFLKIMI@TX?3?5?$CFs?5key?$DN?$CFs@ 0046fd3c     pjmedia-i386-win32-vc14-release:transport_srtp.obj
 0002:00001d4c       ??_C@_05EPPOHEBK@?5auth@   0046fd4c     pjmedia-i386-win32-vc14-release:transport_srtp.obj
 0002:00001d54       ??_C@_04PIHNPOJJ@?5enc@    0046fd54     pjmedia-i386-win32-vc14-release:transport_srtp.obj
 0002:00001d5c       ??_C@_0BA@BONGIHBG@TX?3?5disable?$CFs?$CFs@ 0046fd5c     pjmedia-i386-win32-vc14-release:transport_srtp.obj
 0002:00001d6c       ??_C@_0O@EHJJODHO@RX?3?5?$CFs?5key?$DN?$CFs@ 0046fd6c     pjmedia-i386-win32-vc14-release:transport_srtp.obj
 0002:00001d7c       ??_C@_0BA@ENEHOOPC@RX?3?5disable?$CFs?$CFs@ 0046fd7c     pjmedia-i386-win32-vc14-release:transport_srtp.obj
 0002:00001d8c       ??_C@_0CG@KDAPJFOB@Failed?5to?5dealloc?5RX?5SRTP?5conte@ 0046fd8c     pjmedia-i386-win32-vc14-release:transport_srtp.obj
 0002:00001db4       ??_C@_0CG@CHCMAIDE@Failed?5to?5dealloc?5TX?5SRTP?5conte@ 0046fdb4     pjmedia-i386-win32-vc14-release:transport_srtp.obj
 0002:00001ddc       ??_C@_0DH@EDIEAILI@File?5writer?5?8?$CF?4?$CKs?8?5created?3?5sam@ 0046fddc     pjmedia-i386-win32-vc14-release:wav_writer.obj
 0002:00001e14       ??_C@_0N@MCLOBLAH@wav_writer?4c@ 0046fe14     pjmedia-i386-win32-vc14-release:wav_writer.obj
 0002:00001e24       ??_C@_04DHOBIHHI@PCMU@     0046fe24     pjmedia-i386-win32-vc14-release:g711.obj
 0002:00001e2c       ??_C@_04BJEPFACN@PCMA@     0046fe2c     pjmedia-i386-win32-vc14-release:g711.obj
 0002:00001e34       ??_C@_04JMMHOLLC@g711@     0046fe34     pjmedia-i386-win32-vc14-release:g711.obj
 0002:00001e3c       ??_C@_04CEHLIMNH@g611@     0046fe3c     pjmedia-i386-win32-vc14-release:g711.obj
 0002:00001e44       ??_C@_04CCFCAPFE@sd?$CFp@  0046fe44     pjmedia-i386-win32-vc14-release:silencedet.obj
 0002:00001e4c       ??_C@_0CJ@FEGDIEOD@Re?9adjust?5threshold?5?$CIin?5talk?5bu@ 0046fe4c     pjmedia-i386-win32-vc14-release:silencedet.obj
 0002:00001e78       ??_C@_0N@GGOMHLHN@silencedet?4c@ 0046fe78     pjmedia-i386-win32-vc14-release:silencedet.obj
 0002:00001e88       ??_C@_0CM@HFHDPICL@Starting?5talk?5burst?5?$CIlevel?$DN?$CFd?5t@ 0046fe88     pjmedia-i386-win32-vc14-release:silencedet.obj
 0002:00001eb4       ??_C@_0CG@DGOMOKAK@Re?9adjust?5threshold?5?$CIin?5silence@ 0046feb4     pjmedia-i386-win32-vc14-release:silencedet.obj
 0002:00001edc       ??_C@_0CJ@HMFIAFFP@Starting?5silence?5?$CIlevel?$DN?$CFd?5thre@ 0046fedc     pjmedia-i386-win32-vc14-release:silencedet.obj
 0002:00001f08       ??_C@_0DH@LLDEKPNG@Lost?5event?5?$CFs?5from?5publisher?5?$FL0@ 0046ff08     pjmedia-i386-win32-vc14-release:event.obj
 0002:00001f40       ??_C@_07GLALFINI@event?4c@ 0046ff40     pjmedia-i386-win32-vc14-release:event.obj
 0002:00001f48       ??_C@_01KMDKNFGN@?1@       0046ff48     pjmedia-i386-win32-vc14-release:sdp.obj
 0002:00001f4c       ??_C@_03GOLBDMPC@RTP@      0046ff4c     pjmedia-i386-win32-vc14-release:sdp.obj
 0002:00001f50       ??_C@_03CPJJBAON@AVP@      0046ff50     pjmedia-i386-win32-vc14-release:sdp.obj
 0002:00001f54       ??_C@_04LHEMINPH@SAVP@     0046ff54     pjmedia-i386-win32-vc14-release:sdp.obj
 0002:00001f5c       ??_C@_04HILHOPFG@AVPF@     0046ff5c     pjmedia-i386-win32-vc14-release:sdp.obj
 0002:00001f64       ??_C@_05IFENMDLB@SAVPF@    0046ff64     pjmedia-i386-win32-vc14-release:sdp.obj
 0002:00001f6c       ??_C@_03OPEAKHDL@UDP@      0046ff6c     pjmedia-i386-win32-vc14-release:sdp.obj
 0002:00001f70       ??_C@_0N@IFKNLCBO@TLS?1RTP?1SAVP@ 0046ff70     pjmedia-i386-win32-vc14-release:sdp.obj
 0002:00001f80       ??_C@_0O@FMKJHIFC@TLS?1RTP?1SAVPF@ 0046ff80     pjmedia-i386-win32-vc14-release:sdp.obj
 0002:000022d8       ??_C@_0CK@HBHLALIF@Unspecified?5PJMEDIA?5error?5?$CIPJME@ 004702d8     pjmedia-i386-win32-vc14-release:errno.obj
 0002:00002304       ??_C@_0CM@KFAONKNJ@Invalid?5SDP?5descriptor?5?$CIPJMEDIA@ 00470304     pjmedia-i386-win32-vc14-release:errno.obj
 0002:00002330       ??_C@_0CO@ONPCFICA@Invalid?5SDP?5version?5line?5?$CIPJMED@ 00470330     pjmedia-i386-win32-vc14-release:errno.obj
 0002:00002360       ??_C@_0DA@DIKNJOEJ@Invalid?5SDP?5origin?5line?5?$CIPJMEDI@ 00470360     pjmedia-i386-win32-vc14-release:errno.obj
 0002:00002390       ??_C@_0CM@DLEAGODI@Invalid?5SDP?5time?5line?5?$CIPJMEDIA_@ 00470390     pjmedia-i386-win32-vc14-release:errno.obj
 0002:000023bc       ??_C@_0DF@HNDCDPJF@SDP?5name?1subject?5line?5is?5empty?5@ 004703bc     pjmedia-i386-win32-vc14-release:errno.obj
 0002:000023f4       ??_C@_0DC@KNNPDHKA@Invalid?5SDP?5connection?5line?5?$CIPJ@ 004703f4     pjmedia-i386-win32-vc14-release:errno.obj
 0002:00002428       ??_C@_0DM@NEDHCJGL@Missing?5SDP?5connection?5info?5lin@ 00470428     pjmedia-i386-win32-vc14-release:errno.obj
 0002:00002464       ??_C@_0CN@JHLMEODJ@Invalid?5SDP?5attributes?5?$CIPJMEDIA@ 00470464     pjmedia-i386-win32-vc14-release:errno.obj
 0002:00002494       ??_C@_0DF@BJAALDOM@Invalid?5SDP?5rtpmap?5attribute?5?$CIP@ 00470494     pjmedia-i386-win32-vc14-release:errno.obj
 0002:000024cc       ??_C@_0DL@HCOGNPAF@SDP?5rtpmap?5attribute?5too?5long?5?$CI@ 004704cc     pjmedia-i386-win32-vc14-release:errno.obj
 0002:00002508       ??_C@_0EJ@IDNJACOO@Missing?5SDP?5rtpmap?5for?5dynamic?5@ 00470508     pjmedia-i386-win32-vc14-release:errno.obj
 0002:00002554       ??_C@_0CO@DIKFNJOF@Invalid?5SDP?5media?5line?5?$CIPJMEDIA@ 00470554     pjmedia-i386-win32-vc14-release:errno.obj
 0002:00002584       ??_C@_0DN@GADAENKO@No?5SDP?5payload?5format?5in?5the?5me@ 00470584     pjmedia-i386-win32-vc14-release:errno.obj
 0002:000025c4       ??_C@_0DL@KAILPDC@Invalid?5SDP?5payload?5type?5in?5med@ 004705c4     pjmedia-i386-win32-vc14-release:errno.obj
 0002:00002600       ??_C@_0DB@BJCACDID@Invalid?5SDP?5fmtp?5attribute?5?$CIPJM@ 00470600     pjmedia-i386-win32-vc14-release:errno.obj
 0002:00002634       ??_C@_0DB@GFBENNMO@Invalid?5SDP?5rtcp?5attribute?5?$CIPJM@ 00470634     pjmedia-i386-win32-vc14-release:errno.obj
 0002:00002668       ??_C@_0DM@JFGCNJLM@Invalid?5SDP?5media?5transport?5pro@ 00470668     pjmedia-i386-win32-vc14-release:errno.obj
 0002:000026a4       ??_C@_0DH@PCNCDMKM@Invalid?5SDP?5bandwidth?5info?5line@ 004706a4     pjmedia-i386-win32-vc14-release:errno.obj
 0002:000026dc       ??_C@_0DB@POLJHCKE@Invalid?5SDP?5ssrc?5attribute?5?$CIPJM@ 004706dc     pjmedia-i386-win32-vc14-release:errno.obj
 0002:00002710       ??_C@_0EF@CJNFLCEL@Invalid?5SDP?5negotiator?5state?5fo@ 00470710     pjmedia-i386-win32-vc14-release:errno.obj
 0002:00002758       ??_C@_0ED@IFOJJHNO@No?5initial?5local?5SDP?5in?5SDP?5neg@ 00470758     pjmedia-i386-win32-vc14-release:errno.obj
 0002:0000279c       ??_C@_0DL@MFMHOMBE@No?5active?5SDP?5in?5SDP?5negotiator@ 0047079c     pjmedia-i386-win32-vc14-release:errno.obj
 0002:000027d8       ??_C@_0DN@JGPGLEOH@No?5current?5local?1remote?5offer?1a@ 004707d8     pjmedia-i386-win32-vc14-release:errno.obj
 0002:00002818       ??_C@_0EE@BLNHOMNC@SDP?5media?5count?5mismatch?5in?5off@ 00470818     pjmedia-i386-win32-vc14-release:errno.obj
 0002:00002860       ??_C@_0EG@MJOIPNIH@SDP?5media?5type?5mismatch?5in?5offe@ 00470860     pjmedia-i386-win32-vc14-release:errno.obj
 0002:000028a8       ??_C@_0EN@OPFCIOMP@SDP?5media?5transport?5type?5mismat@ 004708a8     pjmedia-i386-win32-vc14-release:errno.obj
 0002:000028f8       ??_C@_0ED@NGHPALDD@No?5common?5SDP?5media?5payload?5in?5@ 004708f8     pjmedia-i386-win32-vc14-release:errno.obj
 0002:00002940       ??_C@_0ED@HELGJJGO@No?5active?5media?5stream?5after?5ne@ 00470940     pjmedia-i386-win32-vc14-release:errno.obj
 0002:00002984       ??_C@_0DP@KIMEPBPF@No?5suitable?5codec?5for?5remote?5of@ 00470984     pjmedia-i386-win32-vc14-release:errno.obj
 0002:000029c8       ??_C@_0EM@LLMPLGCO@No?5suitable?5telephone?9event?5for@ 004709c8     pjmedia-i386-win32-vc14-release:errno.obj
 0002:00002a18       ??_C@_0EK@LPNBCGHG@No?5suitable?5answer?5for?5unknown?5@ 00470a18     pjmedia-i386-win32-vc14-release:errno.obj
 0002:00002a64       ??_C@_0DM@JMBBJEKO@SDP?5media?5descriptor?5not?5equal?5@ 00470a64     pjmedia-i386-win32-vc14-release:errno.obj
 0002:00002aa0       ??_C@_0ED@KAALGBMF@Port?5in?5SDP?5media?5descriptor?5no@ 00470aa0     pjmedia-i386-win32-vc14-release:errno.obj
 0002:00002ae8       ??_C@_0EJ@FJOJLJDF@Transport?5in?5SDP?5media?5descript@ 00470ae8     pjmedia-i386-win32-vc14-release:errno.obj
 0002:00002b38       ??_C@_0EH@FMIFCFBA@Format?5in?5SDP?5media?5descriptor?5@ 00470b38     pjmedia-i386-win32-vc14-release:errno.obj
 0002:00002b80       ??_C@_0DK@MAHAOAHF@SDP?5connection?5line?5not?5equal?5?$CI@ 00470b80     pjmedia-i386-win32-vc14-release:errno.obj
 0002:00002bbc       ??_C@_0DF@HHCJAGLJ@SDP?5attributes?5not?5equal?5?$CIPJMED@ 00470bbc     pjmedia-i386-win32-vc14-release:errno.obj
 0002:00002bf4       ??_C@_0DJ@GGABIHGL@SDP?5media?5direction?5not?5equal?5?$CI@ 00470bf4     pjmedia-i386-win32-vc14-release:errno.obj
 0002:00002c30       ??_C@_0DJ@FFGHKCEG@SDP?5fmtp?5attribute?5not?5equal?5?$CIP@ 00470c30     pjmedia-i386-win32-vc14-release:errno.obj
 0002:00002c6c       ??_C@_0DN@HLKACHFN@SDP?5rtpmap?5attribute?5not?5equal?5@ 00470c6c     pjmedia-i386-win32-vc14-release:errno.obj
 0002:00002cac       ??_C@_0DN@EALGPLFN@SDP?5session?5descriptor?5not?5equa@ 00470cac     pjmedia-i386-win32-vc14-release:errno.obj
 0002:00002cec       ??_C@_0DI@BLKBMMGO@SDP?5origin?5line?5not?5equal?5?$CIPJME@ 00470cec     pjmedia-i386-win32-vc14-release:errno.obj
 0002:00002d24       ??_C@_0DM@HCOBINN@SDP?5name?1subject?5line?5not?5equal@ 00470d24     pjmedia-i386-win32-vc14-release:errno.obj
 0002:00002d60       ??_C@_0DE@PFJJJNGL@SDP?5time?5line?5not?5equal?5?$CIPJMEDI@ 00470d60     pjmedia-i386-win32-vc14-release:errno.obj
 0002:00002d94       ??_C@_0CP@ODMIIAEN@Unsupported?5media?5codec?5?$CIPJMEDI@ 00470d94     pjmedia-i386-win32-vc14-release:errno.obj
 0002:00002dc4       ??_C@_0DG@KJBEJCIE@Codec?5internal?5creation?5error?5?$CI@ 00470dc4     pjmedia-i386-win32-vc14-release:errno.obj
 0002:00002dfc       ??_C@_0DG@FOGENKNL@Codec?5frame?5is?5too?5short?5?$CIPJMED@ 00470dfc     pjmedia-i386-win32-vc14-release:errno.obj
 0002:00002e34       ??_C@_0DE@OLKJHMCL@PCM?5frame?5is?5too?5short?5?$CIPJMEDIA@ 00470e34     pjmedia-i386-win32-vc14-release:errno.obj
 0002:00002e68       ??_C@_0DF@JDAOLAOM@Invalid?5codec?5frame?5length?5?$CIPJM@ 00470e68     pjmedia-i386-win32-vc14-release:errno.obj
 0002:00002ea0       ??_C@_0DG@LLBBCNCG@Invalid?5PCM?5frame?5length?5?$CIPJMED@ 00470ea0     pjmedia-i386-win32-vc14-release:errno.obj
 0002:00002ed8       ??_C@_0DG@EKMGLMFL@Invalid?5codec?5mode?5?$CIno?5fmtp?$DP?$CJ?5?$CI@ 00470ed8     pjmedia-i386-win32-vc14-release:errno.obj
 0002:00002f10       ??_C@_0DJ@NJFBGAOC@Bad?5or?5corrupted?5bitstream?5?$CIPJM@ 00470f10     pjmedia-i386-win32-vc14-release:errno.obj
 0002:00002f4c       ??_C@_0DH@KOBKDDJI@Invalid?5remote?5media?5?$CIIP?$CJ?5addre@ 00470f4c     pjmedia-i386-win32-vc14-release:errno.obj
 0002:00002f84       ??_C@_0DM@GBJMMNCF@Asymetric?5media?5codec?5is?5not?5su@ 00470f84     pjmedia-i386-win32-vc14-release:errno.obj
 0002:00002fc0       ??_C@_0DA@DKJJFGPE@Invalid?5media?5payload?5type?5?$CIPJM@ 00470fc0     pjmedia-i386-win32-vc14-release:errno.obj
 0002:00002ff0       ??_C@_0DN@IGGOEBDI@Missing?5rtpmap?5in?5media?5descrip@ 00470ff0     pjmedia-i386-win32-vc14-release:errno.obj
 0002:00003030       ??_C@_0CO@MJBLNMMI@Invalid?5media?5type?5?$CIPJMEDIA_EIN@ 00471030     pjmedia-i386-win32-vc14-release:errno.obj
 0002:00003060       ??_C@_0DF@NNKPPHHC@Remote?5does?5not?5support?5DTMF?5?$CIP@ 00471060     pjmedia-i386-win32-vc14-release:errno.obj
 0002:00003098       ??_C@_0CJ@ECIKMCPH@Invalid?5DTMF?5digit?5?$CIPJMEDIA_RTP@ 00471098     pjmedia-i386-win32-vc14-release:errno.obj
 0002:000030c4       ??_C@_0DN@EHCPFJJN@Remote?5does?5not?5support?5RFC?5283@ 004710c4     pjmedia-i386-win32-vc14-release:errno.obj
 0002:00003104       ??_C@_0BN@LMCOIKH@Bad?5format?5?$CIPJMEDIA_EBADFMT?$CJ@ 00471104     pjmedia-i386-win32-vc14-release:errno.obj
 0002:00003124       ??_C@_0DB@GBKLBGPK@Unsupported?5media?5type?5?$CIPJMEDIA@ 00471124     pjmedia-i386-win32-vc14-release:errno.obj
 0002:00003158       ??_C@_0CI@KDAMKHEL@Invalid?5RTP?5packet?5?$CIPJMEDIA_RTP@ 00471158     pjmedia-i386-win32-vc14-release:errno.obj
 0002:00003180       ??_C@_0DL@KLDJIJLI@Invalid?5RTP?5packing?5?$CIinternal?5e@ 00471180     pjmedia-i386-win32-vc14-release:errno.obj
 0002:000031bc       ??_C@_0CJ@NGKNCMFA@Invalid?5RTP?5version?5?$CIPJMEDIA_RT@ 004711bc     pjmedia-i386-win32-vc14-release:errno.obj
 0002:000031e8       ??_C@_0DC@PFPAEINL@RTP?5packet?5SSRC?5id?5mismatch?5?$CIPJ@ 004711e8     pjmedia-i386-win32-vc14-release:errno.obj
 0002:0000321c       ??_C@_0DF@KDOADJLK@RTP?5packet?5payload?5type?5mismatc@ 0047121c     pjmedia-i386-win32-vc14-release:errno.obj
 0002:00003254       ??_C@_0CP@OBFABIAL@Invalid?5RTP?5packet?5length?5?$CIPJME@ 00471254     pjmedia-i386-win32-vc14-release:errno.obj
 0002:00003284       ??_C@_0DB@HLHLKEBJ@RTP?5session?5restarted?5?$CIPJMEDIA_@ 00471284     pjmedia-i386-win32-vc14-release:errno.obj
 0002:000032b8       ??_C@_0DG@OPPFJBGL@RTP?5session?5in?5probation?5?$CIPJMED@ 004712b8     pjmedia-i386-win32-vc14-release:errno.obj
 0002:000032f0       ??_C@_0DI@LFLLIJCB@Bad?5sequence?5number?5in?5RTP?5pack@ 004712f0     pjmedia-i386-win32-vc14-release:errno.obj
 0002:00003328       ??_C@_0EE@PHAAOPAG@RTP?5media?5port?5destination?5is?5n@ 00471328     pjmedia-i386-win32-vc14-release:errno.obj
 0002:0000336c       ??_C@_0CO@BFKJOFNE@RTP?5is?5not?5configured?5?$CIPJMEDIA_@ 0047136c     pjmedia-i386-win32-vc14-release:errno.obj
 0002:0000339c       ??_C@_0DI@MEKDIPIO@Media?5ports?5are?5not?5compatible?5@ 0047139c     pjmedia-i386-win32-vc14-release:errno.obj
 0002:000033d8       ??_C@_0EA@EJPEOGMK@Media?5ports?5have?5incompatible?5c@ 004713d8     pjmedia-i386-win32-vc14-release:errno.obj
 0002:00003418       ??_C@_0EL@KOIIKBFP@Media?5ports?5have?5incompatible?5s@ 00471418     pjmedia-i386-win32-vc14-release:errno.obj
 0002:00003464       ??_C@_0DL@FLCJCEPI@Media?5ports?5have?5incompatible?5m@ 00471464     pjmedia-i386-win32-vc14-release:errno.obj
 0002:000034a0       ??_C@_0EA@CDICINEI@Media?5ports?5have?5incompatible?5b@ 004714a0     pjmedia-i386-win32-vc14-release:errno.obj
 0002:000034e0       ??_C@_0EB@DHIDGGBD@Media?5ports?5have?5incompatible?5b@ 004714e0     pjmedia-i386-win32-vc14-release:errno.obj
 0002:00003528       ??_C@_0EG@FBPNENMF@Media?5ports?5have?5incompatible?5n@ 00471528     pjmedia-i386-win32-vc14-release:errno.obj
 0002:00003570       ??_C@_0CO@CKCFJDML@Not?5a?5valid?5WAVE?5file?5?$CIPJMEDIA_@ 00471570     pjmedia-i386-win32-vc14-release:errno.obj
 0002:000035a0       ??_C@_0DD@FKNCKLNB@Unsupported?5WAVE?5file?5format?5?$CIP@ 004715a0     pjmedia-i386-win32-vc14-release:errno.obj
 0002:000035d4       ??_C@_0CM@HKHLDPDN@WAVE?5file?5too?5short?5?$CIPJMEDIA_EW@ 004715d4     pjmedia-i386-win32-vc14-release:errno.obj
 0002:00003600       ??_C@_0DP@HHAKLPGE@Sound?5frame?5too?5large?5for?5file?5@ 00471600     pjmedia-i386-win32-vc14-release:errno.obj
 0002:00003640       ??_C@_0CK@EMOCNCPF@Unsupported?5AVI?5file?5?$CIPJMEDIA_E@ 00471640     pjmedia-i386-win32-vc14-release:errno.obj
 0002:0000366c       ??_C@_0DF@PKIKHNPA@No?5suitable?5sound?5capture?5devic@ 0047166c     pjmedia-i386-win32-vc14-release:errno.obj
 0002:000036a4       ??_C@_0DH@NACBPKOD@No?5suitable?5sound?5playback?5devi@ 004716a4     pjmedia-i386-win32-vc14-release:errno.obj
 0002:000036dc       ??_C@_0CO@FCJGKBG@Invalid?5sound?5device?5ID?5?$CIPJMEDI@ 004716dc     pjmedia-i386-win32-vc14-release:errno.obj
 0002:00003710       ??_C@_0EB@GAMOPGD@Invalid?5sample?5format?5for?5sound@ 00471710     pjmedia-i386-win32-vc14-release:errno.obj
 0002:00003758       ??_C@_0FA@HAKEALMK@SRTP?5crypto?9suite?5name?5not?5matc@ 00471758     pjmedia-i386-win32-vc14-release:errno.obj
 0002:000037a8       ??_C@_0EF@DCMAHBDI@Invalid?5SRTP?5key?5length?5for?5spe@ 004717a8     pjmedia-i386-win32-vc14-release:errno.obj
 0002:000037f0       ??_C@_0DL@BINEGGLM@Unsupported?5SRTP?5crypto?9suite?5?$CI@ 004717f0     pjmedia-i386-win32-vc14-release:errno.obj
 0002:0000382c       ??_C@_0DP@DNDEFJI@SRTP?5SDP?5contains?5ambigue?5answe@ 0047182c     pjmedia-i386-win32-vc14-release:errno.obj
 0002:0000386c       ??_C@_0DL@PPDCJAFI@Duplicated?5SRTP?5crypto?5tag?5?$CIPJM@ 0047186c     pjmedia-i386-win32-vc14-release:errno.obj
 0002:000038a8       ??_C@_0DK@EIEPDNB@Invalid?5SRTP?5crypto?5attribute?5?$CI@ 004718a8     pjmedia-i386-win32-vc14-release:errno.obj
 0002:000038e4       ??_C@_0DH@JABOECDK@Invalid?5SRTP?5crypto?5tag?5?$CIPJMEDI@ 004718e4     pjmedia-i386-win32-vc14-release:errno.obj
 0002:00003920       ??_C@_0EE@HKDIFKLN@Invalid?5SDP?5media?5transport?5for@ 00471920     pjmedia-i386-win32-vc14-release:errno.obj
 0002:00003964       ??_C@_0DM@OPHJDJCK@SRTP?5crypto?5attribute?5required?5@ 00471964     pjmedia-i386-win32-vc14-release:errno.obj
 0002:000039a0       ??_C@_0EO@MOMMHEEA@Secure?5transport?5required?5in?5SD@ 004719a0     pjmedia-i386-win32-vc14-release:errno.obj
 0002:000039f0       ??_C@_0EK@HIIDIBOJ@SRTP?5parameters?5negotiation?5sti@ 004719f0     pjmedia-i386-win32-vc14-release:errno.obj
 0002:00003a40       ??_C@_0EM@HBHPHIDH@No?5matching?5SRTP?5crypto?9suite?5a@ 00471a40     pjmedia-i386-win32-vc14-release:errno.obj
 0002:00003a90       ??_C@_0EN@OKMMPCBN@No?5certificate?5supplied?5by?5peer@ 00471a90     pjmedia-i386-win32-vc14-release:errno.obj
 0002:00003ae0       ??_C@_0FM@DHHDFBCG@Fingerprint?5from?5signalling?5not@ 00471ae0     pjmedia-i386-win32-vc14-release:errno.obj
 0002:00003b3c       ??_C@_0DE@BIABFNHJ@Fingerprint?5not?5found?5?$CIPJMEDIA_@ 00471b3c     pjmedia-i386-win32-vc14-release:errno.obj
 0002:00003b70       ??_C@_0BJ@JGEGOKIK@Unknown?5pjmedia?5error?5?$CFd@ 00471b70     pjmedia-i386-win32-vc14-release:errno.obj
 0002:00003b90       _pjmedia_linear2ulaw_tab   00471b90     pjmedia-i386-win32-vc14-release:alaw_ulaw_table.obj
 0002:00007b90       _pjmedia_linear2alaw_tab   00475b90     pjmedia-i386-win32-vc14-release:alaw_ulaw_table.obj
 0002:0000bb90       _pjmedia_ulaw2linear_tab   00479b90     pjmedia-i386-win32-vc14-release:alaw_ulaw_table.obj
 0002:0000bd90       _pjmedia_alaw2linear_tab   00479d90     pjmedia-i386-win32-vc14-release:alaw_ulaw_table.obj
 0002:0000bf90       __real@3f800000            00479f90     pjmedia-i386-win32-vc14-release:wsola.obj
 0002:0000bf98       __real@3fe0000000000000    00479f98     pjmedia-i386-win32-vc14-release:wsola.obj
 0002:0000bfa0       __real@3ff0000000000000    00479fa0     pjmedia-i386-win32-vc14-release:wsola.obj
 0002:0000bfa8       __real@3ff8000000000000    00479fa8     pjmedia-i386-win32-vc14-release:wsola.obj
 0002:0000bfb0       __real@401921fb54442d18    00479fb0     pjmedia-i386-win32-vc14-release:wsola.obj
 0002:0000bfc0       __xmm@00000003000000020000000100000000 00479fc0     pjmedia-i386-win32-vc14-release:wsola.obj
 0002:0000bfd0       __xmm@3fe00000000000003fe0000000000000 00479fd0     pjmedia-i386-win32-vc14-release:wsola.obj
 0002:0000bfe0       __xmm@401921fb54442d18401921fb54442d18 00479fe0     pjmedia-i386-win32-vc14-release:wsola.obj
 0002:0000bff0       __xmm@41f00000000000000000000000000000 00479ff0     pjmedia-i386-win32-vc14-release:wsola.obj
 0002:0000c000       __xmm@41f000000000000041f0000000000000 0047a000     pjmedia-i386-win32-vc14-release:wsola.obj
 0002:0000c1f0       ??_C@_0DI@FPKNFLPC@Unable?5to?5resolve?5STUN?5server?5?$CI@ 0047a1f0     pjlib-util-i386-win32-vc14-release:errno.obj
 0002:0000c228       ??_C@_0DG@MLIAHJMC@Unknown?5STUN?5message?5type?5?$CIPJLI@ 0047a228     pjlib-util-i386-win32-vc14-release:errno.obj
 0002:0000c260       ??_C@_0DH@BGLGMNML@Invalid?5STUN?5message?5length?5?$CIPJ@ 0047a260     pjlib-util-i386-win32-vc14-release:errno.obj
 0002:0000c298       ??_C@_0DI@MNKBLDCO@STUN?5attribute?5length?5error?5?$CIPJ@ 0047a298     pjlib-util-i386-win32-vc14-release:errno.obj
 0002:0000c2d0       ??_C@_0DJ@GEFJCPHI@Invalid?5STUN?5attribute?5type?5?$CIPJ@ 0047a2d0     pjlib-util-i386-win32-vc14-release:errno.obj
 0002:0000c30c       ??_C@_0DL@JFEBBJAB@Invalid?5STUN?5server?1socket?5inde@ 0047a30c     pjlib-util-i386-win32-vc14-release:errno.obj
 0002:0000c348       ??_C@_0EE@OMBAKMPD@No?5STUN?5binding?5response?5in?5the@ 0047a348     pjlib-util-i386-win32-vc14-release:errno.obj
 0002:0000c38c       ??_C@_0DM@JJJKHKHH@Received?5STUN?5error?5attribute?5?$CI@ 0047a38c     pjlib-util-i386-win32-vc14-release:errno.obj
 0002:0000c3c8       ??_C@_0DJ@BDPKKDEL@No?5STUN?5mapped?5address?5attribut@ 0047a3c8     pjlib-util-i386-win32-vc14-release:errno.obj
 0002:0000c408       ??_C@_0ED@MIOBPJDH@Received?5no?5response?5from?5STUN?5@ 0047a408     pjlib-util-i386-win32-vc14-release:errno.obj
 0002:0000c44c       ??_C@_0DK@OILEGGA@Symetric?5NAT?5detected?5by?5STUN?5?$CI@ 0047a44c     pjlib-util-i386-win32-vc14-release:errno.obj
 0002:0000c488       ??_C@_0CI@OKGDIDF@Invalid?5XML?5message?5?$CIPJLIB_UTIL@ 0047a488     pjlib-util-i386-win32-vc14-release:errno.obj
 0002:0000c4b0       ??_C@_0CL@IPLFEOJE@Invalid?5JSON?5document?5?$CIPJLIB_UT@ 0047a4b0     pjlib-util-i386-win32-vc14-release:errno.obj
 0002:0000c4e0       ??_C@_0EC@KJLJANIE@DNS?5query?5packet?5buffer?5is?5too?5@ 0047a4e0     pjlib-util-i386-win32-vc14-release:errno.obj
 0002:0000c524       ??_C@_0DC@JFKHADAC@Invalid?5DNS?5packet?5length?5?$CIPJLI@ 0047a524     pjlib-util-i386-win32-vc14-release:errno.obj
 0002:0000c558       ??_C@_0CL@OCFDFFNM@Invalid?5DNS?5class?5?$CIPJLIB_UTIL_E@ 0047a558     pjlib-util-i386-win32-vc14-release:errno.obj
 0002:0000c584       ??_C@_0DE@FIPILDGP@Invalid?5DNS?5name?5pointer?5?$CIPJLIB@ 0047a584     pjlib-util-i386-win32-vc14-release:errno.obj
 0002:0000c5b8       ??_C@_0DJ@NBOGGJL@Invalid?5DNS?5nameserver?5address?5@ 0047a5b8     pjlib-util-i386-win32-vc14-release:errno.obj
 0002:0000c5f4       ??_C@_0DH@LFJGDOHB@No?5nameserver?5is?5in?5DNS?5resolve@ 0047a5f4     pjlib-util-i386-win32-vc14-release:errno.obj
 0002:0000c62c       ??_C@_0DH@PHJBLCKD@No?5working?5DNS?5nameserver?5?$CIPJLI@ 0047a62c     pjlib-util-i386-win32-vc14-release:errno.obj
 0002:0000c668       ??_C@_0EC@HJFBNLFC@No?5answer?5record?5in?5the?5DNS?5res@ 0047a668     pjlib-util-i386-win32-vc14-release:errno.obj
 0002:0000c6ac       ??_C@_0CN@DEFBDJKF@Invalid?5DNS?5answer?5?$CIPJLIB_UTIL_@ 0047a6ac     pjlib-util-i386-win32-vc14-release:errno.obj
 0002:0000c6dc       ??_C@_0CN@BCAAPMPM@DNS?5?$CCFormat?5error?$CC?5?$CIPJLIB_UTIL_@ 0047a6dc     pjlib-util-i386-win32-vc14-release:errno.obj
 0002:0000c70c       ??_C@_0DA@NBPIIAHM@DNS?5?$CCServer?5failure?$CC?5?$CIPJLIB_UTI@ 0047a70c     pjlib-util-i386-win32-vc14-release:errno.obj
 0002:0000c73c       ??_C@_0CM@CNNJNBCA@DNS?5?$CCName?5Error?$CC?5?$CIPJLIB_UTIL_ED@ 0047a73c     pjlib-util-i386-win32-vc14-release:errno.obj
 0002:0000c768       ??_C@_0DA@DIMDKHPM@DNS?5?$CCNot?5Implemented?$CC?5?$CIPJLIB_UT@ 0047a768     pjlib-util-i386-win32-vc14-release:errno.obj
 0002:0000c798       ??_C@_0CI@LDMKLLKJ@DNS?5?$CCRefused?$CC?5?$CIPJLIB_UTIL_EDNS_@ 0047a798     pjlib-util-i386-win32-vc14-release:errno.obj
 0002:0000c7c0       ??_C@_0DB@PFAMNHPJ@DNS?5?$CCThe?5name?5exists?$CC?5?$CIPJLIB_UT@ 0047a7c0     pjlib-util-i386-win32-vc14-release:errno.obj
 0002:0000c7f4       ??_C@_0DO@OIIHMCI@DNS?5?$CCThe?5RRset?5?$CIname?0?5type?$CJ?5exi@ 0047a7f4     pjlib-util-i386-win32-vc14-release:errno.obj
 0002:0000c838       ??_C@_0EG@OMHMBNML@DNS?5?$CCThe?5RRset?5?$CIname?0?5type?$CJ?5doe@ 0047a838     pjlib-util-i386-win32-vc14-release:errno.obj
 0002:0000c880       ??_C@_0CP@HJODAHHO@DNS?5?$CCNot?5authorized?$CC?5?$CIPJLIB_UTI@ 0047a880     pjlib-util-i386-win32-vc14-release:errno.obj
 0002:0000c8b0       ??_C@_0EB@GKEHOPAE@DNS?5?$CCThe?5zone?5specified?5is?5not?5@ 0047a8b0     pjlib-util-i386-win32-vc14-release:errno.obj
 0002:0000c8f4       ??_C@_0DH@EMGNELGL@Too?5many?5STUN?5attributes?5?$CIPJLIB@ 0047a8f4     pjlib-util-i386-win32-vc14-release:errno.obj
 0002:0000c92c       ??_C@_0DF@KMIPDCMM@Unknown?5STUN?5attribute?5?$CIPJLIB_U@ 0047a92c     pjlib-util-i386-win32-vc14-release:errno.obj
 0002:0000c964       ??_C@_0DP@PDBNFLFH@Invalid?5STUN?5socket?5address?5len@ 0047a964     pjlib-util-i386-win32-vc14-release:errno.obj
 0002:0000c9a8       ??_C@_0EA@NAKPKGDE@STUN?5IPv6?5attribute?5not?5support@ 0047a9a8     pjlib-util-i386-win32-vc14-release:errno.obj
 0002:0000c9e8       ??_C@_0DO@LEKPMIHP@Expecting?5STUN?5response?5message@ 0047a9e8     pjlib-util-i386-win32-vc14-release:errno.obj
 0002:0000ca28       ??_C@_0DJ@DDEJFFIL@STUN?5transaction?5ID?5mismatch?5?$CIP@ 0047aa28     pjlib-util-i386-win32-vc14-release:errno.obj
 0002:0000ca68       ??_C@_0EI@BNLBFIKH@Unable?5to?5find?5STUN?5handler?5for@ 0047aa68     pjlib-util-i386-win32-vc14-release:errno.obj
 0002:0000cab0       ??_C@_0FA@DIAPLEFD@Found?5non?9FINGERPRINT?5attr?4?5aft@ 0047aab0     pjlib-util-i386-win32-vc14-release:errno.obj
 0002:0000cb00       ??_C@_0ED@CNMDGMPD@Found?5STUN?5attribute?5after?5FING@ 0047ab00     pjlib-util-i386-win32-vc14-release:errno.obj
 0002:0000cb44       ??_C@_0DN@JLMAJAKN@Missing?5STUN?5USERNAME?5attribute@ 0047ab44     pjlib-util-i386-win32-vc14-release:errno.obj
 0002:0000cb88       ??_C@_0EK@LMHKLKC@Missing?1invalid?5STUN?5MESSAGE?9IN@ 0047ab88     pjlib-util-i386-win32-vc14-release:errno.obj
 0002:0000cbd4       ??_C@_0DJ@BCFNCGF@Found?5duplicate?5STUN?5attribute?5@ 0047abd4     pjlib-util-i386-win32-vc14-release:errno.obj
 0002:0000cc10       ??_C@_0DH@MMHMOPBG@Missing?5STUN?5REALM?5attribute?5?$CIP@ 0047ac10     pjlib-util-i386-win32-vc14-release:errno.obj
 0002:0000cc48       ??_C@_0EB@FGOGNHPO@Missing?1stale?5STUN?5NONCE?5attrib@ 0047ac48     pjlib-util-i386-win32-vc14-release:errno.obj
 0002:0000cc90       ??_C@_0EF@HAPLEMIK@STUN?5transaction?5terminates?5wit@ 0047ac90     pjlib-util-i386-win32-vc14-release:errno.obj
 0002:0000ccd8       ??_C@_0CL@GOOAEBLJ@Invalid?5URL?5format?5?$CIPJLIB_UTIL_@ 0047acd8     pjlib-util-i386-win32-vc14-release:errno.obj
 0002:0000cd04       ??_C@_0DB@BDFJPAOA@Invalid?5URL?5port?5number?5?$CIPJLIB_@ 0047ad04     pjlib-util-i386-win32-vc14-release:errno.obj
 0002:0000cd38       ??_C@_0DN@CABCKELB@Incomplete?5response?5header?5rece@ 0047ad38     pjlib-util-i386-win32-vc14-release:errno.obj
 0002:0000cd78       ??_C@_0CN@MKMAKFDH@Insufficient?5buffer?5?$CIPJLIB_UTIL@ 0047ad78     pjlib-util-i386-win32-vc14-release:errno.obj
 0002:0000cda8       ??_C@_0CH@JNBFBBKA@Connection?5lost?5?$CIPJLIB_UTIL_EHT@ 0047ada8     pjlib-util-i386-win32-vc14-release:errno.obj
 0002:0000cdd0       ??_C@_0CE@DHMMOEGP@Exit?5current?5session?5?$CIPJ_CLI_EE@ 0047add0     pjlib-util-i386-win32-vc14-release:errno.obj
 0002:0000cdf4       ??_C@_0CG@LEDMCEME@Missing?5argument?5?$CIPJ_CLI_EMISSI@ 0047adf4     pjlib-util-i386-win32-vc14-release:errno.obj
 0002:0000ce1c       ??_C@_0CJ@ECODGDHL@Too?5many?5arguments?5?$CIPJ_CLI_ETOO@ 0047ae1c     pjlib-util-i386-win32-vc14-release:errno.obj
 0002:0000ce48       ??_C@_0CC@NLPGOLED@Invalid?5argument?5?$CIPJ_CLI_EINVAR@ 0047ae48     pjlib-util-i386-win32-vc14-release:errno.obj
 0002:0000ce6c       ??_C@_0CO@OOEOBCH@Command?5name?5already?5exists?5?$CIPJ@ 0047ae6c     pjlib-util-i386-win32-vc14-release:errno.obj
 0002:0000ce9c       ??_C@_0CK@MKOACJP@Command?5id?5already?5exists?5?$CIPJ_C@ 0047ae9c     pjlib-util-i386-win32-vc14-release:errno.obj
 0002:0000cec8       ??_C@_0CE@LHHCBFML@Invalid?5XML?5format?5?$CIPJ_CLI_EBAD@ 0047aec8     pjlib-util-i386-win32-vc14-release:errno.obj
 0002:0000ceec       ??_C@_0CF@CKMLJLLP@Connection?5lost?5?$CIPJ_CLI_ETELNET@ 0047aeec     pjlib-util-i386-win32-vc14-release:errno.obj
 0002:0000cf14       ??_C@_0BM@LDLEGOFO@Unknown?5pjlib?9util?5error?5?$CFd@ 0047af14     pjlib-util-i386-win32-vc14-release:errno.obj
 0002:0000cf30       ??_C@_02BAABKJLB@?9?9@     0047af30     pjlib-util-i386-win32-vc14-release:getopt.obj
 0002:0000cf78       ??_C@_04IPLGGICB@pcap@     0047af78     pjlib-util-i386-win32-vc14-release:pcap.obj
 0002:0000cf80       ??_C@_04IFCNACLH@pj?$CFp@  0047af80     pjlib-i386-win32-vc14-release:os_core_win32.obj
 0002:0000cf88       ??_C@_0BA@NGJFHJA@PJLIB?1No?5memory@ 0047af88     pjlib-i386-win32-vc14-release:os_core_win32.obj
 0002:0000cf98       ??_C@_0BP@NGEKBPIB@pjlib?5?$CFs?5for?5win32?5initialized@ 0047af98     pjlib-i386-win32-vc14-release:os_core_win32.obj
 0002:0000cfb8       ??_C@_0BA@FNCACAIG@os_core_win32?4c@ 0047afb8     pjlib-i386-win32-vc14-release:os_core_win32.obj
 0002:0000cfc8       ??_C@_0CI@EAKIIBBA@Main?5thread?5stack?5max?5usage?$DN?$CFu?5@ 0047afc8     pjlib-i386-win32-vc14-release:os_core_win32.obj
 0002:0000cff0       ??_C@_0GK@OEPMDMLM@e?3?2my_ended_projects?2client_ser@ 0047aff0     pjlib-i386-win32-vc14-release:os_core_win32.obj
 0002:0000d05c       ??_C@_05KHEDLION@thr?$CFp@ 0047b05c     pjlib-i386-win32-vc14-release:os_core_win32.obj
 0002:0000d064       ??_C@_0CD@GPHECFNA@Thread?5stack?5max?5usage?$DN?$CFu?5by?5?$CFs@ 0047b064     pjlib-i386-win32-vc14-release:os_core_win32.obj
 0002:0000d088       ??_C@_05EJDHHBFJ@mtx?$CFp@ 0047b088     pjlib-i386-win32-vc14-release:os_core_win32.obj
 0002:0000d090       _PJ_AF_UNSPEC              0047b090     pjlib-i386-win32-vc14-release:sock_bsd.obj
 0002:0000d094       _PJ_AF_UNIX                0047b094     pjlib-i386-win32-vc14-release:sock_bsd.obj
 0002:0000d098       _PJ_AF_INET                0047b098     pjlib-i386-win32-vc14-release:sock_bsd.obj
 0002:0000d09c       _PJ_AF_INET6               0047b09c     pjlib-i386-win32-vc14-release:sock_bsd.obj
 0002:0000d0a0       _PJ_AF_PACKET              0047b0a0     pjlib-i386-win32-vc14-release:sock_bsd.obj
 0002:0000d0a4       _PJ_AF_IRDA                0047b0a4     pjlib-i386-win32-vc14-release:sock_bsd.obj
 0002:0000d0a8       _PJ_SOCK_STREAM            0047b0a8     pjlib-i386-win32-vc14-release:sock_bsd.obj
 0002:0000d0ac       _PJ_SOCK_DGRAM             0047b0ac     pjlib-i386-win32-vc14-release:sock_bsd.obj
 0002:0000d0b0       _PJ_SOCK_RAW               0047b0b0     pjlib-i386-win32-vc14-release:sock_bsd.obj
 0002:0000d0b4       _PJ_SOCK_RDM               0047b0b4     pjlib-i386-win32-vc14-release:sock_bsd.obj
 0002:0000d0b8       _PJ_SOL_SOCKET             0047b0b8     pjlib-i386-win32-vc14-release:sock_bsd.obj
 0002:0000d0bc       _PJ_SOL_IP                 0047b0bc     pjlib-i386-win32-vc14-release:sock_bsd.obj
 0002:0000d0c0       _PJ_SOL_TCP                0047b0c0     pjlib-i386-win32-vc14-release:sock_bsd.obj
 0002:0000d0c4       _PJ_SOL_UDP                0047b0c4     pjlib-i386-win32-vc14-release:sock_bsd.obj
 0002:0000d0c8       _PJ_SOL_IPV6               0047b0c8     pjlib-i386-win32-vc14-release:sock_bsd.obj
 0002:0000d0cc       _PJ_IP_TOS                 0047b0cc     pjlib-i386-win32-vc14-release:sock_bsd.obj
 0002:0000d0d0       _PJ_IPTOS_LOWDELAY         0047b0d0     pjlib-i386-win32-vc14-release:sock_bsd.obj
 0002:0000d0d4       _PJ_IPTOS_THROUGHPUT       0047b0d4     pjlib-i386-win32-vc14-release:sock_bsd.obj
 0002:0000d0d8       _PJ_IPTOS_RELIABILITY      0047b0d8     pjlib-i386-win32-vc14-release:sock_bsd.obj
 0002:0000d0dc       _PJ_IPTOS_MINCOST          0047b0dc     pjlib-i386-win32-vc14-release:sock_bsd.obj
 0002:0000d0e0       _PJ_IPV6_TCLASS            0047b0e0     pjlib-i386-win32-vc14-release:sock_bsd.obj
 0002:0000d0e4       _PJ_SO_TYPE                0047b0e4     pjlib-i386-win32-vc14-release:sock_bsd.obj
 0002:0000d0e8       _PJ_SO_RCVBUF              0047b0e8     pjlib-i386-win32-vc14-release:sock_bsd.obj
 0002:0000d0ec       _PJ_SO_SNDBUF              0047b0ec     pjlib-i386-win32-vc14-release:sock_bsd.obj
 0002:0000d0f0       _PJ_TCP_NODELAY            0047b0f0     pjlib-i386-win32-vc14-release:sock_bsd.obj
 0002:0000d0f4       _PJ_SO_REUSEADDR           0047b0f4     pjlib-i386-win32-vc14-release:sock_bsd.obj
 0002:0000d0f8       _PJ_SO_NOSIGPIPE           0047b0f8     pjlib-i386-win32-vc14-release:sock_bsd.obj
 0002:0000d0fc       _PJ_SO_PRIORITY            0047b0fc     pjlib-i386-win32-vc14-release:sock_bsd.obj
 0002:0000d100       _PJ_IP_MULTICAST_IF        0047b100     pjlib-i386-win32-vc14-release:sock_bsd.obj
 0002:0000d104       _PJ_IP_MULTICAST_TTL       0047b104     pjlib-i386-win32-vc14-release:sock_bsd.obj
 0002:0000d108       _PJ_IP_MULTICAST_LOOP      0047b108     pjlib-i386-win32-vc14-release:sock_bsd.obj
 0002:0000d10c       _PJ_IP_ADD_MEMBERSHIP      0047b10c     pjlib-i386-win32-vc14-release:sock_bsd.obj
 0002:0000d110       _PJ_IP_DROP_MEMBERSHIP     0047b110     pjlib-i386-win32-vc14-release:sock_bsd.obj
 0002:0000d114       _PJ_MSG_OOB                0047b114     pjlib-i386-win32-vc14-release:sock_bsd.obj
 0002:0000d118       _PJ_MSG_PEEK               0047b118     pjlib-i386-win32-vc14-release:sock_bsd.obj
 0002:0000d11c       _PJ_MSG_DONTROUTE          0047b11c     pjlib-i386-win32-vc14-release:sock_bsd.obj
 0002:0000d120       ??_C@_0GF@IGHLODMD@e?3?2my_ended_projects?2client_ser@ 0047b120     pjlib-i386-win32-vc14-release:sock_bsd.obj
 0002:0000d188       ??_C@_0GI@GDFMBDIN@e?3?2my_ended_projects?2client_ser@ 0047b188     pjlib-i386-win32-vc14-release:sock_common.obj
 0002:0000d2b0       ??_C@_0BM@FLPPOGAG@Unknown?5Error?5?$CIPJ_EUNKNOWN?$CJ@ 0047b2b0     pjlib-i386-win32-vc14-release:errno.obj
 0002:0000d2cc       ??_C@_0CA@DCLOOJGD@Pending?5operation?5?$CIPJ_EPENDING?$CJ@ 0047b2cc     pjlib-i386-win32-vc14-release:errno.obj
 0002:0000d2ec       ??_C@_0CO@GABEOAFF@Too?5many?5connecting?5sockets?5?$CIPJ@ 0047b2ec     pjlib-i386-win32-vc14-release:errno.obj
 0002:0000d31c       ??_C@_0CG@CBCJBJGD@Invalid?5value?5or?5argument?5?$CIPJ_E@ 0047b31c     pjlib-i386-win32-vc14-release:errno.obj
 0002:0000d344       ??_C@_0CA@GJABNEKD@Name?5too?5long?5?$CIPJ_ENAMETOOLONG?$CJ@ 0047b344     pjlib-i386-win32-vc14-release:errno.obj
 0002:0000d364       ??_C@_0BJ@JNKLPII@Not?5found?5?$CIPJ_ENOTFOUND?$CJ@ 0047b364     pjlib-i386-win32-vc14-release:errno.obj
 0002:0000d380       ??_C@_0BO@GOLCMJKK@Not?5enough?5memory?5?$CIPJ_ENOMEM?$CJ@ 0047b380     pjlib-i386-win32-vc14-release:errno.obj
 0002:0000d3a0       ??_C@_0BI@HHGDCAID@BUG?5DETECTED?$CB?5?$CIPJ_EBUG?$CJ@ 0047b3a0     pjlib-i386-win32-vc14-release:errno.obj
 0002:0000d3b8       ??_C@_0CD@JOGIDHPJ@Operation?5timed?5out?5?$CIPJ_ETIMEDO@ 0047b3b8     pjlib-i386-win32-vc14-release:errno.obj
 0002:0000d3dc       ??_C@_0DF@MIFNAIHL@Too?5many?5objects?5of?5the?5specifi@ 0047b3dc     pjlib-i386-win32-vc14-release:errno.obj
 0002:0000d414       ??_C@_0BK@OMPILOH@Object?5is?5busy?5?$CIPJ_EBUSY?$CJ@ 0047b414     pjlib-i386-win32-vc14-release:errno.obj
 0002:0000d430       ??_C@_0CP@BAIBJOJE@Option?1operation?5is?5not?5support@ 0047b430     pjlib-i386-win32-vc14-release:errno.obj
 0002:0000d460       ??_C@_0CC@OEEEEEML@Invalid?5operation?5?$CIPJ_EINVALIDO@ 0047b460     pjlib-i386-win32-vc14-release:errno.obj
 0002:0000d484       ??_C@_0CE@KDDMJLGF@Operation?5cancelled?5?$CIPJ_ECANCEL@ 0047b484     pjlib-i386-win32-vc14-release:errno.obj
 0002:0000d4a8       ??_C@_0CD@LODOFNLC@Object?5already?5exists?5?$CIPJ_EEXIS@ 0047b4a8     pjlib-i386-win32-vc14-release:errno.obj
 0002:0000d4cc       ??_C@_0BG@GMBDFNLN@End?5of?5file?5?$CIPJ_EEOF?$CJ@ 0047b4cc     pjlib-i386-win32-vc14-release:errno.obj
 0002:0000d4e4       ??_C@_0BN@PCCNBFLN@Size?5is?5too?5big?5?$CIPJ_ETOOBIG?$CJ@ 0047b4e4     pjlib-i386-win32-vc14-release:errno.obj
 0002:0000d504       ??_C@_0DB@FDCHLEID@gethostbyname?$CI?$CJ?5has?5returned?5er@ 0047b504     pjlib-i386-win32-vc14-release:errno.obj
 0002:0000d538       ??_C@_0CB@MGGLJMNO@Size?5is?5too?5short?5?$CIPJ_ETOOSMALL@ 0047b538     pjlib-i386-win32-vc14-release:errno.obj
 0002:0000d55c       ??_C@_0BG@NBDJGAFI@Ignored?5?$CIPJ_EIGNORED?$CJ@ 0047b55c     pjlib-i386-win32-vc14-release:errno.obj
 0002:0000d574       ??_C@_0CH@OGOOBJBE@IPv6?5is?5not?5supported?5?$CIPJ_EIPV6@ 0047b574     pjlib-i386-win32-vc14-release:errno.obj
 0002:0000d59c       ??_C@_0CK@DJAHHNOI@Unsupported?5address?5family?5?$CIPJ_@ 0047b59c     pjlib-i386-win32-vc14-release:errno.obj
 0002:0000d5c8       ??_C@_0CD@PDGCJOJH@Object?5no?5longer?5exists?5?$CIPJ_EGO@ 0047b5c8     pjlib-i386-win32-vc14-release:errno.obj
 0002:0000d5ec       ??_C@_0CI@LBHALONI@Socket?5is?5in?5bad?5state?5?$CIPJ_ESOC@ 0047b5ec     pjlib-i386-win32-vc14-release:errno.obj
 0002:0000d614       ??_C@_0BH@ONDLFCEA@Unknown?5pjlib?5error?5?$CFd@ 0047b614     pjlib-i386-win32-vc14-release:errno.obj
 0002:0000d62c       ??_C@_07PBILKAFL@Success@  0047b62c     pjlib-i386-win32-vc14-release:errno.obj
 0002:0000d634       ??_C@_0BB@BIKLJNJD@Unknown?5error?5?$CFd@ 0047b634     pjlib-i386-win32-vc14-release:errno.obj
 0002:0000d648       ??_C@_05NAOIJFC@Error@     0047b648     pjlib-i386-win32-vc14-release:errno.obj
 0002:0000d650       ??_C@_06DJHOIPC@?$CFs?3?5?$CFs@ 0047b650     pjlib-i386-win32-vc14-release:errno.obj
 0002:0000d658       ??_C@_06DDFOEFIF@FATAL?3@  0047b658     pjlib-i386-win32-vc14-release:log.obj
 0002:0000d660       ??_C@_06PONDCDME@ERROR?3@  0047b660     pjlib-i386-win32-vc14-release:log.obj
 0002:0000d668       ??_C@_06OHJPOJDB@?5WARN?3@ 0047b668     pjlib-i386-win32-vc14-release:log.obj
 0002:0000d670       ??_C@_06ICKKLHPE@?5INFO?3@ 0047b670     pjlib-i386-win32-vc14-release:log.obj
 0002:0000d678       ??_C@_06DNOFLLB@DEBUG?3@   0047b678     pjlib-i386-win32-vc14-release:log.obj
 0002:0000d680       ??_C@_06ELIFFDKB@TRACE?3@  0047b680     pjlib-i386-win32-vc14-release:log.obj
 0002:0000d688       ??_C@_06HGKAKJPG@DETRC?3@  0047b688     pjlib-i386-win32-vc14-release:log.obj
 0002:0000d690       ??_C@_03KOEHGMDN@Sun@      0047b690     pjlib-i386-win32-vc14-release:log.obj
 0002:0000d694       ??_C@_03PDAGKDH@Mon@       0047b694     pjlib-i386-win32-vc14-release:log.obj
 0002:0000d698       ??_C@_03NAGEINEP@Tue@      0047b698     pjlib-i386-win32-vc14-release:log.obj
 0002:0000d69c       ??_C@_03MHOMLAJA@Wed@      0047b69c     pjlib-i386-win32-vc14-release:log.obj
 0002:0000d6a0       ??_C@_03IOFIKPDN@Thu@      0047b6a0     pjlib-i386-win32-vc14-release:log.obj
 0002:0000d6a4       ??_C@_03IDIOELNC@Fri@      0047b6a4     pjlib-i386-win32-vc14-release:log.obj
 0002:0000d6a8       ??_C@_03FEFJNEK@Sat@       0047b6a8     pjlib-i386-win32-vc14-release:log.obj
 0002:0000d6b0       ??_C@_0GA@BCNKPLFK@e?3?2my_ended_projects?2client_ser@ 0047b6b0     pjlib-i386-win32-vc14-release:log.obj
 0002:0000d710       ??_C@_0BO@BGMDCDKP@?$DMlogging?5error?3?5msg?5too?5long?$DO@ 0047b710     pjlib-i386-win32-vc14-release:log.obj
 0002:0000d730       ??_C@_0GD@KHBENJCN@e?3?2my_ended_projects?2client_ser@ 0047b730     pjlib-i386-win32-vc14-release:string.obj
 0002:0000d794       __real@00000000            0047b794     pjlib-i386-win32-vc14-release:string.obj
 0002:0000d798       __real@41200000            0047b798     pjlib-i386-win32-vc14-release:string.obj
 0002:0000d7a0       ??_C@_0GB@BMCNGJCL@e?3?2my_ended_projects?2client_ser@ 0047b7a0     pjlib-i386-win32-vc14-release:pool.obj
 0002:0000d808       ??_C@_0GJ@OFJCKNNJ@e?3?2my_ended_projects?2client_ser@ 0047b808     pjlib-i386-win32-vc14-release:pool_caching.obj
 0002:0000d874       ??_C@_0M@IGFPEOLJ@cachingpool@ 0047b874     pjlib-i386-win32-vc14-release:pool_caching.obj
 0002:0000d880       ??_C@_0DD@ECGDPCBA@Pool?5is?5not?5released?5by?5applica@ 0047b880     pjlib-i386-win32-vc14-release:pool_caching.obj
 0002:0000d8b4       ??_C@_0BH@BBPHJKOA@?5Dumping?5caching?5pool?3@ 0047b8b4     pjlib-i386-win32-vc14-release:pool_caching.obj
 0002:0000d8cc       ??_C@_08COPEICHG@cachpool@ 0047b8cc     pjlib-i386-win32-vc14-release:pool_caching.obj
 0002:0000d8d8       ??_C@_0CN@DOKPIIOH@?5?5?5Capacity?$DN?$CFu?0?5max_capacity?$DN?$CFu@ 0047b8d8     pjlib-i386-win32-vc14-release:pool_caching.obj
 0002:0000d908       ??_C@_0BM@IDLDGCC@?5?5Dumping?5all?5active?5pools?3@ 0047b908     pjlib-i386-win32-vc14-release:pool_caching.obj
 0002:0000d924       ??_C@_0CA@MMLIKIEG@?5?5?5?$CF16s?3?5?$CF8d?5of?5?$CF8d?5?$CI?$CFd?$CF?$CF?$CJ?5used@ 0047b924     pjlib-i386-win32-vc14-release:pool_caching.obj
 0002:0000d944       ??_C@_0CB@GKBJPDKG@?5?5Total?5?$CF9d?5of?5?$CF9d?5?$CI?$CFd?5?$CF?$CF?$CJ?5used@ 0047b944     pjlib-i386-win32-vc14-release:pool_caching.obj
 0002:0000daf8       ??_C@_0CD@FNMHLHMI@Interrupted?5system?5call?5?$CIWSAEIN@ 0047baf8     pjlib-i386-win32-vc14-release:os_error_win32.obj
 0002:0000db1c       ??_C@_0BL@OKPDNKLH@Bad?5file?5number?5?$CIWSAEBADF?$CJ@ 0047bb1c     pjlib-i386-win32-vc14-release:os_error_win32.obj
 0002:0000db38       ??_C@_0BO@BMBEEPBP@Permission?5denied?5?$CIWSAEACCES?$CJ@ 0047bb38     pjlib-i386-win32-vc14-release:os_error_win32.obj
 0002:0000db58       ??_C@_0BI@LAKHPJJ@Bad?5address?5?$CIWSAEFAULT?$CJ@ 0047bb58     pjlib-i386-win32-vc14-release:os_error_win32.obj
 0002:0000db70       ??_C@_0BN@FEIDINKH@Invalid?5argument?5?$CIWSAEINVAL?$CJ@ 0047bb70     pjlib-i386-win32-vc14-release:os_error_win32.obj
 0002:0000db90       ??_C@_0CC@HMKKNDGL@Too?5many?5open?5sockets?5?$CIWSAEMFIL@ 0047bb90     pjlib-i386-win32-vc14-release:os_error_win32.obj
 0002:0000dbb4       ??_C@_0CH@GCPPFMGM@Operation?5would?5block?5?$CIWSAEWOUL@ 0047bbb4     pjlib-i386-win32-vc14-release:os_error_win32.obj
 0002:0000dbdc       ??_C@_0CL@DKGHEPCD@Operation?5now?5in?5progress?5?$CIWSAE@ 0047bbdc     pjlib-i386-win32-vc14-release:os_error_win32.obj
 0002:0000dc08       ??_C@_0CM@BEMCBKDH@Operation?5already?5in?5progress?5?$CI@ 0047bc08     pjlib-i386-win32-vc14-release:os_error_win32.obj
 0002:0000dc34       ??_C@_0CN@PAFKDEBN@Socket?5operation?5on?5non?9socket?5@ 0047bc34     pjlib-i386-win32-vc14-release:os_error_win32.obj
 0002:0000dc64       ??_C@_0CP@HCDICECK@Destination?5address?5required?5?$CIW@ 0047bc64     pjlib-i386-win32-vc14-release:os_error_win32.obj
 0002:0000dc94       ??_C@_0BP@LNFPBFEK@Message?5too?5long?5?$CIWSAEMSGSIZE?$CJ@ 0047bc94     pjlib-i386-win32-vc14-release:os_error_win32.obj
 0002:0000dcb4       ??_C@_0CP@MMIMIEMF@Protocol?5wrong?5type?5for?5socket?5@ 0047bcb4     pjlib-i386-win32-vc14-release:os_error_win32.obj
 0002:0000dce4       ??_C@_0CF@HNFLHOHA@Bad?5protocol?5option?5?$CIWSAENOPROT@ 0047bce4     pjlib-i386-win32-vc14-release:os_error_win32.obj
 0002:0000dd0c       ??_C@_0CM@HPGHEHCE@Protocol?5not?5supported?5?$CIWSAEPRO@ 0047bd0c     pjlib-i386-win32-vc14-release:os_error_win32.obj
 0002:0000dd38       ??_C@_0CP@JLBNHCOL@Socket?5type?5not?5supported?5?$CIWSAE@ 0047bd38     pjlib-i386-win32-vc14-release:os_error_win32.obj
 0002:0000dd68       ??_C@_0DC@GJMFANID@Operation?5not?5supported?5on?5sock@ 0047bd68     pjlib-i386-win32-vc14-release:os_error_win32.obj
 0002:0000dd9c       ??_C@_0DA@GFNBENIG@Protocol?5family?5not?5supported?5?$CI@ 0047bd9c     pjlib-i386-win32-vc14-release:os_error_win32.obj
 0002:0000ddcc       ??_C@_0CP@MMKHGIFC@Address?5family?5not?5supported?5?$CIW@ 0047bdcc     pjlib-i386-win32-vc14-release:os_error_win32.obj
 0002:0000ddfc       ??_C@_0CH@OCKNFBKE@Address?5already?5in?5use?5?$CIWSAEADD@ 0047bdfc     pjlib-i386-win32-vc14-release:os_error_win32.obj
 0002:0000de24       ??_C@_0DC@FJJPJPOD@Can?8t?5assign?5requested?5address?5@ 0047be24     pjlib-i386-win32-vc14-release:os_error_win32.obj
 0002:0000de58       ??_C@_0BO@IICKDHLJ@Network?5is?5down?5?$CIWSAENETDOWN?$CJ@ 0047be58     pjlib-i386-win32-vc14-release:os_error_win32.obj
 0002:0000de78       ??_C@_0CI@NKJAACME@Network?5is?5unreachable?5?$CIWSAENET@ 0047be78     pjlib-i386-win32-vc14-release:os_error_win32.obj
 0002:0000dea0       ??_C@_0CE@LJEEEFEC@Net?5connection?5reset?5?$CIWSAENETRE@ 0047bea0     pjlib-i386-win32-vc14-release:os_error_win32.obj
 0002:0000dec4       ??_C@_0DD@PGDIHOBG@Software?5caused?5connection?5abor@ 0047bec4     pjlib-i386-win32-vc14-release:os_error_win32.obj
 0002:0000def8       ??_C@_0CJ@PJHCFAAN@Connection?5reset?5by?5peer?5?$CIWSAEC@ 0047bef8     pjlib-i386-win32-vc14-release:os_error_win32.obj
 0002:0000df24       ??_C@_0CH@EKNGIMKN@No?5buffer?5space?5available?5?$CIWSAE@ 0047bf24     pjlib-i386-win32-vc14-release:os_error_win32.obj
 0002:0000df4c       ??_C@_0CJ@JOPBNNOD@Socket?5is?5already?5connected?5?$CIWS@ 0047bf4c     pjlib-i386-win32-vc14-release:os_error_win32.obj
 0002:0000df78       ??_C@_0CG@CECDMHLL@Socket?5is?5not?5connected?5?$CIWSAENO@ 0047bf78     pjlib-i386-win32-vc14-release:os_error_win32.obj
 0002:0000dfa0       ??_C@_0DA@JGJMJPNM@Can?8t?5send?5after?5socket?5shutdow@ 0047bfa0     pjlib-i386-win32-vc14-release:os_error_win32.obj
 0002:0000dfd0       ??_C@_0DE@CAILNFFE@Too?5many?5references?0?5can?8t?5spli@ 0047bfd0     pjlib-i386-win32-vc14-release:os_error_win32.obj
 0002:0000e004       ??_C@_0CE@IIKHBGF@Connection?5timed?5out?5?$CIWSAETIMED@ 0047c004     pjlib-i386-win32-vc14-release:os_error_win32.obj
 0002:0000e028       ??_C@_0CF@JMKFBJH@Connection?5refused?5?$CIWSAECONNREF@ 0047c028     pjlib-i386-win32-vc14-release:os_error_win32.obj
 0002:0000e050       ??_C@_0CN@FCKBNFMB@Too?5many?5levels?5of?5symbolic?5lin@ 0047c050     pjlib-i386-win32-vc14-release:os_error_win32.obj
 0002:0000e080       ??_C@_0CF@MOFKOMBB@File?5name?5too?5long?5?$CIWSAENAMETOO@ 0047c080     pjlib-i386-win32-vc14-release:os_error_win32.obj
 0002:0000e0a8       ??_C@_0BM@NCJCEEDP@Host?5is?5down?5?$CIWSAEHOSTDOWN?$CJ@ 0047c0a8     pjlib-i386-win32-vc14-release:os_error_win32.obj
 0002:0000e0c4       ??_C@_0CD@ECJOJHBH@No?5route?5to?5host?5?$CIWSAEHOSTUNREA@ 0047c0c4     pjlib-i386-win32-vc14-release:os_error_win32.obj
 0002:0000e0e8       ??_C@_0CD@NEFLEHEG@Directory?5not?5empty?5?$CIWSAENOTEMP@ 0047c0e8     pjlib-i386-win32-vc14-release:os_error_win32.obj
 0002:0000e10c       ??_C@_0CB@GPCGLHOJ@Too?5many?5processes?5?$CIWSAEPROCLIM@ 0047c10c     pjlib-i386-win32-vc14-release:os_error_win32.obj
 0002:0000e130       ??_C@_0BL@IGHJMJKO@Too?5many?5users?5?$CIWSAEUSERS?$CJ@ 0047c130     pjlib-i386-win32-vc14-release:os_error_win32.obj
 0002:0000e14c       ??_C@_0CA@MIOFDKMA@Disc?5quota?5exceeded?5?$CIWSAEDQUOT?$CJ@ 0047c14c     pjlib-i386-win32-vc14-release:os_error_win32.obj
 0002:0000e16c       ??_C@_0CC@IMLIDHNH@Stale?5NFS?5file?5handle?5?$CIWSAESTAL@ 0047c16c     pjlib-i386-win32-vc14-release:os_error_win32.obj
 0002:0000e190       ??_C@_0CP@MLAFGPOA@Too?5many?5levels?5of?5remote?5in?5pa@ 0047c190     pjlib-i386-win32-vc14-release:os_error_win32.obj
 0002:0000e1c0       ??_C@_0CP@IBAEMKGH@Network?5system?5is?5unavailable?5?$CI@ 0047c1c0     pjlib-i386-win32-vc14-release:os_error_win32.obj
 0002:0000e1f0       ??_C@_0DC@BLAKHMMJ@Winsock?5version?5out?5of?5range?5?$CIW@ 0047c1f0     pjlib-i386-win32-vc14-release:os_error_win32.obj
 0002:0000e224       ??_C@_0CO@HPDHHDHA@WSAStartup?5not?5yet?5called?5?$CIWSAN@ 0047c224     pjlib-i386-win32-vc14-release:os_error_win32.obj
 0002:0000e254       ??_C@_0CL@GFDHEKLB@Graceful?5shutdown?5in?5progress?5?$CI@ 0047c254     pjlib-i386-win32-vc14-release:os_error_win32.obj
 0002:0000e280       ??_C@_0CD@OEALOMDH@Host?5not?5found?5?$CIWSAHOST_NOT_FOU@ 0047c280     pjlib-i386-win32-vc14-release:os_error_win32.obj
 0002:0000e2a4       ??_C@_0DB@KFPHELLI@No?5host?5data?5of?5that?5type?5was?5f@ 0047c2a4     pjlib-i386-win32-vc14-release:os_error_win32.obj
 0002:0000e2d8       ??_C@_0BE@JPHLLAEM@Win32?5error?5code?5?$CFu@ 0047c2d8     pjlib-i386-win32-vc14-release:os_error_win32.obj
 0002:0000e2ec       ??_C@_05LIJONKFG@ioq?$CFp@ 0047c2ec     pjlib-i386-win32-vc14-release:ioqueue_select.obj
 0002:0000e2f4       ??_C@_0CA@IMDCINDN@select?$CI?$CJ?5I?1O?5Queue?5created?5?$CI?$CFp?$CJ@ 0047c2f4     pjlib-i386-win32-vc14-release:ioqueue_select.obj
 0002:0000e314       ??_C@_05PHKAINEA@pjlib@    0047c314     pjlib-i386-win32-vc14-release:ioqueue_select.obj
 0002:0000e320       ??_C@_0GB@EJGMBICN@e?3?2my_ended_projects?2client_ser@ 0047c320     pjlib-i386-win32-vc14-release:rand.obj
 0002:0000e384       ??_C@_0CD@KFHCCJFN@?$CB?$CB?$CBFATAL?3?5unhandled?5exception?5?$CF@ 0047c384     pjlib-i386-win32-vc14-release:except.obj
 0002:0000e3a8       ??_C@_08PDFMOJIE@except?4c@ 0047c3a8     pjlib-i386-win32-vc14-release:except.obj
 0002:0000e3b4       ??_C@_0N@GJOLEKJC@?$DMInvalid?5ID?$DO@ 0047c3b4     pjlib-i386-win32-vc14-release:except.obj
 0002:0000e3c4       ??_C@_0N@LJPLLMIL@exception?5?$CFd@ 0047c3c4     pjlib-i386-win32-vc14-release:except.obj
 0002:0000e3d4       _PJ_GUID_STRING_LENGTH     0047c3d4     pjlib-i386-win32-vc14-release:guid_win32.obj
 0002:0000e3d8       ??_C@_0GH@JJENMMDP@e?3?2my_ended_projects?2client_ser@ 0047c3d8     pjlib-i386-win32-vc14-release:guid_win32.obj
 0002:0000e440       ??_C@_08DOCHLGNA@config?4c@ 0047c440     pjlib-i386-win32-vc14-release:config.obj
 0002:0000e44c       ??_C@_03LIMOPGJJ@2?49@     0047c44c     pjlib-i386-win32-vc14-release:config.obj
 0002:0000e450       ??_C@_0GO@PPMBLOMI@e?3?2my_ended_projects?2client_ser@ 0047c450     pjlib-i386-win32-vc14-release:log_writer_stdout.obj
 0002:0000e4c0       ??_C@_02DKCKIIND@?$CFs@    0047c4c0     pjlib-i386-win32-vc14-release:log_writer_stdout.obj
 0002:0000e4c8       ??_C@_0GP@GCEOBDNL@e?3?2my_ended_projects?2client_ser@ 0047c4c8     pjlib-i386-win32-vc14-release:pool_policy_malloc.obj
 0002:0000e538       ??_C@_0GC@NMIBFAJA@e?3?2my_ended_projects?2client_ser@ 0047c538     pjlib-i386-win32-vc14-release:types.obj
 0002:0000e5a0       __real@408f400000000000    0047c5a0     pjlib-i386-win32-vc14-release:os_timestamp_common.obj
 0002:0000e5a8       ??_C@_0GI@OOCMJOBH@e?3?2my_ended_projects?2client_ser@ 0047c5a8     pjlib-i386-win32-vc14-release:sock_select.obj
 0002:0000e610       __xmm@00000002000000020000000200000002 0047c610     libgsmcodec-i386-win32-vc14-release:lpc.obj
 0002:0000e620       __xmm@00000004000000040000000400000004 0047c620     libgsmcodec-i386-win32-vc14-release:lpc.obj
 0002:0000e630       __xmm@00000008000000080000000800000008 0047c630     libgsmcodec-i386-win32-vc14-release:lpc.obj
 0002:0000e640       __xmm@00004000000040000000400000004000 0047c640     libgsmcodec-i386-win32-vc14-release:lpc.obj
 0002:0000e650       __xmm@ffffbfffffffbfffffffbfffffffbfff 0047c650     libgsmcodec-i386-win32-vc14-release:lpc.obj
 0002:0000e660       __xmm@ffffffffffffffffffffffffffffffff 0047c660     libgsmcodec-i386-win32-vc14-release:lpc.obj
 0002:0000e770       __real@3e2aaaab            0047c770     libilbccodec-i386-win32-vc14-release:FrameClassify.obj
 0002:0000e774       __real@3eaaaaab            0047c774     libilbccodec-i386-win32-vc14-release:FrameClassify.obj
 0002:0000e778       __real@3f000000            0047c778     libilbccodec-i386-win32-vc14-release:FrameClassify.obj
 0002:0000e77c       __real@3f2aaaab            0047c77c     libilbccodec-i386-win32-vc14-release:FrameClassify.obj
 0002:0000e780       __real@3f555555            0047c780     libilbccodec-i386-win32-vc14-release:FrameClassify.obj
 0002:0000e790       __xmm@3f6666663f8000003f6666663f4ccccd 0047c790     libilbccodec-i386-win32-vc14-release:FrameClassify.obj
 0002:0000e7a0       __real@4024000000000000    0047c7a0     libilbccodec-i386-win32-vc14-release:StateSearchW.obj
 0002:0000e7a8       __real@40900000            0047c7a8     libilbccodec-i386-win32-vc14-release:StateSearchW.obj
 0002:0000e7b0       __xmm@7fffffffffffffff7fffffffffffffff 0047c7b0     libilbccodec-i386-win32-vc14-release:StateSearchW.obj
 0002:0000e7c0       __real@25800000            0047c7c0     libilbccodec-i386-win32-vc14-release:iCBSearch.obj
 0002:0000e7c4       __real@3fa66666            0047c7c4     libilbccodec-i386-win32-vc14-release:iCBSearch.obj
 0002:0000e7c8       __real@3ff4ccccc0000000    0047c7c8     libilbccodec-i386-win32-vc14-release:iCBSearch.obj
 0002:0000e7d0       __real@cb189680            0047c7d0     libilbccodec-i386-win32-vc14-release:iCBSearch.obj
 0002:0000e7d8       _ULP_20msTbl               0047c7d8     libilbccodec-i386-win32-vc14-release:constants.obj
 0002:0000ebe8       _ULP_30msTbl               0047cbe8     libilbccodec-i386-win32-vc14-release:constants.obj
 0002:0000eff8       __real@3e999999            0047cff8     libilbccodec-i386-win32-vc14-release:doCPLC.obj
 0002:0000effc       __real@3ecccccd            0047cffc     libilbccodec-i386-win32-vc14-release:doCPLC.obj
 0002:0000f000       __real@3f333333            0047d000     libilbccodec-i386-win32-vc14-release:doCPLC.obj
 0002:0000f004       __real@3f666666            0047d004     libilbccodec-i386-win32-vc14-release:doCPLC.obj
 0002:0000f008       __real@3f733333            0047d008     libilbccodec-i386-win32-vc14-release:doCPLC.obj
 0002:0000f010       __real@403e000000000000    0047d010     libilbccodec-i386-win32-vc14-release:doCPLC.obj
 0002:0000f018       __real@7cf0bdc2            0047d018     libilbccodec-i386-win32-vc14-release:helpfun.obj
 0002:0000f020       __xmm@80000000800000008000000080000000 0047d020     libilbccodec-i386-win32-vc14-release:helpfun.obj
 0002:0000f030       __real@3e800000            0047d030     libilbccodec-i386-win32-vc14-release:enhancer.obj
 0002:0000f038       __real@3f1a36e2eb1c432d    0047d038     libilbccodec-i386-win32-vc14-release:enhancer.obj
 0002:0000f040       __real@40000000            0047d040     libilbccodec-i386-win32-vc14-release:enhancer.obj
 0002:0000f044       __real@40c90fdb            0047d044     libilbccodec-i386-win32-vc14-release:enhancer.obj
 0002:0000f048       __real@42200000            0047d048     libilbccodec-i386-win32-vc14-release:enhancer.obj
 0002:0000f04c       __real@42a40000            0047d04c     libilbccodec-i386-win32-vc14-release:enhancer.obj
 0002:0000f050       __real@bf000000            0047d050     libilbccodec-i386-win32-vc14-release:enhancer.obj
 0002:0000f060       __xmm@0000000a0000000a0000000a0000000a 0047d060     libilbccodec-i386-win32-vc14-release:enhancer.obj
 0002:0000f070       __xmm@3f0000003f0000003f0000003f000000 0047d070     libilbccodec-i386-win32-vc14-release:enhancer.obj
 0002:0000f080       __xmm@3f8000003f8000003f8000003f800000 0047d080     libilbccodec-i386-win32-vc14-release:enhancer.obj
 0002:0000f090       __xmm@40000000400000004000000040000000 0047d090     libilbccodec-i386-win32-vc14-release:enhancer.obj
 0002:0000f0a0       __xmm@40c90fdb40c90fdb40c90fdb40c90fdb 0047d0a0     libilbccodec-i386-win32-vc14-release:enhancer.obj
 0002:0000f0b0       __xmm@41200000412000004120000041200000 0047d0b0     libilbccodec-i386-win32-vc14-release:enhancer.obj
 0002:0000f0c0       __real@3cb43958            0047d0c0     libilbccodec-i386-win32-vc14-release:lsf.obj
 0002:0000f0c4       __real@3eff7cee            0047d0c4     libilbccodec-i386-win32-vc14-release:lsf.obj
 0002:0000f0c8       __real@41100000            0047d0c8     libilbccodec-i386-win32-vc14-release:lsf.obj
 0002:0000f0cc       __real@bf800000            0047d0cc     libilbccodec-i386-win32-vc14-release:lsf.obj
 0002:0000f0d0       __real@fcf0bdc2            0047d0d0     libilbccodec-i386-win32-vc14-release:lsf.obj
 0002:0000f0e0       __xmm@3a5013a93ad013a93b5013a93bd013a9 0047d0e0     libilbccodec-i386-win32-vc14-release:lsf.obj
 0002:0000f0f0       __xmm@3e22f9833e22f9833e22f9833e22f983 0047d0f0     libilbccodec-i386-win32-vc14-release:lsf.obj
 0002:0000f100       __real@3dcccccd            0047d100     libilbccodec-i386-win32-vc14-release:gainquant.obj
 0002:0000f108       __real@3fb999999999999a    0047d108     libilbccodec-i386-win32-vc14-release:gainquant.obj
 0002:0000f110       __real@4b189680            0047d110     libilbccodec-i386-win32-vc14-release:gainquant.obj
 0002:0000f114       __real@3e4ccccd            0047d114     libilbccodec-i386-win32-vc14-release:createCB.obj
 0002:0000f410       _speex_nb_mode             0047d410     libspeex-i386-win32-vc14-release:modes.obj
 0002:0000f444       ??_C@_0L@NALGBMGK@narrowband@ 0047d444     libspeex-i386-win32-vc14-release:modes.obj
 0002:0000f450       ??_C@_0BC@FNCFDNHJ@notification?3?5?$CFs?6@ 0047d450     libspeex-i386-win32-vc14-release:bits.obj
 0002:0000f464       ??_C@_0CH@JHNNOEKH@Packet?5is?5larger?5than?5allocated@ 0047d464     libspeex-i386-win32-vc14-release:bits.obj
 0002:0000f48c       ??_C@_0DA@MPJMFLGI@Could?5not?5resize?5input?5buffer?3?5@ 0047d48c     libspeex-i386-win32-vc14-release:bits.obj
 0002:0000f4bc       ??_C@_0M@FDFEAFGN@warning?3?5?$CFs@ 0047d4bc     libspeex-i386-win32-vc14-release:bits.obj
 0002:0000f4c8       ??_C@_0DD@HLOIJDCP@Do?5not?5own?5input?5buffer?3?5trunca@ 0047d4c8     libspeex-i386-win32-vc14-release:bits.obj
 0002:0000f4fc       ??_C@_0BO@DBLCIOHH@Buffer?5too?5small?5to?5pack?5bits@ 0047d4fc     libspeex-i386-win32-vc14-release:bits.obj
 0002:0000f51c       ??_C@_0CL@NBHNDCMK@Could?5not?5resize?5input?5buffer?3?5@ 0047d51c     libspeex-i386-win32-vc14-release:bits.obj
 0002:0000f548       ??_C@_0CF@BOBDAKDJ@Do?5not?5own?5input?5buffer?3?5not?5pa@ 0047d548     libspeex-i386-win32-vc14-release:bits.obj
 0002:0000f570       ??_C@_0CA@ELGIOMID@Unknown?5nb_mode_query?5request?3?5@ 0047d570     libspeex-i386-win32-vc14-release:speex.obj
 0002:0000f590       ??_C@_0BA@JHIGFAJK@warning?3?5?$CFs?3?5?$CFd@ 0047d590     libspeex-i386-win32-vc14-release:speex.obj
 0002:0000f5a0       ??_C@_0CA@GHCLMKCH@Unknown?5wb_mode_query?5request?3?5@ 0047d5a0     libspeex-i386-win32-vc14-release:speex.obj
 0002:0000f5c0       __real@46fffe00            0047d5c0     libspeex-i386-win32-vc14-release:speex.obj
 0002:0000f5c4       __real@c7000000            0047d5c4     libspeex-i386-win32-vc14-release:speex.obj
 0002:0000f774       _speex_wb_mode             0047d774     libspeex-i386-win32-vc14-release:modes_wb.obj
 0002:0000f84c       _speex_uwb_mode            0047d84c     libspeex-i386-win32-vc14-release:modes_wb.obj
 0002:0000f880       _speex_mode_list           0047d880     libspeex-i386-win32-vc14-release:modes_wb.obj
 0002:0000f88c       ??_C@_0BJ@NCPFBLIG@wideband?5?$CIsub?9band?5CELP?$CJ@ 0047d88c     libspeex-i386-win32-vc14-release:modes_wb.obj
 0002:0000f8a8       ??_C@_0BP@OEPNAOAL@ultra?9wideband?5?$CIsub?9band?5CELP?$CJ@ 0047d8a8     libspeex-i386-win32-vc14-release:modes_wb.obj
 0002:0000f8c8       _gain_cdbk_nb              0047d8c8     libspeex-i386-win32-vc14-release:gain_table.obj
 0002:0000fac8       _gain_cdbk_lbr             0047dac8     libspeex-i386-win32-vc14-release:gain_table_lbr.obj
 0002:0000fb48       _exc_5_256_table           0047db48     libspeex-i386-win32-vc14-release:exc_5_256_table.obj
 0002:00010048       _exc_5_64_table            0047e048     libspeex-i386-win32-vc14-release:exc_5_64_table.obj
 0002:00010188       _exc_8_128_table           0047e188     libspeex-i386-win32-vc14-release:exc_8_128_table.obj
 0002:00010588       _exc_10_32_table           0047e588     libspeex-i386-win32-vc14-release:exc_10_32_table.obj
 0002:000106c8       _exc_10_16_table           0047e6c8     libspeex-i386-win32-vc14-release:exc_10_16_table.obj
 0002:00010768       _exc_20_32_table           0047e768     libspeex-i386-win32-vc14-release:exc_20_32_table.obj
 0002:000109e8       __real@3f7d70a4            0047e9e8     libspeex-i386-win32-vc14-release:ltp.obj
 0002:000109f0       __real@3f90000000000000    0047e9f0     libspeex-i386-win32-vc14-release:ltp.obj
 0002:000109f8       __real@3f947ae147ae147b    0047e9f8     libspeex-i386-win32-vc14-release:ltp.obj
 0002:00010a00       __real@3fa0000000000000    0047ea00     libspeex-i386-win32-vc14-release:ltp.obj
 0002:00010a08       __real@3fee666666666666    0047ea08     libspeex-i386-win32-vc14-release:ltp.obj
 0002:00010a10       __real@3fefae147ae147ae    0047ea10     libspeex-i386-win32-vc14-release:ltp.obj
 0002:00010a18       __real@41f80000            0047ea18     libspeex-i386-win32-vc14-release:ltp.obj
 0002:00010a1c       __real@42000000            0047ea1c     libspeex-i386-win32-vc14-release:ltp.obj
 0002:00010a20       __real@42800000            0047ea20     libspeex-i386-win32-vc14-release:ltp.obj
 0002:00010a24       __real@43000000            0047ea24     libspeex-i386-win32-vc14-release:ltp.obj
 0002:00010a28       __real@44800000            0047ea28     libspeex-i386-win32-vc14-release:ltp.obj
 0002:00010a2c       __real@48800000            0047ea2c     libspeex-i386-win32-vc14-release:ltp.obj
 0002:00010a30       __real@bfe0000000000000    0047ea30     libspeex-i386-win32-vc14-release:ltp.obj
 0002:00010a38       __real@d8635fa9            0047ea38     libspeex-i386-win32-vc14-release:ltp.obj
 0002:00010a40       __real@3f4ffffaa19c4774    0047ea40     libspeex-i386-win32-vc14-release:quant_lsp.obj
 0002:00010a48       __real@3f5fffe5280d6543    0047ea48     libspeex-i386-win32-vc14-release:quant_lsp.obj
 0002:00010a50       __real@3f6fffe5280d6543    0047ea50     libspeex-i386-win32-vc14-release:quant_lsp.obj
 0002:00010a58       __real@3fa47ae147ae147b    0047ea58     libspeex-i386-win32-vc14-release:quant_lsp.obj
 0002:00010a60       __real@3fd0000000000000    0047ea60     libspeex-i386-win32-vc14-release:quant_lsp.obj
 0002:00010a68       __real@3fd4000000000000    0047ea68     libspeex-i386-win32-vc14-release:quant_lsp.obj
 0002:00010a70       __real@3fe8000000000000    0047ea70     libspeex-i386-win32-vc14-release:quant_lsp.obj
 0002:00010a78       __real@400921fb54442d18    0047ea78     libspeex-i386-win32-vc14-release:quant_lsp.obj
 0002:00010a80       __real@4070000000000000    0047ea80     libspeex-i386-win32-vc14-release:quant_lsp.obj
 0002:00010a88       __real@58635fa9            0047ea88     libspeex-i386-win32-vc14-release:quant_lsp.obj
 0002:00010a90       __xmm@3f4ffffaa19c47743f4ffffaa19c4774 0047ea90     libspeex-i386-win32-vc14-release:quant_lsp.obj
 0002:00010aa0       __xmm@3f5fffe5280d65433f5fffe5280d6543 0047eaa0     libspeex-i386-win32-vc14-release:quant_lsp.obj
 0002:00010ab0       __xmm@3fd00000000000003fd0000000000000 0047eab0     libspeex-i386-win32-vc14-release:quant_lsp.obj
 0002:00010ac0       __xmm@3fd40000000000003fd4000000000000 0047eac0     libspeex-i386-win32-vc14-release:quant_lsp.obj
 0002:00010ad0       __xmm@3fe80000000000003fe8000000000000 0047ead0     libspeex-i386-win32-vc14-release:quant_lsp.obj
 0002:00010ae0       __xmm@40700000000000004070000000000000 0047eae0     libspeex-i386-win32-vc14-release:quant_lsp.obj
 0002:00010af0       __real@3d000000            0047eaf0     libspeex-i386-win32-vc14-release:cb_search.obj
 0002:00010af8       __real@400bb6ae7d566cf4    0047eaf8     libspeex-i386-win32-vc14-release:cb_search.obj
 0002:00010b00       __xmm@00000001000000010000000100000001 0047eb00     libspeex-i386-win32-vc14-release:cb_search.obj
 0002:00010b10       _exc_gain_quant_scal3_bound 0047eb10     libspeex-i386-win32-vc14-release:nb_celp.obj
 0002:00010b2c       _exc_gain_quant_scal3      0047eb2c     libspeex-i386-win32-vc14-release:nb_celp.obj
 0002:00010b4c       _exc_gain_quant_scal1_bound 0047eb4c     libspeex-i386-win32-vc14-release:nb_celp.obj
 0002:00010b50       _exc_gain_quant_scal1      0047eb50     libspeex-i386-win32-vc14-release:nb_celp.obj
 0002:00010b58       _attenuation               0047eb58     libspeex-i386-win32-vc14-release:nb_celp.obj
 0002:00010ba0       ??_C@_0CL@OLCMCGJA@Fatal?5?$CIinternal?$CJ?5error?5in?5?$CFs?0?5l@ 0047eba0     libspeex-i386-win32-vc14-release:nb_celp.obj
 0002:00010bd0       ??_C@_0HC@LEJGOGMM@e?3?2my_ended_projects?2client_ser@ 0047ebd0     libspeex-i386-win32-vc14-release:nb_celp.obj
 0002:00010c48       ??_C@_0ED@BDOMFGAK@assertion?5failed?3?5st?9?$DOwindowSiz@ 0047ec48     libspeex-i386-win32-vc14-release:nb_celp.obj
 0002:00010c8c       ??_C@_0CF@KEPONAKN@assertion?5failed?3?5SUBMODE?$CIltp_q@ 0047ec8c     libspeex-i386-win32-vc14-release:nb_celp.obj
 0002:00010cb4       ??_C@_0CM@PGGHFKNH@assertion?5failed?3?5SUBMODE?$CIinnov@ 0047ecb4     libspeex-i386-win32-vc14-release:nb_celp.obj
 0002:00010ce0       ??_C@_0DD@IFFBIDOE@Invalid?5mode?5encountered?4?5The?5s@ 0047ece0     libspeex-i386-win32-vc14-release:nb_celp.obj
 0002:00010d14       ??_C@_0DO@OMOPNNBK@More?5than?5two?5wideband?5layers?5f@ 0047ed14     libspeex-i386-win32-vc14-release:nb_celp.obj
 0002:00010d54       ??_C@_0CH@FGPFIBHI@assertion?5failed?3?5SUBMODE?$CIltp_u@ 0047ed54     libspeex-i386-win32-vc14-release:nb_celp.obj
 0002:00010d7c       ??_C@_0CO@IOEICIKD@assertion?5failed?3?5SUBMODE?$CIinnov@ 0047ed7c     libspeex-i386-win32-vc14-release:nb_celp.obj
 0002:00010dac       ??_C@_0BJ@LJJDMLEK@Unknown?5nb_ctl?5request?3?5@ 0047edac     libspeex-i386-win32-vc14-release:nb_celp.obj
 0002:00010dc8       __real@26901d7d            0047edc8     libspeex-i386-win32-vc14-release:nb_celp.obj
 0002:00010dcc       __real@3d4ccccd            0047edcc     libspeex-i386-win32-vc14-release:nb_celp.obj
 0002:00010dd0       __real@3e19999a            0047edd0     libspeex-i386-win32-vc14-release:nb_celp.obj
 0002:00010dd4       __real@3e99999a            0047edd4     libspeex-i386-win32-vc14-release:nb_celp.obj
 0002:00010dd8       __real@3ee8ba1f            0047edd8     libspeex-i386-win32-vc14-release:nb_celp.obj
 0002:00010ddc       __real@3f4ccccd            0047eddc     libspeex-i386-win32-vc14-release:nb_celp.obj
 0002:00010de0       __real@3f59999a            0047ede0     libspeex-i386-win32-vc14-release:nb_celp.obj
 0002:00010de4       __real@3f8147ae            0047ede4     libspeex-i386-win32-vc14-release:nb_celp.obj
 0002:00010de8       __real@3fa999999999999a    0047ede8     libspeex-i386-win32-vc14-release:nb_celp.obj
 0002:00010df0       __real@3fb11116a8b8f14e    0047edf0     libspeex-i386-win32-vc14-release:nb_celp.obj
 0002:00010df8       __real@3fc00000            0047edf8     libspeex-i386-win32-vc14-release:nb_celp.obj
 0002:00010e00       __real@3fe3333333333333    0047ee00     libspeex-i386-win32-vc14-release:nb_celp.obj
 0002:00010e08       __real@3fe570a3d70a3d71    0047ee08     libspeex-i386-win32-vc14-release:nb_celp.obj
 0002:00010e10       __real@3fe999999999999a    0047ee10     libspeex-i386-win32-vc14-release:nb_celp.obj
 0002:00010e18       __real@3feb333333333333    0047ee18     libspeex-i386-win32-vc14-release:nb_celp.obj
 0002:00010e20       __real@3feccccccccccccd    0047ee20     libspeex-i386-win32-vc14-release:nb_celp.obj
 0002:00010e28       __real@3ff199999999999a    0047ee28     libspeex-i386-win32-vc14-release:nb_celp.obj
 0002:00010e30       __real@400c000000000000    0047ee30     libspeex-i386-win32-vc14-release:nb_celp.obj
 0002:00010e38       __real@400ccccd            0047ee38     libspeex-i386-win32-vc14-release:nb_celp.obj
 0002:00010e3c       __real@40490fdb            0047ee3c     libspeex-i386-win32-vc14-release:nb_celp.obj
 0002:00010e40       __real@41700000            0047ee40     libspeex-i386-win32-vc14-release:nb_celp.obj
 0002:00010e44       __real@42c80000            0047ee44     libspeex-i386-win32-vc14-release:nb_celp.obj
 0002:00010e48       __real@bd4ccccd            0047ee48     libspeex-i386-win32-vc14-release:nb_celp.obj
 0002:00010e50       __real@bee4f8b588e368f1    0047ee50     libspeex-i386-win32-vc14-release:nb_celp.obj
 0002:00010e58       __real@bfa999999999999a    0047ee58     libspeex-i386-win32-vc14-release:nb_celp.obj
 0002:00010e60       __real@bfc999999999999a    0047ee60     libspeex-i386-win32-vc14-release:nb_celp.obj
 0002:00010e68       __real@c00bb6ae7d566cf4    0047ee68     libspeex-i386-win32-vc14-release:nb_celp.obj
 0002:00010e70       _hexc_table                0047ee70     libspeex-i386-win32-vc14-release:hexc_table.obj
 0002:00011270       _hexc_10_32_table          0047f270     libspeex-i386-win32-vc14-release:hexc_10_32_table.obj
 0002:000113b0       _vbr_nb_thresh             0047f3b0     libspeex-i386-win32-vc14-release:vbr.obj
 0002:00011540       _vbr_hb_thresh             0047f540     libspeex-i386-win32-vc14-release:vbr.obj
 0002:00011620       _vbr_uhb_thresh            0047f620     libspeex-i386-win32-vc14-release:vbr.obj
 0002:00011678       __real@3faeb851eb851eb8    0047f678     libspeex-i386-win32-vc14-release:vbr.obj
 0002:00011680       __real@3fc999999999999a    0047f680     libspeex-i386-win32-vc14-release:vbr.obj
 0002:00011688       __real@3fd3333333333333    0047f688     libspeex-i386-win32-vc14-release:vbr.obj
 0002:00011690       __real@3fd999999999999a    0047f690     libspeex-i386-win32-vc14-release:vbr.obj
 0002:00011698       __real@3fe6666666666666    0047f698     libspeex-i386-win32-vc14-release:vbr.obj
 0002:000116a0       __real@3ff3333333333333    0047f6a0     libspeex-i386-win32-vc14-release:vbr.obj
 0002:000116a8       __real@3ff999999999999a    0047f6a8     libspeex-i386-win32-vc14-release:vbr.obj
 0002:000116b0       __real@400199999999999a    0047f6b0     libspeex-i386-win32-vc14-release:vbr.obj
 0002:000116b8       __real@4008000000000000    0047f6b8     libspeex-i386-win32-vc14-release:vbr.obj
 0002:000116c0       __real@401c000000000000    0047f6c0     libspeex-i386-win32-vc14-release:vbr.obj
 0002:000116c8       __real@40400000            0047f6c8     libspeex-i386-win32-vc14-release:vbr.obj
 0002:000116cc       __real@40800000            0047f6cc     libspeex-i386-win32-vc14-release:vbr.obj
 0002:000116d0       __real@40a00000            0047f6d0     libspeex-i386-win32-vc14-release:vbr.obj
 0002:000116d4       __real@40b33334            0047f6d4     libspeex-i386-win32-vc14-release:vbr.obj
 0002:000116d8       __real@40b7700000000000    0047f6d8     libspeex-i386-win32-vc14-release:vbr.obj
 0002:000116e0       __real@40c9999a            0047f6e0     libspeex-i386-win32-vc14-release:vbr.obj
 0002:000116e4       __real@40e00000            0047f6e4     libspeex-i386-win32-vc14-release:vbr.obj
 0002:000116e8       __real@40ed4c0000000000    0047f6e8     libspeex-i386-win32-vc14-release:vbr.obj
 0002:000116f0       __real@43160000            0047f6f0     libspeex-i386-win32-vc14-release:vbr.obj
 0002:000116f4       __real@453b8000            0047f6f4     libspeex-i386-win32-vc14-release:vbr.obj
 0002:000116f8       __real@45bb8000            0047f6f8     libspeex-i386-win32-vc14-release:vbr.obj
 0002:000116fc       __real@461c4000            0047f6fc     libspeex-i386-win32-vc14-release:vbr.obj
 0002:00011700       __real@46ea6000            0047f700     libspeex-i386-win32-vc14-release:vbr.obj
 0002:00011704       __real@476a6000            0047f704     libspeex-i386-win32-vc14-release:vbr.obj
 0002:00011708       __real@c0a00000            0047f708     libspeex-i386-win32-vc14-release:vbr.obj
 0002:000118d0       __real@3e000000            0047f8d0     libspeex-i386-win32-vc14-release:sb_celp.obj
 0002:000118d4       __real@3f350529            0047f8d4     libspeex-i386-win32-vc14-release:sb_celp.obj
 0002:000118d8       __real@3f847ae147ae147b    0047f8d8     libspeex-i386-win32-vc14-release:sb_celp.obj
 0002:000118e0       __real@3fb50481            0047f8e0     libspeex-i386-win32-vc14-release:sb_celp.obj
 0002:000118e8       __real@3febf487fcb923a3    0047f8e8     libspeex-i386-win32-vc14-release:sb_celp.obj
 0002:000118f0       __real@40200000            0047f8f0     libspeex-i386-win32-vc14-release:sb_celp.obj
 0002:000118f4       __real@bdcccccd            0047f8f4     libspeex-i386-win32-vc14-release:sb_celp.obj
 0002:000118f8       __real@bfb999999999999a    0047f8f8     libspeex-i386-win32-vc14-release:sb_celp.obj
 0002:00011900       __real@c0800000            0047f900     libspeex-i386-win32-vc14-release:sb_celp.obj
 0002:00011908       _shift_filt                0047f908     libspeex-i386-win32-vc14-release:filters.obj
 0002:00011960       __real@3fb1eb851eb851ec    0047f960     libspeex-i386-win32-vc14-release:filters.obj
 0002:00011968       __real@3ffb851eb851eb85    0047f968     libspeex-i386-win32-vc14-release:filters.obj
 0002:00011970       __real@447a0000            0047f970     libspeex-i386-win32-vc14-release:filters.obj
 0002:00011980       __xmm@3f76e6da3f74dfcebff4e0223f74dfce 0047f980     libspeex-i386-win32-vc14-release:filters.obj
 0002:00011990       __xmm@3f792b80bffc73043f8000003f6f7ee5 0047f990     libspeex-i386-win32-vc14-release:filters.obj
 0002:000119a0       __xmm@3f7c87fdbffc83ba3f7c87fd3f779c63 0047f9a0     libspeex-i386-win32-vc14-release:filters.obj
 0002:000119b0       __xmm@3f8000003f6a3c21bff4a2343f800000 0047f9b0     libspeex-i386-win32-vc14-release:filters.obj
 0002:000119c0       __xmm@bff778ff3f8000003f6e4303bff6a25e 0047f9c0     libspeex-i386-win32-vc14-release:filters.obj
 0002:000119d0       __xmm@bff79c0f3f779c633f76e6dabff6e297 0047f9d0     libspeex-i386-win32-vc14-release:filters.obj
 0002:000119e0       _cdbk_nb                   0047f9e0     libspeex-i386-win32-vc14-release:lsp_tables_nb.obj
 0002:00011c60       _cdbk_nb_low1              0047fc60     libspeex-i386-win32-vc14-release:lsp_tables_nb.obj
 0002:00011da0       _cdbk_nb_low2              0047fda0     libspeex-i386-win32-vc14-release:lsp_tables_nb.obj
 0002:00011ee0       _cdbk_nb_high1             0047fee0     libspeex-i386-win32-vc14-release:lsp_tables_nb.obj
 0002:00012020       _cdbk_nb_high2             00480020     libspeex-i386-win32-vc14-release:lsp_tables_nb.obj
 0002:00012160       _high_lsp_cdbk             00480160     libspeex-i386-win32-vc14-release:high_lsp_tables.obj
 0002:00012360       _high_lsp_cdbk2            00480360     libspeex-i386-win32-vc14-release:high_lsp_tables.obj
 0002:00012560       __real@3f689374bc6a7efa    00480560     libspeex-i386-win32-vc14-release:lpc.obj
 0002:00012568       __real@3aa69eb6            00480568     libspeex-i386-win32-vc14-release:lsp.obj
 0002:0001256c       __real@3d29ef0e            0048056c     libspeex-i386-win32-vc14-release:lsp.obj
 0002:00012570       __real@3efff486            00480570     libspeex-i386-win32-vc14-release:lsp.obj
 0002:00012574       __real@3f7fff90            00480574     libspeex-i386-win32-vc14-release:lsp.obj
 0002:00012578       __real@3ff921fb544486e0    00480578     libspeex-i386-win32-vc14-release:lsp.obj
 0002:00012580       _lag_window                00480580     libspeex-i386-win32-vc14-release:window.obj
 0002:000125b0       _lpc_window                004805b0     libspeex-i386-win32-vc14-release:window.obj
 0002:000128d0       ??_C@_04DKFOEDJA@srtp@     004808d0     libsrtp-i386-win32-vc14-release:srtp.obj
 0002:000128d8       ??_C@_0CD@KFGKPJOG@?$CFs?3?5cloning?5stream?5?$CISSRC?3?50x?$CF08@ 004808d8     libsrtp-i386-win32-vc14-release:srtp.obj
 0002:000128fc       ??_C@_0BG@DDGAJBGL@?$CFs?3?5srtp?5key?5len?3?5?$CFd?6@ 004808fc     libsrtp-i386-win32-vc14-release:srtp.obj
 0002:00012914       ??_C@_0BH@DGNFCKJN@?$CFs?3?5srtcp?5key?5len?3?5?$CFd?6@ 00480914     libsrtp-i386-win32-vc14-release:srtp.obj
 0002:0001292c       ??_C@_0BG@DMEGGANK@?$CFs?3?5base?5key?5len?3?5?$CFd?6@ 0048092c     libsrtp-i386-win32-vc14-release:srtp.obj
 0002:00012944       ??_C@_0BF@HLIACONN@?$CFs?3?5kdf?5key?5len?3?5?$CFd?6@ 00480944     libsrtp-i386-win32-vc14-release:srtp.obj
 0002:0001295c       ??_C@_0BG@BGKGMHMB@?$CFs?3?5rtp?5salt?5len?3?5?$CFd?6@ 0048095c     libsrtp-i386-win32-vc14-release:srtp.obj
 0002:00012974       ??_C@_0BE@PGOGLMMP@?$CFs?3?5cipher?5key?3?5?$CFs?6@ 00480974     libsrtp-i386-win32-vc14-release:srtp.obj
 0002:00012988       ??_C@_0CN@BDCDAMHJ@?$CFs?3?5found?5rtp_salt_len?5?$DO?50?0?5gen@ 00480988     libsrtp-i386-win32-vc14-release:srtp.obj
 0002:000129b8       ??_C@_0BF@GHNDNNEA@?$CFs?3?5cipher?5salt?3?5?$CFs?6@ 004809b8     libsrtp-i386-win32-vc14-release:srtp.obj
 0002:000129d0       ??_C@_0BP@LJKEDGBP@?$CFs?3?5extensions?5cipher?5key?3?5?$CFs?6@ 004809d0     libsrtp-i386-win32-vc14-release:srtp.obj
 0002:000129f0       ??_C@_0DF@NJKDAIDN@?$CFs?3?5found?5rtp_xtn_hdr_salt_len?5@ 004809f0     libsrtp-i386-win32-vc14-release:srtp.obj
 0002:00012a28       ??_C@_0CA@OBEPENBO@?$CFs?3?5extensions?5cipher?5salt?3?5?$CFs?6@ 00480a28     libsrtp-i386-win32-vc14-release:srtp.obj
 0002:00012a48       ??_C@_0BE@HGKFNAFC@?$CFs?3?5auth?5key?3?5?5?5?$CFs?6@ 00480a48     libsrtp-i386-win32-vc14-release:srtp.obj
 0002:00012a5c       ??_C@_0BH@KOPGGCNO@?$CFs?3?5rtcp?5salt?5len?3?5?$CFd?6@ 00480a5c     libsrtp-i386-win32-vc14-release:srtp.obj
 0002:00012a74       ??_C@_0DD@DNDBGLG@?$CFs?3?5found?5rtcp_salt_len?5?$DO?50?0?5ge@ 00480a74     libsrtp-i386-win32-vc14-release:srtp.obj
 0002:00012aa8       ??_C@_0BJ@KAKGCCMO@?$CFs?3?5rtcp?5cipher?5key?3?5?$CFs?6@ 00480aa8     libsrtp-i386-win32-vc14-release:srtp.obj
 0002:00012ac4       ??_C@_0BK@BAICKNEI@?$CFs?3?5rtcp?5cipher?5salt?3?5?$CFs?6@ 00480ac4     libsrtp-i386-win32-vc14-release:srtp.obj
 0002:00012ae0       ??_C@_0BJ@CAOFEOFD@?$CFs?3?5rtcp?5auth?5key?3?5?5?5?$CFs?6@ 00480ae0     libsrtp-i386-win32-vc14-release:srtp.obj
 0002:00012afc       ??_C@_0CI@PDNDGOMA@?$CFs?3?5initializing?5stream?5?$CISSRC?3?5@ 00480afc     libsrtp-i386-win32-vc14-release:srtp.obj
 0002:00012b24       ??_C@_0BH@GAKJJGLB@srtp?3?5in?5stream?50x?$CFx?3?5@ 00480b24     libsrtp-i386-win32-vc14-release:srtp.obj
 0002:00012b3c       ??_C@_0BB@PPFALDPP@?7SSRC?5collision?6@ 00480b3c     libsrtp-i386-win32-vc14-release:srtp.obj
 0002:00012b50       ??_C@_0BP@HOEKLBIN@?7key?5usage?5soft?5limit?5reached?6@ 00480b50     libsrtp-i386-win32-vc14-release:srtp.obj
 0002:00012b70       ??_C@_0BP@KNJIFCF@?7key?5usage?5hard?5limit?5reached?6@ 00480b70     libsrtp-i386-win32-vc14-release:srtp.obj
 0002:00012b90       ??_C@_0BN@MKCGGAOP@?7packet?5index?5limit?5reached?6@ 00480b90     libsrtp-i386-win32-vc14-release:srtp.obj
 0002:00012bb0       ??_C@_0CE@FFJEPPID@?7unknown?5event?5reported?5to?5hand@ 00480bb0     libsrtp-i386-win32-vc14-release:srtp.obj
 0002:00012bd4       ??_C@_0BN@IJKEFIPG@?$CFs?3?5Pre?9salted?5RTP?5IV?5?$DN?5?$CFs?6?6@ 00480bd4     libsrtp-i386-win32-vc14-release:srtp.obj
 0002:00012bf4       ??_C@_0BE@MNMIOELF@?$CFs?3?5RTP?5SALT?5?$DN?5?$CFs?6?6@ 00480bf4     libsrtp-i386-win32-vc14-release:srtp.obj
 0002:00012c08       ??_C@_0CH@MOHBLIMO@?$CFs?3?5estimated?5u_packet?5index?3?5?$CF@ 00480c08     libsrtp-i386-win32-vc14-release:srtp.obj
 0002:00012c30       ??_C@_0CA@OMJPHCHL@?$CFs?3?5function?5srtp_protect_aead?6@ 00480c30     libsrtp-i386-win32-vc14-release:srtp.obj
 0002:00012c50       ??_C@_0CF@PEPHCKJP@?$CFs?3?5estimated?5packet?5index?3?5?$CF01@ 00480c50     libsrtp-i386-win32-vc14-release:srtp.obj
 0002:00012c78       ??_C@_0CC@KIGABHOG@?$CFs?3?5function?5srtp_unprotect_aea@ 00480c78     libsrtp-i386-win32-vc14-release:srtp.obj
 0002:00012c9c       ??_C@_0BL@MADNODBC@?$CFs?3?5function?5srtp_protect?6@ 00480c9c     libsrtp-i386-win32-vc14-release:srtp.obj
 0002:00012cb8       ??_C@_0BK@KLBGMJPP@?$CFs?3?5keystream?5prefix?3?5?$CFs?6@ 00480cb8     libsrtp-i386-win32-vc14-release:srtp.obj
 0002:00012cd4       ??_C@_0BK@GCKOFNLP@?$CFs?3?5srtp?5auth?5tag?3?5?5?5?5?$CFs?6@ 00480cd4     libsrtp-i386-win32-vc14-release:srtp.obj
 0002:00012cf0       ??_C@_0BN@LADOAJPP@?$CFs?3?5function?5srtp_unprotect?6@ 00480cf0     libsrtp-i386-win32-vc14-release:srtp.obj
 0002:00012d10       ??_C@_0CN@PJAKIEAG@?$CFs?3?5using?5provisional?5stream?5?$CIS@ 00480d10     libsrtp-i386-win32-vc14-release:srtp.obj
 0002:00012d40       ??_C@_0BO@BONEKIBH@?$CFs?3?5computed?5auth?5tag?3?5?5?5?5?$CFs?6@ 00480d40     libsrtp-i386-win32-vc14-release:srtp.obj
 0002:00012d60       ??_C@_0BO@KMHOFFAA@?$CFs?3?5packet?5auth?5tag?3?5?5?5?5?5?5?$CFs?6@ 00480d60     libsrtp-i386-win32-vc14-release:srtp.obj
 0002:00012d80       ??_C@_0BO@ONKEAFKG@?$CFs?3?5Pre?9salted?5RTCP?5IV?5?$DN?5?$CFs?6?6@ 00480d80     libsrtp-i386-win32-vc14-release:srtp.obj
 0002:00012da0       ??_C@_0BF@FLPIMBMP@?$CFs?3?5RTCP?5SALT?5?$DN?5?$CFs?6?6@ 00480da0     libsrtp-i386-win32-vc14-release:srtp.obj
 0002:00012db8       ??_C@_0BF@JBCKCIAJ@?$CFs?3?5srtcp?5index?3?5?$CFx?6@ 00480db8     libsrtp-i386-win32-vc14-release:srtp.obj
 0002:00012dd0       ??_C@_0BL@OBHAKLEH@?$CFs?3?5srtcp?5auth?5tag?3?5?5?5?5?$CFs?6@ 00480dd0     libsrtp-i386-win32-vc14-release:srtp.obj
 0002:00012dec       ??_C@_0DD@HHOLLDKC@?$CFs?3?5srtcp?5using?5provisional?5str@ 00480dec     libsrtp-i386-win32-vc14-release:srtp.obj
 0002:00012e20       ??_C@_0CC@IMKDPKDI@?$CFs?3?5srtcp?5computed?5tag?3?5?5?5?5?5?5?5?$CF@ 00480e20     libsrtp-i386-win32-vc14-release:srtp.obj
 0002:00012e44       ??_C@_0CC@GFCANNPL@?$CFs?3?5srtcp?5tag?5from?5packet?3?5?5?5?5?$CF@ 00480e44     libsrtp-i386-win32-vc14-release:srtp.obj
 0002:00012e68       ??_C@_05KNPMOECN@alloc@    00480e68     libsrtp-i386-win32-vc14-release:alloc.obj
 0002:00012e70       ??_C@_0BO@KJOGHNGM@?$CFs?3?5?$CIlocation?3?5?$CFp?$CJ?5allocated?6@ 00480e70     libsrtp-i386-win32-vc14-release:alloc.obj
 0002:00012e90       ??_C@_0CN@JJLNACEJ@?$CFs?3?5allocation?5failed?5?$CIasked?5fo@ 00480e90     libsrtp-i386-win32-vc14-release:alloc.obj
 0002:00012ec0       ??_C@_0BK@BNKOPMHD@?$CFs?3?5?$CIlocation?3?5?$CFp?$CJ?5freed?6@ 00480ec0     libsrtp-i386-win32-vc14-release:alloc.obj
 0002:00012ee0       __xmm@66656463626139383736353433323130 00480ee0     libsrtp-i386-win32-vc14-release:datatypes.obj
 0002:00012ef0       ??_C@_07EFAIHJHH@libsrtp@  00480ef0     libsrtp-i386-win32-vc14-release:srtp_err.obj
 0002:00012ef8       ??_C@_06KDGDAFPH@cipher@   00480ef8     libsrtp-i386-win32-vc14-release:cipher.obj
 0002:00012f00       ??_C@_0CF@FLDNHEPF@?$CFs?3?5running?5self?9test?5for?5ciphe@ 00480f00     libsrtp-i386-win32-vc14-release:cipher.obj
 0002:00012f28       ??_C@_0BI@DMHBCEPE@?$CFs?3?5testing?5encryption?6@ 00480f28     libsrtp-i386-win32-vc14-release:cipher.obj
 0002:00012f40       ??_C@_0BG@IGPMAAHP@?$CFs?3?5plaintext?3?5?5?5?5?$CFs?6@ 00480f40     libsrtp-i386-win32-vc14-release:cipher.obj
 0002:00012f58       ??_C@_0P@EJHFDBDM@?$CFs?3?5IV?3?5?5?5?5?$CFs?6@ 00480f58     libsrtp-i386-win32-vc14-release:cipher.obj
 0002:00012f68       ??_C@_0BA@PIMALHJP@?$CFs?3?5AAD?3?5?5?5?5?$CFs?6@ 00480f68     libsrtp-i386-win32-vc14-release:cipher.obj
 0002:00012f78       ??_C@_0BG@LLNGMAPJ@?$CFs?3?5ciphertext?3?5?5?5?$CFs?6@ 00480f78     libsrtp-i386-win32-vc14-release:cipher.obj
 0002:00012f90       ??_C@_0BJ@ECBNBHJB@?$CFs?3?5test?5case?5?$CFd?5failed?6@ 00480f90     libsrtp-i386-win32-vc14-release:cipher.obj
 0002:00012fac       ??_C@_0BK@FFAGFACF@?$CFs?3?5?$CIfailure?5at?5byte?5?$CFd?$CJ?6@ 00480fac     libsrtp-i386-win32-vc14-release:cipher.obj
 0002:00012fc8       ??_C@_0BE@FJOCDNKP@?$CFs?3?5c?5computed?3?5?$CFs?6@ 00480fc8     libsrtp-i386-win32-vc14-release:cipher.obj
 0002:00012fdc       ??_C@_0BE@PPCKDKP@?$CFs?3?5c?5expected?3?5?$CFs?6@ 00480fdc     libsrtp-i386-win32-vc14-release:cipher.obj
 0002:00012ff0       ??_C@_0BI@IEPFOPNP@?$CFs?3?5testing?5decryption?6@ 00480ff0     libsrtp-i386-win32-vc14-release:cipher.obj
 0002:00013008       ??_C@_0BH@EDJDPICD@?$CFs?3?5ciphertext?3?5?5?5?5?$CFs?6@ 00481008     libsrtp-i386-win32-vc14-release:cipher.obj
 0002:00013020       ??_C@_0BF@GOBFCCEB@?$CFs?3?5plaintext?3?5?5?5?$CFs?6@ 00481020     libsrtp-i386-win32-vc14-release:cipher.obj
 0002:00013038       ??_C@_0BE@JGANLHMD@?$CFs?3?5p?5computed?3?5?$CFs?6@ 00481038     libsrtp-i386-win32-vc14-release:cipher.obj
 0002:0001304c       ??_C@_0BE@MABNCJMD@?$CFs?3?5p?5expected?3?5?$CFs?6@ 0048104c     libsrtp-i386-win32-vc14-release:cipher.obj
 0002:00013060       ??_C@_0CB@OOAIJLO@?$CFs?3?5random?5plaintext?5length?5?$CFd?6@ 00481060     libsrtp-i386-win32-vc14-release:cipher.obj
 0002:00013084       ??_C@_0BG@NMIIDDNI@?$CFs?3?5plaintext?$FL2?$FN?3?5?$CFs?6@ 00481084     libsrtp-i386-win32-vc14-release:cipher.obj
 0002:0001309c       ??_C@_0CA@EAJGEBOP@?$CFs?3?5random?5test?5case?5?$CFd?5failed?6@ 0048109c     libsrtp-i386-win32-vc14-release:cipher.obj
 0002:000130bc       ??_C@_09EJIBOKIO@auth?5func@ 004810bc     libsrtp-i386-win32-vc14-release:auth.obj
 0002:000130c8       ??_C@_0CM@DFOPKAOA@?$CFs?3?5running?5self?9test?5for?5auth?5@ 004810c8     libsrtp-i386-win32-vc14-release:auth.obj
 0002:000130f4       ??_C@_0N@OIMPEMMJ@?$CFs?3?5key?3?5?$CFs?6@ 004810f4     libsrtp-i386-win32-vc14-release:auth.obj
 0002:00013104       ??_C@_0O@NBGEFCOD@?$CFs?3?5data?3?5?$CFs?6@ 00481104     libsrtp-i386-win32-vc14-release:auth.obj
 0002:00013114       ??_C@_0BG@KCOPIALB@?$CFs?3?5tag?5computed?3?5?$CFs?6@ 00481114     libsrtp-i386-win32-vc14-release:auth.obj
 0002:0001312c       ??_C@_0BG@PEPPBOLB@?$CFs?3?5tag?5expected?3?5?$CFs?6@ 0048112c     libsrtp-i386-win32-vc14-release:auth.obj
 0002:00013144       ??_C@_0BO@CKPEGHKK@?$CFs?3?5?5?5?$CImismatch?5at?5octet?5?$CFd?$CJ?6@ 00481144     libsrtp-i386-win32-vc14-release:auth.obj
 0002:00013164       ??_C@_0O@MIKIJNFL@crypto?5kernel@ 00481164     libsrtp-i386-win32-vc14-release:crypto_kernel.obj
 0002:00013174       ??_C@_0M@FNOFIMGM@cipher?3?5?$CFs?6@ 00481174     libsrtp-i386-win32-vc14-release:crypto_kernel.obj
 0002:00013180       ??_C@_0O@CJBDENN@?5?5self?9test?3?5@ 00481180     libsrtp-i386-win32-vc14-release:crypto_kernel.obj
 0002:00013190       ??_C@_0BL@HPMBNDJK@failed?5with?5error?5code?5?$CFd?6@ 00481190     libsrtp-i386-win32-vc14-release:crypto_kernel.obj
 0002:000131ac       ??_C@_07JBEBJPGA@passed?6@ 004811ac     libsrtp-i386-win32-vc14-release:crypto_kernel.obj
 0002:000131b4       ??_C@_0P@CJMMEABE@auth?5func?3?5?$CFs?6@ 004811b4     libsrtp-i386-win32-vc14-release:crypto_kernel.obj
 0002:000131c4       ??_C@_0BH@NLMDBEPJ@debug?5modules?5loaded?3?6@ 004811c4     libsrtp-i386-win32-vc14-release:crypto_kernel.obj
 0002:000131dc       ??_C@_05NMIPNJMJ@?5?5?$CFs?5@ 004811dc     libsrtp-i386-win32-vc14-release:crypto_kernel.obj
 0002:000131e4       ??_C@_05KICKCMEO@?$CIon?$CJ?6@ 004811e4     libsrtp-i386-win32-vc14-release:crypto_kernel.obj
 0002:000131ec       ??_C@_06KCCPFFCC@?$CIoff?$CJ?6@ 004811ec     libsrtp-i386-win32-vc14-release:crypto_kernel.obj
 0002:000131f4       ??_C@_0CC@DLGHEHKN@?$CFs?3?5freeing?5memory?5for?5cipher?5?$CF@ 004811f4     libsrtp-i386-win32-vc14-release:crypto_kernel.obj
 0002:00013218       ??_C@_0CK@KGHAAPIM@?$CFs?3?5freeing?5memory?5for?5authenti@ 00481218     libsrtp-i386-win32-vc14-release:crypto_kernel.obj
 0002:00013244       ??_C@_0CI@MFBGGOG@?$CFs?3?5freeing?5memory?5for?5debug?5mo@ 00481244     libsrtp-i386-win32-vc14-release:crypto_kernel.obj
 0002:0001326c       ??_C@_0BE@ICAFLID@?$CFs?3?5EKT?5not?5in?5use?6@ 0048126c     libsrtp-i386-win32-vc14-release:ekt.obj
 0002:00013280       ??_C@_0BK@CMOOGLJH@?$CFs?3?5writing?5EKT?5EMK?3?5?$CFs?0?6@ 00481280     libsrtp-i386-win32-vc14-release:ekt.obj
 0002:0001329c       ??_C@_0BK@BEIPMCDF@?$CFs?3?5writing?5EKT?5ROC?3?5?$CFs?0?6@ 0048129c     libsrtp-i386-win32-vc14-release:ekt.obj
 0002:000132b8       ??_C@_0BK@BKDABMJO@?$CFs?3?5writing?5EKT?5ISN?3?5?$CFs?0?6@ 004812b8     libsrtp-i386-win32-vc14-release:ekt.obj
 0002:000132d4       ??_C@_0BK@BJPEDIGD@?$CFs?3?5writing?5EKT?5SPI?3?5?$CFs?0?6@ 004812d4     libsrtp-i386-win32-vc14-release:ekt.obj
 0002:000132f0       ??_C@_09LCMAEBCF@stat?5test@ 004812f0     libsrtp-i386-win32-vc14-release:stat.obj
 0002:000132fc       ??_C@_0CK@DAFEFAPH@?$CFs?3?5allocating?5cipher?5with?5key?5@ 004812fc     libsrtp-i386-win32-vc14-release:null_cipher.obj
 0002:00013328       ??_C@_0BO@HCJFKKEE@?$CFs?3?5initializing?5null?5cipher?6@ 00481328     libsrtp-i386-win32-vc14-release:null_cipher.obj
 0002:00013380       _srtp_null_cipher          00481380     libsrtp-i386-win32-vc14-release:null_cipher.obj
 0002:000133ac       ??_C@_07MPIJGLIA@aes?5icm@ 004813ac     libsrtp-i386-win32-vc14-release:aes_icm.obj
 0002:000133b4       _srtp_aes_icm_128          004813b4     libsrtp-i386-win32-vc14-release:aes_icm.obj
 0002:000133e0       _srtp_aes_icm_256          004813e0     libsrtp-i386-win32-vc14-release:aes_icm.obj
 0002:00013574       ??_C@_0O@GFBJNBAD@?$CFs?3?5key?3?5?5?$CFs?6@ 00481574     libsrtp-i386-win32-vc14-release:aes_icm.obj
 0002:00013584       ??_C@_0BA@ILFEGDEM@?$CFs?3?5offset?3?5?$CFs?6@ 00481584     libsrtp-i386-win32-vc14-release:aes_icm.obj
 0002:00013594       ??_C@_0BE@ECIFEEKH@?$CFs?3?5setting?5iv?3?5?$CFs?6@ 00481594     libsrtp-i386-win32-vc14-release:aes_icm.obj
 0002:000135a8       ??_C@_0BF@OAOEHNDM@?$CFs?3?5set_counter?3?5?$CFs?6@ 004815a8     libsrtp-i386-win32-vc14-release:aes_icm.obj
 0002:000135c0       ??_C@_0BE@ENJPOLAG@?$CFs?3?5counter?3?5?5?5?5?$CFs?6@ 004815c0     libsrtp-i386-win32-vc14-release:aes_icm.obj
 0002:000135d4       ??_C@_0BE@ILCAEFF@?$CFs?3?5ciphertext?3?5?$CFs?6@ 004815d4     libsrtp-i386-win32-vc14-release:aes_icm.obj
 0002:000135e8       ??_C@_0BF@BLBMMINO@?$CFs?3?5block?5index?3?5?$CFd?6@ 004815e8     libsrtp-i386-win32-vc14-release:aes_icm.obj
 0002:00013600       ??_C@_0CN@KBEHBKDH@?$CFs?3?5allocating?5auth?5func?5with?5k@ 00481600     libsrtp-i386-win32-vc14-release:null_auth.obj
 0002:00013630       ??_C@_0CN@FDNDBNFI@?$CFs?3?5?5?5?5?5?5?5?5?5?5?5?5?5?5?5?5?5?5?5?5?5?5?5?5?5?5?5t@ 00481630     libsrtp-i386-win32-vc14-release:null_auth.obj
 0002:0001369c       _srtp_null_auth            0048169c     libsrtp-i386-win32-vc14-release:null_auth.obj
 0002:000136c0       ??_C@_0L@NBBBLMAJ@hmac?5sha?91@ 004816c0     libsrtp-i386-win32-vc14-release:hmac.obj
 0002:000136cc       ??_C@_0O@PJECJPIJ@?$CFs?3?5ipad?3?5?$CFs?6@ 004816cc     libsrtp-i386-win32-vc14-release:hmac.obj
 0002:000136dc       ??_C@_0P@JHGAOEEF@?$CFs?3?5input?3?5?$CFs?6@ 004816dc     libsrtp-i386-win32-vc14-release:hmac.obj
 0002:000136ec       ??_C@_0BM@JABNBLDM@?$CFs?3?5intermediate?5state?3?5?$CFs?6@ 004816ec     libsrtp-i386-win32-vc14-release:hmac.obj
 0002:00013708       ??_C@_0BA@NKCNJNLN@?$CFs?3?5output?3?5?$CFs?6@ 00481708     libsrtp-i386-win32-vc14-release:hmac.obj
 0002:00013788       _srtp_hmac                 00481788     libsrtp-i386-win32-vc14-release:hmac.obj
 0002:000137b0       __xmm@36363636363636363636363636363636 004817b0     libsrtp-i386-win32-vc14-release:hmac.obj
 0002:000137c0       __xmm@5c5c5c5c5c5c5c5c5c5c5c5c5c5c5c5c 004817c0     libsrtp-i386-win32-vc14-release:hmac.obj
 0002:000159d0       ??_C@_05BPJLFPNI@sha?91@   004839d0     libsrtp-i386-win32-vc14-release:sha1.obj
 0002:000159d8       ??_C@_0CH@CIFCCFOE@?$CFs?3?5?$CIupdate?$CJ?5running?5srtp_sha1_@ 004839d8     libsrtp-i386-win32-vc14-release:sha1.obj
 0002:00015a00       ??_C@_0CL@FECLBICF@?$CFs?3?5?$CIupdate?$CJ?5not?5running?5srtp_s@ 00483a00     libsrtp-i386-win32-vc14-release:sha1.obj
 0002:00015a2c       ??_C@_0CG@BBEKCMGE@?$CFs?3?5?$CIfinal?$CJ?5running?5srtp_sha1_c@ 00483a2c     libsrtp-i386-win32-vc14-release:sha1.obj
 0002:00015a54       ??_C@_0CM@HEEFBAKO@?$CFs?3?5?$CIfinal?$CJ?5running?5srtp_sha1_c@ 00483a54     libsrtp-i386-win32-vc14-release:sha1.obj
 0002:00015bbc       __real@0da24260            00483bbc     opus:opus_encoder.obj
 0002:00015bc0       __real@31800000            00483bc0     opus:opus_encoder.obj
 0002:00015bc4       __real@38000000            00483bc4     opus:opus_encoder.obj
 0002:00015bc8       __real@38800000            00483bc8     opus:opus_encoder.obj
 0002:00015bcc       __real@3a51b717            00483bcc     opus:opus_encoder.obj
 0002:00015bd0       __real@3a800000            00483bd0     opus:opus_encoder.obj
 0002:00015bd4       __real@3ca3d70a            00483bd4     opus:opus_encoder.obj
 0002:00015bd8       __real@3f7fbe77            00483bd8     opus:opus_encoder.obj
 0002:00015be0       __real@3fe62e42fefa39ef    00483be0     opus:opus_encoder.obj
 0002:00015be8       __real@41400000            00483be8     opus:opus_encoder.obj
 0002:00015bec       __real@41a00000            00483bec     opus:opus_encoder.obj
 0002:00015bf0       __real@41c80000            00483bf0     opus:opus_encoder.obj
 0002:00015bf4       __real@439e1d71            00483bf4     opus:opus_encoder.obj
 0002:00015bf8       __real@47000000            00483bf8     opus:opus_encoder.obj
 0002:00015bfc       __real@470ca000            00483bfc     opus:opus_encoder.obj
 0002:00015c00       __real@477a0000            00483c00     opus:opus_encoder.obj
 0002:00015c04       __real@4e6e6b28            00483c04     opus:opus_encoder.obj
 0002:00015c08       __real@c0000000            00483c08     opus:opus_encoder.obj
 0002:00015c0c       __real@3a2a152d            00483c0c     opus:opus_decoder.obj
 0002:00015d58       __real@36500998            00483d58     opus:celt_encoder.obj
 0002:00015d5c       __real@38d1b717            00483d5c     opus:celt_encoder.obj
 0002:00015d60       __real@3a83126f            00483d60     opus:celt_encoder.obj
 0002:00015d64       __real@3bcb295f            00483d64     opus:celt_encoder.obj
 0002:00015d68       __real@3be21965            00483d68     opus:celt_encoder.obj
 0002:00015d6c       __real@3c800000            00483d6c     opus:celt_encoder.obj
 0002:00015d70       __real@3cfdf3b6            00483d70     opus:celt_encoder.obj
 0002:00015d74       __real@3d23d70a            00483d74     opus:celt_encoder.obj
 0002:00015d78       __real@3d343958            00483d78     opus:celt_encoder.obj
 0002:00015d7c       __real@3d800000            00483d7c     opus:celt_encoder.obj
 0002:00015d80       __real@3dc00000            00483d80     opus:celt_encoder.obj
 0002:00015d84       __real@3df5c28f            00483d84     opus:celt_encoder.obj
 0002:00015d88       __real@3eb33333            00483d88     opus:celt_encoder.obj
 0002:00015d8c       __real@3f0ccccd            00483d8c     opus:celt_encoder.obj
 0002:00015d90       __real@3f3504f7            00483d90     opus:celt_encoder.obj
 0002:00015d94       __real@3f400000            00483d94     opus:celt_encoder.obj
 0002:00015d98       __real@3f8020c5            00483d98     opus:celt_encoder.obj
 0002:00015da0       __real@3fc1cac083126e98    00483da0     opus:celt_encoder.obj
 0002:00015da8       __real@3fe947ae147ae148    00483da8     opus:celt_encoder.obj
 0002:00015db0       __real@3ff428f5c28f5c29    00483db0     opus:celt_encoder.obj
 0002:00015db8       __real@3ff71547652b82fe    00483db8     opus:celt_encoder.obj
 0002:00015dc0       __real@405fc00000000000    00483dc0     opus:celt_encoder.obj
 0002:00015dc8       __real@40c00000            00483dc8     opus:celt_encoder.obj
 0002:00015dcc       __real@41000000            00483dcc     opus:celt_encoder.obj
 0002:00015dd0       __real@412aaaab            00483dd0     opus:celt_encoder.obj
 0002:00015dd4       __real@42280000            00483dd4     opus:celt_encoder.obj
 0002:00015dd8       __real@43230000            00483dd8     opus:celt_encoder.obj
 0002:00015ddc       __real@43c80000            00483ddc     opus:celt_encoder.obj
 0002:00015de0       __real@47800000            00483de0     opus:celt_encoder.obj
 0002:00015de4       __real@bcfdf3b6            00483de4     opus:celt_encoder.obj
 0002:00015de8       __real@be800000            00483de8     opus:celt_encoder.obj
 0002:00015dec       __real@bf2b851f            00483dec     opus:celt_encoder.obj
 0002:00015df0       __real@bf99999a            00483df0     opus:celt_encoder.obj
 0002:00015df4       __real@bfc00000            00483df4     opus:celt_encoder.obj
 0002:00015df8       __real@c1200000            00483df8     opus:celt_encoder.obj
 0002:00015dfc       __real@c1e00000            00483dfc     opus:celt_encoder.obj
 0002:00015e00       __real@c1ff3333            00483e00     opus:celt_encoder.obj
 0002:00015e04       __real@c7800000            00483e04     opus:celt_encoder.obj
 0002:00016438       __real@1e3ce508            00484438     opus:analysis.obj
 0002:0001643c       __real@219392ef            0048443c     opus:analysis.obj
 0002:00016440       __real@2edbe6ff            00484440     opus:analysis.obj
 0002:00016444       __real@37800000            00484444     opus:analysis.obj
 0002:00016448       __real@3791a2b4            00484448     opus:analysis.obj
 0002:0001644c       __real@3a156c0d            0048444c     opus:analysis.obj
 0002:00016450       __real@3b449ba6            00484450     opus:analysis.obj
 0002:00016454       __real@3be38e39            00484454     opus:analysis.obj
 0002:00016458       __real@3c23d70a            00484458     opus:analysis.obj
 0002:0001645c       __real@3c75c28f            0048445c     opus:analysis.obj
 0002:00016460       __real@3cd203af9ee75616    00484460     opus:analysis.obj
 0002:00016468       __real@3cf5c28f            00484468     opus:analysis.obj
 0002:0001646c       __real@3d638e39            0048446c     opus:analysis.obj
 0002:00016470       __real@3d8b1ee2            00484470     opus:analysis.obj
 0002:00016474       __real@3d8dc11e            00484474     opus:analysis.obj
 0002:00016478       __real@3d8f5c29            00484478     opus:analysis.obj
 0002:0001647c       __real@3db00965            0048447c     opus:analysis.obj
 0002:00016480       __real@3de38e39            00484480     opus:analysis.obj
 0002:00016484       __real@3dfbe22e            00484484     opus:analysis.obj
 0002:00016488       __real@3e1a3ec0            00484488     opus:analysis.obj
 0002:0001648c       __real@3e1e6fb5            0048448c     opus:analysis.obj
 0002:00016490       __real@3e22f983            00484490     opus:analysis.obj
 0002:00016494       __real@3e88d64d            00484494     opus:analysis.obj
 0002:00016498       __real@3ea1e8e6            00484498     opus:analysis.obj
 0002:0001649c       __real@3edcf805            0048449c     opus:analysis.obj
 0002:000164a0       __real@3efbe0df            004844a0     opus:analysis.obj
 0002:000164a4       __real@3f08d64d            004844a4     opus:analysis.obj
 0002:000164a8       __real@3f1b80ff            004844a8     opus:analysis.obj
 0002:000164ac       __real@3f200000            004844ac     opus:analysis.obj
 0002:000164b0       __real@3f21e8e6            004844b0     opus:analysis.obj
 0002:000164b4       __real@3f2db121            004844b4     opus:analysis.obj
 0002:000164b8       __real@3f326a01            004844b8     opus:analysis.obj
 0002:000164bc       __real@3f38aa3b            004844bc     opus:analysis.obj
 0002:000164c0       __real@3f398234            004844c0     opus:analysis.obj
 0002:000164c4       __real@3f3e643d            004844c4     opus:analysis.obj
 0002:000164c8       __real@3f47ae14            004844c8     opus:analysis.obj
 0002:000164cc       __real@3f7ff972            004844cc     opus:analysis.obj
 0002:000164d0       __real@3fb7aace            004844d0     opus:analysis.obj
 0002:000164d4       __real@3fc90fdb            004844d4     opus:analysis.obj
 0002:000164d8       __real@401e000000000000    004844d8     opus:analysis.obj
 0002:000164e0       __real@41f00000            004844e0     opus:analysis.obj
 0002:000164e4       __real@43200000            004844e4     opus:analysis.obj
 0002:000164e8       __real@467385d1            004844e8     opus:analysis.obj
 0002:000164ec       __real@477385d1            004844ec     opus:analysis.obj
 0002:000164f0       __real@501502f9            004844f0     opus:analysis.obj
 0002:000164f4       __real@be4ccccd            004844f4     opus:analysis.obj
 0002:000164f8       __real@bfc90fdb            004844f8     opus:analysis.obj
 0002:000164fc       __real@d01502f9            004844fc     opus:analysis.obj
 0002:00016500       _XCORR_KERNEL_IMPL         00484500     opus:x86_celt_map.obj
 0002:00016520       _CELT_INNER_PROD_IMPL      00484520     opus:x86_celt_map.obj
 0002:00016540       _DUAL_INNER_PROD_IMPL      00484540     opus:x86_celt_map.obj
 0002:00016560       _COMB_FILTER_CONST_IMPL    00484560     opus:x86_celt_map.obj
 0002:00016580       _OP_PVQ_SEARCH_IMPL        00484580     opus:x86_celt_map.obj
 0002:000165b4       __real@388637be            004845b4     opus:celt_decoder.obj
 0002:000165b8       __real@3f800347            004845b8     opus:celt_decoder.obj
 0002:000165bc       __real@3f800002            004845bc     opus:opus.obj
 0002:000165c0       __real@bf800002            004845c0     opus:opus.obj
 0002:00019f88       _tf_select_table           00487f88     opus:celt.obj
 0002:00019fec       ??_C@_07IPNMCAN@success@   00487fec     opus:celt.obj
 0002:00019ff4       ??_C@_0BB@FCMFBGOM@invalid?5argument@ 00487ff4     opus:celt.obj
 0002:0001a008       ??_C@_0BB@CABJKBPN@buffer?5too?5small@ 00488008     opus:celt.obj
 0002:0001a01c       ??_C@_0P@LPIEGNHB@internal?5error@ 0048801c     opus:celt.obj
 0002:0001a02c       ??_C@_0BB@FNNNGDHK@corrupted?5stream@ 0048802c     opus:celt.obj
 0002:0001a040       ??_C@_0BI@FOBNHMGK@request?5not?5implemented@ 00488040     opus:celt.obj
 0002:0001a058       ??_C@_0O@ELPMPPOH@invalid?5state@ 00488058     opus:celt.obj
 0002:0001a068       ??_C@_0BJ@FDBIHNP@memory?5allocation?5failed@ 00488068     opus:celt.obj
 0002:0001a0c8       __real@179abe15            004880c8     opus:pitch.obj
 0002:0001a0cc       __real@3c03126f            004880cc     opus:pitch.obj
 0002:0001a0d0       __real@3c83126f            004880d0     opus:pitch.obj
 0002:0001a0d4       __real@3cc49ba6            004880d4     opus:pitch.obj
 0002:0001a0d8       __real@3d03126f            004880d8     opus:pitch.obj
 0002:0001a0dc       __real@3f27f62a            004880dc     opus:pitch.obj
 0002:0001a0e0       __real@3f3a9fbd            004880e0     opus:pitch.obj
 0002:0001a0e4       __real@3f4f5c28            004880e4     opus:pitch.obj
 0002:0001a1a8       __real@129e74d2            004881a8     opus:bands.obj
 0002:0001a1ac       __real@30800000            004881ac     opus:bands.obj
 0002:0001a1b0       __real@3a1d4952            004881b0     opus:bands.obj
 0002:0001a1b4       __real@3b800000            004881b4     opus:bands.obj
 0002:0001a1b8       __real@3f3504f3            004881b8     opus:bands.obj
 0002:0001a1bc       __real@3fb504f3            004881bc     opus:bands.obj
 0002:0001a1c0       __real@bb800000            004881c0     opus:bands.obj
 0002:0001a1c4       __real@be000000            004881c4     opus:bands.obj
 0002:0001a1c8       _eMeans                    004881c8     opus:quant_bands.obj
 0002:0001a3a0       __real@3e199800            004883a0     opus:quant_bands.obj
 0002:0001a3a4       __real@41800000            004883a4     opus:quant_bands.obj
 0002:0001a3a8       __real@43480000            004883a8     opus:quant_bands.obj
 0002:0001a3ac       __real@4f800000            004883ac     opus:quant_bands.obj
 0002:0001a3b0       __real@c1100000            004883b0     opus:quant_bands.obj
 0002:0001a3b4       __real@c1600000            004883b4     opus:quant_bands.obj
 0002:0001a3d8       __real@358637bd            004883d8     opus:encode_frame_FLP.obj
 0002:0001a3dc       _silk_lsb_iCDF             004883dc     opus:tables_other.obj
 0002:0001a3e0       _silk_uniform3_iCDF        004883e0     opus:tables_other.obj
 0002:0001a3e4       _silk_uniform4_iCDF        004883e4     opus:tables_other.obj
 0002:0001a3e8       _silk_uniform5_iCDF        004883e8     opus:tables_other.obj
 0002:0001a3f0       _silk_uniform6_iCDF        004883f0     opus:tables_other.obj
 0002:0001a3f8       _silk_uniform8_iCDF        004883f8     opus:tables_other.obj
 0002:0001a400       _silk_NLSF_EXT_iCDF        00488400     opus:tables_other.obj
 0002:0001a408       _silk_LTPscale_iCDF        00488408     opus:tables_other.obj
 0002:0001a40c       _silk_LTPScales_table_Q14  0048840c     opus:tables_other.obj
 0002:0001a414       _silk_type_offset_VAD_iCDF 00488414     opus:tables_other.obj
 0002:0001a418       _silk_type_offset_no_VAD_iCDF 00488418     opus:tables_other.obj
 0002:0001a41c       _silk_stereo_pred_quant_Q13 0048841c     opus:tables_other.obj
 0002:0001a43c       _silk_stereo_pred_joint_iCDF 0048843c     opus:tables_other.obj
 0002:0001a458       _silk_stereo_only_code_mid_iCDF 00488458     opus:tables_other.obj
 0002:0001a45c       _silk_LBRR_flags_iCDF_ptr  0048845c     opus:tables_other.obj
 0002:0001a464       _silk_NLSF_interpolation_factor_iCDF 00488464     opus:tables_other.obj
 0002:0001a46c       _silk_TargetRate_table_NB  0048846c     opus:tables_other.obj
 0002:0001a48c       _silk_TargetRate_table_MB  0048848c     opus:tables_other.obj
 0002:0001a4ac       _silk_TargetRate_table_WB  004884ac     opus:tables_other.obj
 0002:0001a4cc       _silk_SNR_table_Q1         004884cc     opus:tables_other.obj
 0002:0001a4dc       _silk_Quantization_Offsets_Q10 004884dc     opus:tables_other.obj
 0002:0001a4e4       _silk_Transition_LP_B_Q28  004884e4     opus:tables_other.obj
 0002:0001a520       _silk_Transition_LP_A_Q28  00488520     opus:tables_other.obj
 0002:0001a554       __real@bf3504f3            00488554     opus:kiss_fft.obj
 0002:0001a87c       __real@c1000000            0048887c     opus:mlp.obj
 0002:0001a880       _net                       00488880     opus:mlp_data.obj
 0002:0001afa0       __real@c2c80000            00488fa0     opus:vq_sse2.obj
 0002:0001afb0       __real@3f490fdb            00488fb0     opus:vq.obj
 0002:0001afb4       __real@4622f987            00488fb4     opus:vq.obj
 0002:0001afb8       _silk_Resampler_3_4_COEFS  00488fb8     opus:resampler_rom.obj
 0002:0001aff4       _silk_Resampler_2_3_COEFS  00488ff4     opus:resampler_rom.obj
 0002:0001b01c       _silk_Resampler_1_2_COEFS  0048901c     opus:resampler_rom.obj
 0002:0001b038       _silk_Resampler_1_3_COEFS  00489038     opus:resampler_rom.obj
 0002:0001b060       _silk_Resampler_1_4_COEFS  00489060     opus:resampler_rom.obj
 0002:0001b088       _silk_Resampler_1_6_COEFS  00489088     opus:resampler_rom.obj
 0002:0001b0b0       _silk_Resampler_2_3_COEFS_LQ 004890b0     opus:resampler_rom.obj
 0002:0001b0c0       _silk_resampler_frac_FIR_12 004890c0     opus:resampler_rom.obj
 0002:0001b120       _silk_pulses_per_block_iCDF 00489120     opus:tables_pulses_per_block.obj
 0002:0001b1d4       _silk_rate_levels_iCDF     004891d4     opus:tables_pulses_per_block.obj
 0002:0001b1e8       _silk_pulses_per_block_BITS_Q5 004891e8     opus:tables_pulses_per_block.obj
 0002:0001b28c       _silk_rate_levels_BITS_Q5  0048928c     opus:tables_pulses_per_block.obj
 0002:0001b2a0       _silk_max_pulses_table     004892a0     opus:tables_pulses_per_block.obj
 0002:0001b2a4       _silk_shell_code_table_offsets 004892a4     opus:tables_pulses_per_block.obj
 0002:0001b2b8       _silk_shell_code_table0    004892b8     opus:tables_pulses_per_block.obj
 0002:0001b350       _silk_shell_code_table1    00489350     opus:tables_pulses_per_block.obj
 0002:0001b3e8       _silk_shell_code_table2    004893e8     opus:tables_pulses_per_block.obj
 0002:0001b480       _silk_shell_code_table3    00489480     opus:tables_pulses_per_block.obj
 0002:0001b518       _silk_sign_iCDF            00489518     opus:tables_pulses_per_block.obj
 0002:0001b544       _silk_gain_iCDF            00489544     opus:tables_gain.obj
 0002:0001b55c       _silk_delta_gain_iCDF      0048955c     opus:tables_gain.obj
 0002:0001b588       _silk_pitch_lag_iCDF       00489588     opus:tables_pitch_lag.obj
 0002:0001b5a8       _silk_pitch_delta_iCDF     004895a8     opus:tables_pitch_lag.obj
 0002:0001b5c0       _silk_pitch_contour_iCDF   004895c0     opus:tables_pitch_lag.obj
 0002:0001b5e4       _silk_pitch_contour_NB_iCDF 004895e4     opus:tables_pitch_lag.obj
 0002:0001b5f0       _silk_pitch_contour_10_ms_iCDF 004895f0     opus:tables_pitch_lag.obj
 0002:0001b5fc       _silk_pitch_contour_10_ms_NB_iCDF 004895fc     opus:tables_pitch_lag.obj
 0002:0001b600       _silk_LTP_per_index_iCDF   00489600     opus:tables_LTP.obj
 0002:0001b604       _silk_LTP_gain_iCDF_ptrs   00489604     opus:tables_LTP.obj
 0002:0001b610       _silk_LTP_gain_BITS_Q5_ptrs 00489610     opus:tables_LTP.obj
 0002:0001b61c       _silk_LTP_vq_ptrs_Q7       0048961c     opus:tables_LTP.obj
 0002:0001b628       _silk_LTP_vq_gain_ptrs_Q7  00489628     opus:tables_LTP.obj
 0002:0001b634       _silk_LTP_vq_sizes         00489634     opus:tables_LTP.obj
 0002:0001b7f8       __real@34800000            004897f8     opus:noise_shape_analysis_FLP.obj
 0002:0001b7fc       __real@358637be            004897fc     opus:noise_shape_analysis_FLP.obj
 0002:0001b800       __real@37fba882            00489800     opus:noise_shape_analysis_FLP.obj
 0002:0001b804       __real@3a866666            00489804     opus:noise_shape_analysis_FLP.obj
 0002:0001b808       __real@3b4ccccd            00489808     opus:noise_shape_analysis_FLP.obj
 0002:0001b80c       __real@3c000000            0048980c     opus:noise_shape_analysis_FLP.obj
 0002:0001b810       __real@3f19999a            00489810     opus:noise_shape_analysis_FLP.obj
 0002:0001b814       __real@3f70a3d7            00489814     opus:noise_shape_analysis_FLP.obj
 0002:0001b818       __real@3fd47ae140000000    00489818     opus:noise_shape_analysis_FLP.obj
 0002:0001b820       __real@4000000000000000    00489820     opus:noise_shape_analysis_FLP.obj
 0002:0001b828       __real@400a934f0979a36c    00489828     opus:noise_shape_analysis_FLP.obj
 0002:0001b830       __real@407fef9e            00489830     opus:noise_shape_analysis_FLP.obj
 0002:0001b834       __real@be23d70a            00489834     opus:noise_shape_analysis_FLP.obj
 0002:0001b838       __real@364ccccd            00489838     opus:find_pitch_lags_FLP.obj
 0002:0001b83c       __real@39cccccd            0048983c     opus:find_pitch_lags_FLP.obj
 0002:0001b840       __real@3b83126f            00489840     opus:find_pitch_lags_FLP.obj
 0002:0001b844       __real@3a4ccccd            00489844     opus:process_gains_FLP.obj
 0002:0001b848       __real@3b28f5c3            00489848     opus:process_gains_FLP.obj
 0002:0001b84c       __real@3f99999a            0048984c     opus:process_gains_FLP.obj
 0002:0001b850       __real@40ddc290            00489850     opus:process_gains_FLP.obj
 0002:0001b854       __real@39800000            00489854     opus:wrappers_FLP.obj
 0002:0001b858       __real@45800000            00489858     opus:wrappers_FLP.obj
 0002:0001b85c       __real@46000000            0048985c     opus:wrappers_FLP.obj
 0002:0001b860       __real@46800000            00489860     opus:wrappers_FLP.obj
 0002:0001b864       __real@48000000            00489864     opus:wrappers_FLP.obj
 0002:0001b868       _SILK_VAD_GETSA_Q8_IMPL    00489868     opus:x86_silk_map.obj
 0002:0001b898       _silk_NLSF_CB_WB           00489898     opus:tables_NLSF_CB_WB.obj
 0002:0001c0d8       _silk_NLSF_CB_NB_MB        0048a0d8     opus:tables_NLSF_CB_NB_MB.obj
 0002:0001da88       __real@3e112e0be0000000    0048ba88     opus:schur_FLP.obj
 0002:0001da90       __real@3f50624dd2f1a9fc    0048ba90     opus:pitch_analysis_core_FLP.obj
 0002:0001da98       __real@4103880000000000    0048ba98     opus:pitch_analysis_core_FLP.obj
 0002:0001daa0       __real@c47a0000            0048baa0     opus:pitch_analysis_core_FLP.obj
 0002:0001daa4       __real@7f7fffff            0048baa4     opus:find_LPC_FLP.obj
 0002:0001db20       _silk_CB_lags_stage2       0048bb20     opus:pitch_est_tables.obj
 0002:0001db4c       _silk_nb_cbk_searchs_stage3 0048bb4c     opus:pitch_est_tables.obj
 0002:0001db50       _silk_CB_lags_stage3       0048bb50     opus:pitch_est_tables.obj
 0002:0001dbd8       _silk_Lag_range_stage3     0048bbd8     opus:pitch_est_tables.obj
 0002:0001dbf0       _silk_CB_lags_stage2_10_ms 0048bbf0     opus:pitch_est_tables.obj
 0002:0001dbf8       _silk_CB_lags_stage3_10_ms 0048bbf8     opus:pitch_est_tables.obj
 0002:0001dc10       _silk_Lag_range_stage3_10_ms 0048bc10     opus:pitch_est_tables.obj
 0002:0001dc18       __real@3ee4f8b580000000    0048bc18     opus:burg_modified_FLP.obj
 0002:0001dc20       __real@3ff0000a7c5ac000    0048bc20     opus:burg_modified_FLP.obj
 0002:0001dc28       __real@c000000000000000    0048bc28     opus:burg_modified_FLP.obj
 0002:0001dc30       _silk_LSFCosTab_FIX_Q12    0048bc30     opus:table_LSF_cos.obj
 0002:0001dd60       __load_config_used         0048bd60     MSVCRT:loadcfg.obj
 0002:0001de00       ___safe_se_handler_table   0048be00     <linker-defined>
 0002:0001e040       ___rtc_iaa                 0048c040     MSVCRT:initsect.obj
 0002:0001e044       ___rtc_izz                 0048c044     MSVCRT:initsect.obj
 0002:0001e048       ___rtc_taa                 0048c048     MSVCRT:initsect.obj
 0002:0001e04c       ___rtc_tzz                 0048c04c     MSVCRT:initsect.obj
 0002:0001e08c       __IMPORT_DESCRIPTOR_ole32  0048c08c     ole32:ole32.dll
 0002:0001e0a0       __IMPORT_DESCRIPTOR_WS2_32 0048c0a0     ws2_32:WS2_32.dll
 0002:0001e0b4       __IMPORT_DESCRIPTOR_WINMM  0048c0b4     winmm:WINMM.dll
 0002:0001e0c8       __IMPORT_DESCRIPTOR_KERNEL32 0048c0c8     kernel32:KERNEL32.dll
 0002:0001e0dc       __IMPORT_DESCRIPTOR_VCRUNTIME140 0048c0dc     vcruntime:VCRUNTIME140.dll
 0002:0001e0f0       __IMPORT_DESCRIPTOR_api-ms-win-crt-stdio-l1-1-0 0048c0f0     ucrt:api-ms-win-crt-stdio-l1-1-0.dll
 0002:0001e104       __IMPORT_DESCRIPTOR_api-ms-win-crt-runtime-l1-1-0 0048c104     ucrt:api-ms-win-crt-runtime-l1-1-0.dll
 0002:0001e118       __IMPORT_DESCRIPTOR_api-ms-win-crt-convert-l1-1-0 0048c118     ucrt:api-ms-win-crt-convert-l1-1-0.dll
 0002:0001e12c       __IMPORT_DESCRIPTOR_api-ms-win-crt-string-l1-1-0 0048c12c     ucrt:api-ms-win-crt-string-l1-1-0.dll
 0002:0001e140       __IMPORT_DESCRIPTOR_api-ms-win-crt-math-l1-1-0 0048c140     ucrt:api-ms-win-crt-math-l1-1-0.dll
 0002:0001e154       __IMPORT_DESCRIPTOR_api-ms-win-crt-utility-l1-1-0 0048c154     ucrt:api-ms-win-crt-utility-l1-1-0.dll
 0002:0001e168       __IMPORT_DESCRIPTOR_api-ms-win-crt-heap-l1-1-0 0048c168     ucrt:api-ms-win-crt-heap-l1-1-0.dll
 0002:0001e17c       __IMPORT_DESCRIPTOR_api-ms-win-crt-locale-l1-1-0 0048c17c     ucrt:api-ms-win-crt-locale-l1-1-0.dll
 0002:0001e190       __NULL_IMPORT_DESCRIPTOR   0048c190     ole32:ole32.dll
 0003:00001108       _pjmedia_add_rtpmap_for_static_pt 0048e108     pjmedia-i386-win32-vc14-release:endpoint.obj
 0003:0000110c       _pjmedia_add_bandwidth_tias_in_sdp 0048e10c     pjmedia-i386-win32-vc14-release:endpoint.obj
 0003:00001334       _pj_optind                 0048e334     pjlib-util-i386-win32-vc14-release:getopt.obj
 0003:00001338       _pj_optopt                 0048e338     pjlib-util-i386-win32-vc14-release:getopt.obj
 0003:00001440       _PJ_VERSION                0048e440     pjlib-i386-win32-vc14-release:config.obj
 0003:0000144c       _pj_pool_factory_default_policy 0048e44c     pjlib-i386-win32-vc14-release:pool_policy_malloc.obj
 0003:0000145c       _gsm_A                     0048e45c     libgsmcodec-i386-win32-vc14-release:table.obj
 0003:0000146c       _gsm_B                     0048e46c     libgsmcodec-i386-win32-vc14-release:table.obj
 0003:0000147c       _gsm_MIC                   0048e47c     libgsmcodec-i386-win32-vc14-release:table.obj
 0003:0000148c       _gsm_MAC                   0048e48c     libgsmcodec-i386-win32-vc14-release:table.obj
 0003:0000149c       _gsm_INVA                  0048e49c     libgsmcodec-i386-win32-vc14-release:table.obj
 0003:000014ac       _gsm_DLB                   0048e4ac     libgsmcodec-i386-win32-vc14-release:table.obj
 0003:000014b4       _gsm_QLB                   0048e4b4     libgsmcodec-i386-win32-vc14-release:table.obj
 0003:000014bc       _gsm_H                     0048e4bc     libgsmcodec-i386-win32-vc14-release:table.obj
 0003:000014d4       _gsm_NRFAC                 0048e4d4     libgsmcodec-i386-win32-vc14-release:table.obj
 0003:000014e4       _gsm_FAC                   0048e4e4     libgsmcodec-i386-win32-vc14-release:table.obj
 0003:000014f8       _hpi_zero_coefsTbl         0048e4f8     libilbccodec-i386-win32-vc14-release:constants.obj
 0003:00001504       _hpi_pole_coefsTbl         0048e504     libilbccodec-i386-win32-vc14-release:constants.obj
 0003:00001510       _hpo_zero_coefsTbl         0048e510     libilbccodec-i386-win32-vc14-release:constants.obj
 0003:0000151c       _hpo_pole_coefsTbl         0048e51c     libilbccodec-i386-win32-vc14-release:constants.obj
 0003:00001528       _lpFilt_coefsTbl           0048e528     libilbccodec-i386-win32-vc14-release:constants.obj
 0003:00001544       _state_sq3Tbl              0048e544     libilbccodec-i386-win32-vc14-release:constants.obj
 0003:00001564       _search_rangeTbl           0048e564     libilbccodec-i386-win32-vc14-release:constants.obj
 0003:000015a0       _state_frgqTbl             0048e5a0     libilbccodec-i386-win32-vc14-release:constants.obj
 0003:000016a0       _stMemLTbl                 0048e6a0     libilbccodec-i386-win32-vc14-release:constants.obj
 0003:000016a4       _memLfTbl                  0048e6a4     libilbccodec-i386-win32-vc14-release:constants.obj
 0003:000016b4       _cbfiltersTbl              0048e6b4     libilbccodec-i386-win32-vc14-release:constants.obj
 0003:000016d4       _gain_sq3Tbl               0048e6d4     libilbccodec-i386-win32-vc14-release:constants.obj
 0003:000016f4       _dim_lsfCbTbl              0048e6f4     libilbccodec-i386-win32-vc14-release:constants.obj
 0003:00001700       _gain_sq4Tbl               0048e700     libilbccodec-i386-win32-vc14-release:constants.obj
 0003:00001740       _gain_sq5Tbl               0048e740     libilbccodec-i386-win32-vc14-release:constants.obj
 0003:000017c0       _polyphaserTbl             0048e7c0     libilbccodec-i386-win32-vc14-release:constants.obj
 0003:00001830       _enh_plocsTbl              0048e830     libilbccodec-i386-win32-vc14-release:constants.obj
 0003:00001850       _size_lsfCbTbl             0048e850     libilbccodec-i386-win32-vc14-release:constants.obj
 0003:0000185c       _lsfmeanTbl                0048e85c     libilbccodec-i386-win32-vc14-release:constants.obj
 0003:00001884       _lsf_weightTbl_30ms        0048e884     libilbccodec-i386-win32-vc14-release:constants.obj
 0003:0000189c       _lsf_weightTbl_20ms        0048e89c     libilbccodec-i386-win32-vc14-release:constants.obj
 0003:000018ac       _lpc_lagwinTbl             0048e8ac     libilbccodec-i386-win32-vc14-release:constants.obj
 0003:000018d8       _lpc_winTbl                0048e8d8     libilbccodec-i386-win32-vc14-release:constants.obj
 0003:00001c98       _lpc_asymwinTbl            0048ec98     libilbccodec-i386-win32-vc14-release:constants.obj
 0003:00002058       _lsfCbTbl                  0048f058     libilbccodec-i386-win32-vc14-release:constants.obj
 0003:00003168       _mod_srtp                  00490168     libsrtp-i386-win32-vc14-release:srtp.obj
 0003:00003174       _mod_alloc                 00490174     libsrtp-i386-win32-vc14-release:alloc.obj
 0003:00003180       _octet_weight              00490180     libsrtp-i386-win32-vc14-release:datatypes.obj
 0003:00003580       _srtp_mod_cipher           00490580     libsrtp-i386-win32-vc14-release:cipher.obj
 0003:00003588       _srtp_mod_auth             00490588     libsrtp-i386-win32-vc14-release:auth.obj
 0003:00003590       _srtp_mod_crypto_kernel    00490590     libsrtp-i386-win32-vc14-release:crypto_kernel.obj
 0003:00003598       _mod_stat                  00490598     libsrtp-i386-win32-vc14-release:stat.obj
 0003:000035a0       _srtp_mod_aes_icm          004905a0     libsrtp-i386-win32-vc14-release:aes_icm.obj
 0003:000035a8       _srtp_mod_hmac             004905a8     libsrtp-i386-win32-vc14-release:hmac.obj
 0003:000035b0       _srtp_mod_sha1             004905b0     libsrtp-i386-win32-vc14-release:sha1.obj
 0003:000035b8       _SHA_K0                    004905b8     libsrtp-i386-win32-vc14-release:sha1.obj
 0003:000035bc       _SHA_K1                    004905bc     libsrtp-i386-win32-vc14-release:sha1.obj
 0003:000035c0       _SHA_K2                    004905c0     libsrtp-i386-win32-vc14-release:sha1.obj
 0003:000035c4       _SHA_K3                    004905c4     libsrtp-i386-win32-vc14-release:sha1.obj
 0003:000035c8       ___security_cookie_complement 004905c8     MSVCRT:gs_cookie.obj
 0003:000035cc       ___security_cookie         004905cc     MSVCRT:gs_cookie.obj
 0003:000035d0       __fltused                  004905d0     MSVCRT:fltused.obj
 0003:000035e0       ___isa_enabled             004905e0     MSVCRT:cpu_disp.obj
 0003:000035e4       ___scrt_native_dllmain_reason 004905e4     MSVCRT:utility.obj
 0003:000035e8       ___scrt_default_matherr    004905e8     MSVCRT:matherr.obj
 0003:00003690       ___scrt_ucrt_dll_is_in_use 00490690     MSVCRT:ucrt_stubs.obj
 0003:000047a4       _pj_optarg                 004917a4     pjlib-util-i386-win32-vc14-release:getopt.obj
 0003:00004b3c       _err_level                 00491b3c     libsrtp-i386-win32-vc14-release:srtp_err.obj
 0003:00004b40       _crypto_kernel             00491b40     libsrtp-i386-win32-vc14-release:crypto_kernel.obj
 0003:00004e8c       ___isa_available           00491e8c     MSVCRT:cpu_disp.obj
 0003:00004e90       ___favor                   00491e90     MSVCRT:cpu_disp.obj
 0003:00004e94       ___scrt_current_native_startup_state 00491e94     MSVCRT:utility.obj
 0003:00004e98       ___scrt_native_startup_lock 00491e98     MSVCRT:utility.obj
 0003:00004eb8       ?__type_info_root_node@@3U__type_info_node@@A 00491eb8     MSVCRT:tncleanup.obj
 0003:00004ec0       ___scrt_debugger_hook_flag 00491ec0     MSVCRT:utility_desktop.obj
 0003:00004ec8       ?_OptionsStorage@?1??__local_stdio_printf_options@@9@9 00491ec8     <common>
 0003:00004ee0       _play_frm                  00491ee0     <common>
 0003:00004f00       _PJ_NO_MEMORY_EXCEPTION    00491f00     <common>
 0003:00004f20       _bit_string                00491f20     <common>
 0003:00005320       ?_OptionsStorage@?1??__local_stdio_scanf_options@@9@9 00492320     <common>
 0003:00005328       ___dyn_tls_dtor_callback   00492328     <common>
 0003:0000532c       ___dyn_tls_init_callback   0049232c     <common>

 entry point at        0001:0003db13

 Static symbols

 0002:fff92000       .idata$6                   00400000     ucrt:api-ms-win-crt-time-l1-1-0.dll
 0001:00000000       _pj_bzero                  00401000 f   pcaputil.obj
 0001:00000020       _pj_memcpy                 00401020 f   pcaputil.obj
 0001:00000030       _PJMEDIA_PIA_SRATE         00401030 f   pcaputil.obj
 0001:00000040       _pjmedia_codec_init        00401040 f   pcaputil.obj
 0001:00000050       _pjmedia_codec_open        00401050 f   pcaputil.obj
 0001:00000060       _pjmedia_codec_close       00401060 f   pcaputil.obj
 0001:00000070       _pjmedia_codec_parse       00401070 f   pcaputil.obj
 0001:00000080       _pjmedia_codec_decode      00401080 f   pcaputil.obj
 0001:00000090       _pjmedia_codec_recover     00401090 f   pcaputil.obj
 0001:000000b0       _pjmedia_transport_close   004010b0 f   pcaputil.obj
 0001:000000d0       _pjmedia_endpt_create      004010d0 f   pcaputil.obj
 0001:00000110       _pjmedia_endpt_destroy     00401110 f   pcaputil.obj
 0001:00000130       _cleanup                   00401130 f   pcaputil.obj
 0001:00000250       _err_exit                  00401250 f   pcaputil.obj
 0001:000002b0       _read_rtp                  004012b0 f   pcaputil.obj
 0001:000004e0       _wait_play                 004014e0 f   pcaputil.obj
 0001:00000530       _play_cb                   00401530 f   pcaputil.obj
 0001:00000590       _pcap2wav                  00401590 f   pcaputil.obj
 0001:00001088       $LN72                      00402088     pcaputil.obj
 0001:000010ac       $LN61                      004020ac     pcaputil.obj
 0001:000012f0       _l16_test_alloc            004022f0 f   pjmedia-codec-i386-win32-vc14-release:l16.obj
 0001:00001310       _l16_default_attr          00402310 f   pjmedia-codec-i386-win32-vc14-release:l16.obj
 0001:00001370       _l16_enum_codecs           00402370 f   pjmedia-codec-i386-win32-vc14-release:l16.obj
 0001:00001400       _l16_alloc_codec           00402400 f   pjmedia-codec-i386-win32-vc14-release:l16.obj
 0001:00001520       _l16_dealloc_codec         00402520 f   pjmedia-codec-i386-win32-vc14-release:l16.obj
 0001:00001570       _transport_media_create    00402570 f   pjmedia-i386-win32-vc14-release:transport_loop.obj
 0001:00001570       _transport_encode_sdp      00402570 f   pjmedia-i386-win32-vc14-release:transport_loop.obj
 0001:00001570       _transport_media_start     00402570 f   pjmedia-i386-win32-vc14-release:transport_loop.obj
 0001:00001570       _g722_codec_close          00402570 f   pjmedia-codec-i386-win32-vc14-release:g722.obj
 0001:00001570       _transport_media_stop      00402570 f   pjmedia-i386-win32-vc14-release:transport_loop.obj
 0001:00001570       _g722_codec_init           00402570 f   pjmedia-codec-i386-win32-vc14-release:g722.obj
 0001:00001570       _codec_close               00402570 f   pjmedia-codec-i386-win32-vc14-release:opus.obj
 0001:00001570       _sdes_media_stop           00402570 f   pjmedia-i386-win32-vc14-release:transport_srtp.obj
 0001:00001570       _codec_init                00402570 f   pjmedia-codec-i386-win32-vc14-release:opus.obj
 0001:00001570       _srtp_null_auth_start      00402570 f   libsrtp-i386-win32-vc14-release:null_auth.obj
 0001:00001570       _srtp_null_auth_update     00402570 f   libsrtp-i386-win32-vc14-release:null_auth.obj
 0001:00001570       _srtp_null_auth_compute    00402570 f   libsrtp-i386-win32-vc14-release:null_auth.obj
 0001:00001570       _srtp_null_auth_init       00402570 f   libsrtp-i386-win32-vc14-release:null_auth.obj
 0001:00001570       _g711_init                 00402570 f   pjmedia-i386-win32-vc14-release:g711.obj
 0001:00001570       _g711_close                00402570 f   pjmedia-i386-win32-vc14-release:g711.obj
 0001:00001570       _srtp_null_cipher_encrypt  00402570 f   libsrtp-i386-win32-vc14-release:null_cipher.obj
 0001:00001570       _srtp_null_cipher_set_iv   00402570 f   libsrtp-i386-win32-vc14-release:null_cipher.obj
 0001:00001570       _gsm_codec_init            00402570 f   pjmedia-codec-i386-win32-vc14-release:gsm.obj
 0001:00001570       _ilbc_codec_init           00402570 f   pjmedia-codec-i386-win32-vc14-release:ilbc.obj
 0001:00001570       _l16_init                  00402570 f   pjmedia-codec-i386-win32-vc14-release:l16.obj
 0001:00001570       _null_op                   00402570 f   pjlib-i386-win32-vc14-release:lock.obj
 0001:00001570       _l16_close                 00402570 f   pjmedia-codec-i386-win32-vc14-release:l16.obj
 0001:00001570       _spx_codec_init            00402570 f   pjmedia-codec-i386-win32-vc14-release:speex_codec.obj
 0001:00001580       _l16_open                  00402580 f   pjmedia-codec-i386-win32-vc14-release:l16.obj
 0001:000015c0       _l16_modify                004025c0 f   pjmedia-codec-i386-win32-vc14-release:l16.obj
 0001:000015f0       _l16_parse                 004025f0 f   pjmedia-codec-i386-win32-vc14-release:l16.obj
 0001:00001670       _l16_encode                00402670 f   pjmedia-codec-i386-win32-vc14-release:l16.obj
 0001:00001790       _l16_decode                00402790 f   pjmedia-codec-i386-win32-vc14-release:l16.obj
 0001:00001830       _l16_recover               00402830 f   pjmedia-codec-i386-win32-vc14-release:l16.obj
 0001:000019e0       _gsm_test_alloc            004029e0 f   pjmedia-codec-i386-win32-vc14-release:gsm.obj
 0001:00001a00       _gsm_default_attr          00402a00 f   pjmedia-codec-i386-win32-vc14-release:gsm.obj
 0001:00001a50       _gsm_enum_codecs           00402a50 f   pjmedia-codec-i386-win32-vc14-release:gsm.obj
 0001:00001ac0       _gsm_alloc_codec           00402ac0 f   pjmedia-codec-i386-win32-vc14-release:gsm.obj
 0001:00001bf0       _gsm_dealloc_codec         00402bf0 f   pjmedia-codec-i386-win32-vc14-release:gsm.obj
 0001:00001ce0       _gsm_codec_open            00402ce0 f   pjmedia-codec-i386-win32-vc14-release:gsm.obj
 0001:00001d30       _gsm_codec_close           00402d30 f   pjmedia-codec-i386-win32-vc14-release:gsm.obj
 0001:00001d70       _gsm_codec_modify          00402d70 f   pjmedia-codec-i386-win32-vc14-release:gsm.obj
 0001:00001da0       _gsm_codec_parse           00402da0 f   pjmedia-codec-i386-win32-vc14-release:gsm.obj
 0001:00001e20       _gsm_codec_encode          00402e20 f   pjmedia-codec-i386-win32-vc14-release:gsm.obj
 0001:00001f50       _gsm_codec_decode          00402f50 f   pjmedia-codec-i386-win32-vc14-release:gsm.obj
 0001:00001fe0       _gsm_codec_recover         00402fe0 f   pjmedia-codec-i386-win32-vc14-release:gsm.obj
 0001:00002110       _spx_enum_codecs           00403110 f   pjmedia-codec-i386-win32-vc14-release:speex_codec.obj
 0001:000021d0       _spx_alloc_codec           004031d0 f   pjmedia-codec-i386-win32-vc14-release:speex_codec.obj
 0001:000022d0       _spx_dealloc_codec         004032d0 f   pjmedia-codec-i386-win32-vc14-release:speex_codec.obj
 0001:00002340       _spx_codec_open            00403340 f   pjmedia-codec-i386-win32-vc14-release:speex_codec.obj
 0001:00002460       _spx_codec_close           00403460 f   pjmedia-codec-i386-win32-vc14-release:speex_codec.obj
 0001:000024b0       _spx_codec_modify          004034b0 f   pjmedia-codec-i386-win32-vc14-release:speex_codec.obj
 0001:00002510       _spx_codec_parse           00403510 f   pjmedia-codec-i386-win32-vc14-release:speex_codec.obj
 0001:00002730       _spx_codec_encode          00403730 f   pjmedia-codec-i386-win32-vc14-release:speex_codec.obj
 0001:00002840       _spx_codec_decode          00403840 f   pjmedia-codec-i386-win32-vc14-release:speex_codec.obj
 0001:00002900       _spx_codec_recover         00403900 f   pjmedia-codec-i386-win32-vc14-release:speex_codec.obj
 0001:000029f0       _spx_test_alloc            004039f0 f   pjmedia-codec-i386-win32-vc14-release:speex_codec.obj
 0001:00002a50       _spx_default_attr          00403a50 f   pjmedia-codec-i386-win32-vc14-release:speex_codec.obj
 0001:00002b00       _get_speex_info            00403b00 f   pjmedia-codec-i386-win32-vc14-release:speex_codec.obj
 0001:00002e30       _ilbc_test_alloc           00403e30 f   pjmedia-codec-i386-win32-vc14-release:ilbc.obj
 0001:00002ea0       _ilbc_default_attr         00403ea0 f   pjmedia-codec-i386-win32-vc14-release:ilbc.obj
 0001:00002f70       _ilbc_enum_codecs          00403f70 f   pjmedia-codec-i386-win32-vc14-release:ilbc.obj
 0001:00002fe0       _ilbc_alloc_codec          00403fe0 f   pjmedia-codec-i386-win32-vc14-release:ilbc.obj
 0001:00003080       _ilbc_dealloc_codec        00404080 f   pjmedia-codec-i386-win32-vc14-release:ilbc.obj
 0001:000030b0       _ilbc_codec_open           004040b0 f   pjmedia-codec-i386-win32-vc14-release:ilbc.obj
 0001:000032b0       _ilbc_codec_close          004042b0 f   pjmedia-codec-i386-win32-vc14-release:ilbc.obj
 0001:000032e0       _ilbc_codec_modify         004042e0 f   pjmedia-codec-i386-win32-vc14-release:ilbc.obj
 0001:00003310       _ilbc_codec_parse          00404310 f   pjmedia-codec-i386-win32-vc14-release:ilbc.obj
 0001:000033a0       _ilbc_codec_encode         004043a0 f   pjmedia-codec-i386-win32-vc14-release:ilbc.obj
 0001:00003500       _ilbc_codec_decode         00404500 f   pjmedia-codec-i386-win32-vc14-release:ilbc.obj
 0001:000035c0       _ilbc_codec_recover        004045c0 f   pjmedia-codec-i386-win32-vc14-release:ilbc.obj
 0001:000037b0       _g722_test_alloc           004047b0 f   pjmedia-codec-i386-win32-vc14-release:g722.obj
 0001:000037d0       _g722_default_attr         004047d0 f   pjmedia-codec-i386-win32-vc14-release:g722.obj
 0001:00003820       _g722_enum_codecs          00404820 f   pjmedia-codec-i386-win32-vc14-release:g722.obj
 0001:00003890       _g722_alloc_codec          00404890 f   pjmedia-codec-i386-win32-vc14-release:g722.obj
 0001:000039d0       _g722_dealloc_codec        004049d0 f   pjmedia-codec-i386-win32-vc14-release:g722.obj
 0001:00003aa0       _g722_codec_open           00404aa0 f   pjmedia-codec-i386-win32-vc14-release:g722.obj
 0001:00003b60       _g722_codec_modify         00404b60 f   pjmedia-codec-i386-win32-vc14-release:g722.obj
 0001:00003b90       _g722_codec_parse          00404b90 f   pjmedia-codec-i386-win32-vc14-release:g722.obj
 0001:00003c10       _g722_codec_encode         00404c10 f   pjmedia-codec-i386-win32-vc14-release:g722.obj
 0001:00003dc0       _g722_codec_decode         00404dc0 f   pjmedia-codec-i386-win32-vc14-release:g722.obj
 0001:00003ed0       _g722_codec_recover        00404ed0 f   pjmedia-codec-i386-win32-vc14-release:g722.obj
 0001:00004000       _factory_test_alloc        00405000 f   pjmedia-codec-i386-win32-vc14-release:opus.obj
 0001:00004080       _factory_default_attr      00405080 f   pjmedia-codec-i386-win32-vc14-release:opus.obj
 0001:00004100       _factory_enum_codecs       00405100 f   pjmedia-codec-i386-win32-vc14-release:opus.obj
 0001:00004180       _factory_alloc_codec       00405180 f   pjmedia-codec-i386-win32-vc14-release:opus.obj
 0001:00004230       _factory_dealloc_codec     00405230 f   pjmedia-codec-i386-win32-vc14-release:opus.obj
 0001:00004280       _codec_open                00405280 f   pjmedia-codec-i386-win32-vc14-release:opus.obj
 0001:00004760       _codec_modify              00405760 f   pjmedia-codec-i386-win32-vc14-release:opus.obj
 0001:000047e0       _codec_parse               004057e0 f   pjmedia-codec-i386-win32-vc14-release:opus.obj
 0001:00004a50       _codec_encode              00405a50 f   pjmedia-codec-i386-win32-vc14-release:opus.obj
 0001:00004c50       _codec_decode              00405c50 f   pjmedia-codec-i386-win32-vc14-release:opus.obj
 0001:00004e70       _codec_recover             00405e70 f   pjmedia-codec-i386-win32-vc14-release:opus.obj
 0001:00005070       _generate_fmtp             00406070 f   pjmedia-codec-i386-win32-vc14-release:opus.obj
 0001:000054e0       _get_opus_bw_constant      004064e0 f   pjmedia-codec-i386-win32-vc14-release:opus.obj
 0001:00005640       _remove_fmtp               00406640 f   pjmedia-codec-i386-win32-vc14-release:opus.obj
 0001:000056a0       _block4h                   004066a0 f   pjmedia-codec-i386-win32-vc14-release:g722_enc.obj
 0001:00005ae0       _block4l                   00406ae0 f   pjmedia-codec-i386-win32-vc14-release:g722_enc.obj
 0001:00005ae0       _block4l                   00406ae0 f   pjmedia-codec-i386-win32-vc14-release:g722_dec.obj
 0001:00006260       _block4h                   00407260 f   pjmedia-codec-i386-win32-vc14-release:g722_dec.obj
 0001:000069d0       _rx_qmf                    004079d0 f   pjmedia-codec-i386-win32-vc14-release:g722_dec.obj
 0001:00006db0       _factory_init              00407db0 f   pjmedia-audiodev-i386-win32-vc14-release:wmme_dev.obj
 0001:00006df0       _factory_destroy           00407df0 f   pjmedia-audiodev-i386-win32-vc14-release:wmme_dev.obj
 0001:00006e20       _factory_refresh           00407e20 f   pjmedia-audiodev-i386-win32-vc14-release:wmme_dev.obj
 0001:000070d0       _factory_get_dev_count     004080d0 f   pjmedia-audiodev-i386-win32-vc14-release:wmme_dev.obj
 0001:000070e0       _factory_get_dev_info      004080e0 f   pjmedia-audiodev-i386-win32-vc14-release:wmme_dev.obj
 0001:00007120       _factory_default_param     00408120 f   pjmedia-audiodev-i386-win32-vc14-release:wmme_dev.obj
 0001:000071f0       _factory_create_stream     004081f0 f   pjmedia-audiodev-i386-win32-vc14-release:wmme_dev.obj
 0001:00007490       _stream_get_param          00408490 f   pjmedia-audiodev-i386-win32-vc14-release:wmme_dev.obj
 0001:00007510       _stream_get_cap            00408510 f   pjmedia-audiodev-i386-win32-vc14-release:wmme_dev.obj
 0001:000075a0       _stream_set_cap            004085a0 f   pjmedia-audiodev-i386-win32-vc14-release:wmme_dev.obj
 0001:00007630       _stream_start              00408630 f   pjmedia-audiodev-i386-win32-vc14-release:wmme_dev.obj
 0001:000076b0       _stream_stop               004086b0 f   pjmedia-audiodev-i386-win32-vc14-release:wmme_dev.obj
 0001:00007740       _stream_destroy            00408740 f   pjmedia-audiodev-i386-win32-vc14-release:wmme_dev.obj
 0001:00007910       _build_dev_info            00408910 f   pjmedia-audiodev-i386-win32-vc14-release:wmme_dev.obj
 0001:00007a70       _init_capture_stream       00408a70 f   pjmedia-audiodev-i386-win32-vc14-release:wmme_dev.obj
 0001:00007c90       _init_player_stream        00408c90 f   pjmedia-audiodev-i386-win32-vc14-release:wmme_dev.obj
 0001:00007ed0       _init_waveformatex         00408ed0 f   pjmedia-audiodev-i386-win32-vc14-release:wmme_dev.obj
 0001:00007ff0       _wmme_dev_thread           00408ff0 f   pjmedia-audiodev-i386-win32-vc14-release:wmme_dev.obj
 0001:00008650       _lookup_dev                00409650 f   pjmedia-i386-win32-vc14-release:audiodev.obj
 0001:00008730       _make_global_index         00409730 f   pjmedia-i386-win32-vc14-release:audiodev.obj
 0001:00009640       _sort_codecs               0040a640 f   pjmedia-i386-win32-vc14-release:codec.obj
 0001:00009a60       _worker_proc               0040aa60 f   pjmedia-i386-win32-vc14-release:endpoint.obj
 0001:00009db0       _transport_get_info        0040adb0 f   pjmedia-i386-win32-vc14-release:transport_loop.obj
 0001:00009e10       _transport_attach          0040ae10 f   pjmedia-i386-win32-vc14-release:transport_loop.obj
 0001:00009e40       _transport_attach2         0040ae40 f   pjmedia-i386-win32-vc14-release:transport_loop.obj
 0001:00009e70       _transport_detach          0040ae70 f   pjmedia-i386-win32-vc14-release:transport_loop.obj
 0001:00009eb0       _transport_send_rtp        0040aeb0 f   pjmedia-i386-win32-vc14-release:transport_loop.obj
 0001:00009fa0       _transport_send_rtcp       0040afa0 f   pjmedia-i386-win32-vc14-release:transport_loop.obj
 0001:00009fe0       _transport_send_rtcp2      0040afe0 f   pjmedia-i386-win32-vc14-release:transport_loop.obj
 0001:0000a020       _transport_simulate_lost   0040b020 f   pjmedia-i386-win32-vc14-release:transport_loop.obj
 0001:0000a060       _transport_destroy         0040b060 f   pjmedia-i386-win32-vc14-release:transport_loop.obj
 0001:0000a1a0       _tp_attach                 0040b1a0 f   pjmedia-i386-win32-vc14-release:transport_loop.obj
 0001:0000a250       _transport_get_info        0040b250 f   pjmedia-i386-win32-vc14-release:transport_srtp.obj
 0001:0000a380       _transport_detach          0040b380 f   pjmedia-i386-win32-vc14-release:transport_srtp.obj
 0001:0000a3f0       _transport_send_rtp        0040b3f0 f   pjmedia-i386-win32-vc14-release:transport_srtp.obj
 0001:0000a4b0       _transport_send_rtcp       0040b4b0 f   pjmedia-i386-win32-vc14-release:transport_srtp.obj
 0001:0000a580       _transport_send_rtcp2      0040b580 f   pjmedia-i386-win32-vc14-release:transport_srtp.obj
 0001:0000a650       _transport_media_create    0040b650 f   pjmedia-i386-win32-vc14-release:transport_srtp.obj
 0001:0000a7e0       _transport_encode_sdp      0040b7e0 f   pjmedia-i386-win32-vc14-release:transport_srtp.obj
 0001:0000a9a0       _transport_media_start     0040b9a0 f   pjmedia-i386-win32-vc14-release:transport_srtp.obj
 0001:0000ac20       _transport_media_stop      0040bc20 f   pjmedia-i386-win32-vc14-release:transport_srtp.obj
 0001:0000ada0       _transport_simulate_lost   0040bda0 f   pjmedia-i386-win32-vc14-release:transport_srtp.obj
 0001:0000add0       _transport_destroy         0040bdd0 f   pjmedia-i386-win32-vc14-release:transport_srtp.obj
 0001:0000ae70       _transport_attach2         0040be70 f   pjmedia-i386-win32-vc14-release:transport_srtp.obj
 0001:0000b000       _sdes_media_create         0040c000 f   pjmedia-i386-win32-vc14-release:transport_srtp.obj
 0001:0000b080       _sdes_encode_sdp           0040c080 f   pjmedia-i386-win32-vc14-release:transport_srtp.obj
 0001:0000b610       _sdes_media_start          0040c610 f   pjmedia-i386-win32-vc14-release:transport_srtp.obj
 0001:0000b9f0       _fill_local_crypto         0040c9f0 f   pjmedia-i386-win32-vc14-release:transport_srtp.obj
 0001:0000bd30       _generate_crypto_attr_value 0040cd30 f   pjmedia-i386-win32-vc14-release:transport_srtp.obj
 0001:0000bfd0       _get_crypto_idx            0040cfd0 f   pjmedia-i386-win32-vc14-release:transport_srtp.obj
 0001:0000c050       _parse_attr_crypto         0040d050 f   pjmedia-i386-win32-vc14-release:transport_srtp.obj
 0001:0000c2d0       _pjmedia_srtp_deinit_lib   0040d2d0 f   pjmedia-i386-win32-vc14-release:transport_srtp.obj
 0001:0000d010       _srtp_crypto_cmp           0040e010 f   pjmedia-i386-win32-vc14-release:transport_srtp.obj
 0001:0000d050       _srtp_rtcp_cb              0040e050 f   pjmedia-i386-win32-vc14-release:transport_srtp.obj
 0001:0000d150       _srtp_rtp_cb               0040e150 f   pjmedia-i386-win32-vc14-release:transport_srtp.obj
 0001:0000d450       _file_get_frame            0040e450 f   pjmedia-i386-win32-vc14-release:wav_writer.obj
 0001:0000d460       _file_on_destroy           0040e460 f   pjmedia-i386-win32-vc14-release:wav_writer.obj
 0001:0000d5f0       _file_put_frame            0040e5f0 f   pjmedia-i386-win32-vc14-release:wav_writer.obj
 0001:0000dad0       _g711_test_alloc           0040ead0 f   pjmedia-i386-win32-vc14-release:g711.obj
 0001:0000daf0       _g711_default_attr         0040eaf0 f   pjmedia-i386-win32-vc14-release:g711.obj
 0001:0000db50       _g711_enum_codecs          0040eb50 f   pjmedia-i386-win32-vc14-release:g711.obj
 0001:0000dbe0       _g711_alloc_codec          0040ebe0 f   pjmedia-i386-win32-vc14-release:g711.obj
 0001:0000dd00       _g711_dealloc_codec        0040ed00 f   pjmedia-i386-win32-vc14-release:g711.obj
 0001:0000ddd0       _g711_open                 0040edd0 f   pjmedia-i386-win32-vc14-release:g711.obj
 0001:0000de00       _g711_modify               0040ee00 f   pjmedia-i386-win32-vc14-release:g711.obj
 0001:0000de40       _g711_parse                0040ee40 f   pjmedia-i386-win32-vc14-release:g711.obj
 0001:0000ded0       _g711_encode               0040eed0 f   pjmedia-i386-win32-vc14-release:g711.obj
 0001:0000dff0       _g711_decode               0040eff0 f   pjmedia-i386-win32-vc14-release:g711.obj
 0001:0000e0c0       _g711_recover              0040f0c0 f   pjmedia-i386-win32-vc14-release:g711.obj
 0001:0000e210       _plc_wsola_create          0040f210 f   pjmedia-i386-win32-vc14-release:plc_common.obj
 0001:0000e250       _plc_wsola_save            0040f250 f   pjmedia-i386-win32-vc14-release:plc_common.obj
 0001:0000e280       _plc_wsola_generate        0040f280 f   pjmedia-i386-win32-vc14-release:plc_common.obj
 0001:0000e620       _event_mgr_distribute_events 0040f620 f   pjmedia-i386-win32-vc14-release:event.obj
 0001:0000e700       _event_queue_add_event     0040f700 f   pjmedia-i386-win32-vc14-release:event.obj
 0001:0000ece0       _expand                    0040fce0 f   pjmedia-i386-win32-vc14-release:wsola.obj
 0001:0000eee0       _fade_in                   0040fee0 f   pjmedia-i386-win32-vc14-release:wsola.obj
 0001:0000efa0       _find_pitch                0040ffa0 f   pjmedia-i386-win32-vc14-release:wsola.obj
 0001:0000f240       _overlapp_add              00410240 f   pjmedia-i386-win32-vc14-release:wsola.obj
 0001:0000f2b0       _overlapp_add_simple       004102b0 f   pjmedia-i386-win32-vc14-release:wsola.obj
 0001:0000f340       _pjmedia_circ_buf_adv_read_ptr 00410340 f   pjmedia-i386-win32-vc14-release:wsola.obj
 0001:0000f390       _pjmedia_circ_buf_copy     00410390 f   pjmedia-i386-win32-vc14-release:wsola.obj
 0001:0000f440       _pjmedia_circ_buf_get_read_regions 00410440 f   pjmedia-i386-win32-vc14-release:wsola.obj
 0001:0000fc10       _wsola_fade_out            00410c10 f   pjmedia-i386-win32-vc14-release:wsola.obj
 0001:0000fe40       __getopt_internal          00410e40 f   pjlib-util-i386-win32-vc14-release:getopt.obj
 0001:000105d0       _exchange                  004115d0 f   pjlib-util-i386-win32-vc14-release:getopt.obj
 0001:000106c0       _my_index                  004116c0 f   pjlib-util-i386-win32-vc14-release:getopt.obj
 0001:00010e90       _read_file                 00411e90 f   pjlib-util-i386-win32-vc14-release:pcap.obj
 0001:00010ec0       _skip                      00411ec0 f   pjlib-util-i386-win32-vc14-release:pcap.obj
 0001:00010ee0       _init_mutex                00411ee0 f   pjlib-i386-win32-vc14-release:os_core_win32.obj
 0001:000117a0       _pj_sem_wait_for           004127a0 f   pjlib-i386-win32-vc14-release:os_core_win32.obj
 0001:00011ef0       _thread_main@4             00412ef0 f   pjlib-i386-win32-vc14-release:os_core_win32.obj
 0001:00012980       _invoke_log                00413980 f   pjlib-i386-win32-vc14-release:errno.obj
 0001:00012a00       _pj_perror_imp             00413a00 f   pjlib-i386-win32-vc14-release:errno.obj
 0001:00012de0       _logging_shutdown          00413de0 f   pjlib-i386-win32-vc14-release:log.obj
 0001:0001340c       $LN14                      0041440c     pjlib-i386-win32-vc14-release:log.obj
 0001:00014090       _reset_pool                00415090 f   pjlib-i386-win32-vc14-release:pool.obj
 0001:00014110       _cpool_create_pool         00415110 f   pjlib-i386-win32-vc14-release:pool_caching.obj
 0001:00014240       _cpool_dump_status         00415240 f   pjlib-i386-win32-vc14-release:pool_caching.obj
 0001:00014390       _cpool_on_block_alloc      00415390 f   pjlib-i386-win32-vc14-release:pool_caching.obj
 0001:000143b0       _cpool_on_block_free       004153b0 f   pjlib-i386-win32-vc14-release:pool_caching.obj
 0001:000143c0       _cpool_release_pool        004153c0 f   pjlib-i386-win32-vc14-release:pool_caching.obj
 0001:00014980       _decrement_counter         00415980 f   pjlib-i386-win32-vc14-release:ioqueue_select.obj
 0001:00014a10       _increment_counter         00415a10 f   pjlib-i386-win32-vc14-release:ioqueue_select.obj
 0001:00015690       _scan_closing_keys         00416690 f   pjlib-i386-win32-vc14-release:ioqueue_select.obj
 0001:00015800       _create_mutex_lock         00416800 f   pjlib-i386-win32-vc14-release:lock.obj
 0001:00015870       _grp_lock_destroy          00416870 f   pjlib-i386-win32-vc14-release:lock.obj
 0001:00015920       _grp_lock_release          00416920 f   pjlib-i386-win32-vc14-release:lock.obj
 0001:00015990       _grp_lock_tryacquire       00416990 f   pjlib-i386-win32-vc14-release:lock.obj
 0001:00016390       _pool_buf_cleanup          00417390 f   pjlib-i386-win32-vc14-release:pool_buf.obj
 0001:000163c0       _stack_alloc               004173c0 f   pjlib-i386-win32-vc14-release:pool_buf.obj
 0001:00016400       _default_block_alloc       00417400 f   pjlib-i386-win32-vc14-release:pool_policy_malloc.obj
 0001:00016460       _default_block_free        00417460 f   pjlib-i386-win32-vc14-release:pool_policy_malloc.obj
 0001:000164a0       _default_pool_callback     004174a0 f   pjlib-i386-win32-vc14-release:pool_policy_malloc.obj
 0001:00017600       _Calculation_of_the_LTP_parameters 00418600 f   libgsmcodec-i386-win32-vc14-release:long_term.obj
 0001:00017c70       _Long_term_analysis_filtering 00418c70 f   libgsmcodec-i386-win32-vc14-release:long_term.obj
 0001:00017ec8       $LN57                      00418ec8     libgsmcodec-i386-win32-vc14-release:long_term.obj
 0001:00017ee0       _Autocorrelation           00418ee0 f   libgsmcodec-i386-win32-vc14-release:lpc.obj
 0001:000186fc       $LN148                     004196fc     libgsmcodec-i386-win32-vc14-release:lpc.obj
 0001:000187f0       _Quantization_and_coding   004197f0 f   libgsmcodec-i386-win32-vc14-release:lpc.obj
 0001:00018d80       _Reflection_coefficients   00419d80 f   libgsmcodec-i386-win32-vc14-release:lpc.obj
 0001:000191d0       _Coefficients_0_12         0041a1d0 f   libgsmcodec-i386-win32-vc14-release:short_term.obj
 0001:00019260       _Coefficients_13_26        0041a260 f   libgsmcodec-i386-win32-vc14-release:short_term.obj
 0001:000192c0       _Coefficients_27_39        0041a2c0 f   libgsmcodec-i386-win32-vc14-release:short_term.obj
 0001:00019350       _Decoding_of_the_coded_Log_Area_Ratios 0041a350 f   libgsmcodec-i386-win32-vc14-release:short_term.obj
 0001:00019a20       _LARp_to_rp                0041aa20 f   libgsmcodec-i386-win32-vc14-release:short_term.obj
 0001:00019b00       _Short_term_analysis_filtering 0041ab00 f   libgsmcodec-i386-win32-vc14-release:short_term.obj
 0001:00019c20       _Short_term_synthesis_filtering 0041ac20 f   libgsmcodec-i386-win32-vc14-release:short_term.obj
 0001:00019d60       _APCM_inverse_quantization 0041ad60 f   libgsmcodec-i386-win32-vc14-release:rpe.obj
 0001:00019e40       _APCM_quantization         0041ae40 f   libgsmcodec-i386-win32-vc14-release:rpe.obj
 0001:0001a0e0       _APCM_quantization_xmaxc_to_exp_mant 0041b0e0 f   libgsmcodec-i386-win32-vc14-release:rpe.obj
 0001:0001a2d0       _RPE_grid_positioning      0041b2d0 f   libgsmcodec-i386-win32-vc14-release:rpe.obj
 0001:0001a354       $LN26                      0041b354     libgsmcodec-i386-win32-vc14-release:rpe.obj
 0001:0001a370       _RPE_grid_selection        0041b370 f   libgsmcodec-i386-win32-vc14-release:rpe.obj
 0001:000256e0       _pitch_gain_search_3tap    004266e0 f   libspeex-i386-win32-vc14-release:ltp.obj
 0001:00026430       _pitch_gain_search_3tap_vq 00427430 f   libspeex-i386-win32-vc14-release:ltp.obj
 0001:00026c30       _compute_quant_weights     00427c30 f   libspeex-i386-win32-vc14-release:quant_lsp.obj
 0001:00026cc0       _lsp_quant                 00427cc0 f   libspeex-i386-win32-vc14-release:quant_lsp.obj
 0001:000294f0       _lsp_weight_quant          0042a4f0 f   libspeex-i386-win32-vc14-release:quant_lsp.obj
 0001:00029660       _compute_weighted_codebook 0042a660 f   libspeex-i386-win32-vc14-release:cb_search.obj
 0001:0002ac70       _split_cb_search_shape_sign_N1 0042bc70 f   libspeex-i386-win32-vc14-release:cb_search.obj
 0001:0002b600       __speex_fatal              0042c600 f   libspeex-i386-win32-vc14-release:nb_celp.obj
 0001:0002c410       _nb_decode_lost            0042d410 f   libspeex-i386-win32-vc14-release:nb_celp.obj
 0001:0002c9b8       $LN69                      0042d9b8     libspeex-i386-win32-vc14-release:nb_celp.obj
 0001:0002ca18       $LN65                      0042da18     libspeex-i386-win32-vc14-release:nb_celp.obj
 0001:0002e648       $LN117                     0042f648     libspeex-i386-win32-vc14-release:nb_celp.obj
 0001:0002e6dc       $LN112                     0042f6dc     libspeex-i386-win32-vc14-release:nb_celp.obj
 0001:0002ea40       _speex_notify              0042fa40 f   libspeex-i386-win32-vc14-release:nb_celp.obj
 0001:0002f990       _sb_decode_lost            00430990 f   libspeex-i386-win32-vc14-release:sb_celp.obj
 0001:0002ff20       $LN113                     00430f20     libspeex-i386-win32-vc14-release:sb_celp.obj
 0001:0002ff88       $LN93                      00430f88     libspeex-i386-win32-vc14-release:sb_celp.obj
 0001:000316f4       $LN164                     004326f4     libspeex-i386-win32-vc14-release:sb_celp.obj
 0001:00031790       $LN143                     00432790     libspeex-i386-win32-vc14-release:sb_celp.obj
 0001:00034f24       $LN11                      00435f24     libsrtp-i386-win32-vc14-release:srtp.obj
 0001:00034f50       _base_key_length           00435f50 f   libsrtp-i386-win32-vc14-release:srtp.obj
 0001:00034f84       $LN11                      00435f84     libsrtp-i386-win32-vc14-release:srtp.obj
 0001:00034f90       $LN9                       00435f90     libsrtp-i386-win32-vc14-release:srtp.obj
 0001:00034fa0       _be64_to_cpu               00435fa0 f   libsrtp-i386-win32-vc14-release:srtp.obj
 0001:00035090       _srtp_calc_aead_iv         00436090 f   libsrtp-i386-win32-vc14-release:srtp.obj
 0001:00035180       _srtp_calc_aead_iv_srtcp   00436180 f   libsrtp-i386-win32-vc14-release:srtp.obj
 0001:00035560       _srtp_get_est_pkt_index    00436560 f   libsrtp-i386-win32-vc14-release:srtp.obj
 0001:000357c0       _srtp_kdf_generate         004367c0 f   libsrtp-i386-win32-vc14-release:srtp.obj
 0001:00035840       _srtp_kdf_init             00436840 f   libsrtp-i386-win32-vc14-release:srtp.obj
 0001:000358b0       _srtp_process_header_encryption 004368b0 f   libsrtp-i386-win32-vc14-release:srtp.obj
 0001:00035b00       _srtp_protect_aead         00436b00 f   libsrtp-i386-win32-vc14-release:srtp.obj
 0001:000363e0       _srtp_protect_rtcp_aead    004373e0 f   libsrtp-i386-win32-vc14-release:srtp.obj
 0001:00037000       _srtp_stream_free          00438000 f   libsrtp-i386-win32-vc14-release:srtp.obj
 0001:00037a60       $LN96                      00438a60     libsrtp-i386-win32-vc14-release:srtp.obj
 0001:00037aa0       _srtp_unprotect_aead       00438aa0 f   libsrtp-i386-win32-vc14-release:srtp.obj
 0001:00038410       _srtp_unprotect_rtcp_aead  00439410 f   libsrtp-i386-win32-vc14-release:srtp.obj
 0001:00038bb0       _srtp_validate_rtp_header  00439bb0 f   libsrtp-i386-win32-vc14-release:srtp.obj
 0001:0003b170       _srtp_null_cipher_alloc    0043c170 f   libsrtp-i386-win32-vc14-release:null_cipher.obj
 0001:0003b1e0       _srtp_null_cipher_dealloc  0043c1e0 f   libsrtp-i386-win32-vc14-release:null_cipher.obj
 0001:0003b200       _srtp_null_cipher_init     0043c200 f   libsrtp-i386-win32-vc14-release:null_cipher.obj
 0001:0003b230       _srtp_aes_icm_alloc        0043c230 f   libsrtp-i386-win32-vc14-release:aes_icm.obj
 0001:0003b310       _srtp_aes_icm_dealloc      0043c310 f   libsrtp-i386-win32-vc14-release:aes_icm.obj
 0001:0003b350       _srtp_aes_icm_context_init 0043c350 f   libsrtp-i386-win32-vc14-release:aes_icm.obj
 0001:0003b490       _srtp_aes_icm_set_iv       0043c490 f   libsrtp-i386-win32-vc14-release:aes_icm.obj
 0001:0003b540       _srtp_aes_icm_encrypt      0043c540 f   libsrtp-i386-win32-vc14-release:aes_icm.obj
 0001:0003b710       _srtp_aes_icm_advance      0043c710 f   libsrtp-i386-win32-vc14-release:aes_icm.obj
 0001:0003b7a0       _srtp_null_auth_alloc      0043c7a0 f   libsrtp-i386-win32-vc14-release:null_auth.obj
 0001:0003b830       _srtp_null_auth_dealloc    0043c830 f   libsrtp-i386-win32-vc14-release:null_auth.obj
 0001:0003b850       _srtp_hmac_alloc           0043c850 f   libsrtp-i386-win32-vc14-release:hmac.obj
 0001:0003b900       _srtp_hmac_dealloc         0043c900 f   libsrtp-i386-win32-vc14-release:hmac.obj
 0001:0003b920       _srtp_hmac_init            0043c920 f   libsrtp-i386-win32-vc14-release:hmac.obj
 0001:0003bb90       _srtp_hmac_start           0043cb90 f   libsrtp-i386-win32-vc14-release:hmac.obj
 0001:0003bbb0       _srtp_hmac_update          0043cbb0 f   libsrtp-i386-win32-vc14-release:hmac.obj
 0001:0003bc00       _srtp_hmac_compute         0043cc00 f   libsrtp-i386-win32-vc14-release:hmac.obj
 0001:0003bd30       _aes_128_expand_encryption_key 0043cd30 f   libsrtp-i386-win32-vc14-release:aes.obj
 0001:0003c190       _aes_final_round           0043d190 f   libsrtp-i386-win32-vc14-release:aes.obj
 0001:0003c290       _aes_inv_final_round       0043d290 f   libsrtp-i386-win32-vc14-release:aes.obj
 0001:0003c390       _aes_inv_round             0043d390 f   libsrtp-i386-win32-vc14-release:aes.obj
 0001:0003c480       _aes_round                 0043d480 f   libsrtp-i386-win32-vc14-release:aes.obj
 0001:0003d790       $LN112                     0043e790     libsrtp-i386-win32-vc14-release:sha1.obj
 0001:0003d8cc       ?pre_c_initialization@@YAHXZ 0043e8cc f   MSVCRT:exe_main.obj
 0001:0003d977       ?post_pgo_initialization@@YAHXZ 0043e977 f   MSVCRT:exe_main.obj
 0001:0003d97f       ?pre_cpp_initialization@@YAXXZ 0043e97f f   MSVCRT:exe_main.obj
 0001:0003d991       ?__scrt_common_main_seh@@YAHXZ 0043e991 f   MSVCRT:exe_main.obj
 0001:0003db20       $$000000                   0043eb20     MSVCRT:ulldiv.obj
 0001:0003dd90       $$000000                   0043ed90     MSVCRT:svml_dcos2_dispatch.obj
 0001:0003dda0       $$000000                   0043eda0     MSVCRT:lldiv.obj
 0001:0003de50       $$000000                   0043ee50     MSVCRT:llmul.obj
 0001:0003de90       $$000000                   0043ee90     MSVCRT:ftol3.obj
 0001:0003e210       $$000000                   0043f210     MSVCRT:chkstk.obj
 0001:0003e240       $$000000                   0043f240     MSVCRT:alloca16.obj
 0001:0003e403       ?find_pe_section@@YAPAU_IMAGE_SECTION_HEADER@@QAEI@Z 0043f403 f   MSVCRT:utility.obj
 0001:0003e680       ___get_entropy             0043f680 f   MSVCRT:gs_support.obj
 0001:0003e9a0       $$000000                   0043f9a0     MSVCRT:sehprolg4.obj
 0001:0003ea20       $$000000                   0043fa20     MSVCRT:svml_dcos2_sse2.obj
 0001:0003ebd0       $$000000                   0043fbd0     MSVCRT:svml_dtrig.obj
 0001:0003eec0       ___common_srl              0043fec0 f   MSVCRT:svml_dtrig.obj
 0001:0003eef0       ___common_sll              0043fef0 f   MSVCRT:svml_dtrig.obj
 0001:0003f520       _FLOAT2INT16               00440520 f   opus:opus_encoder.obj
 0001:0003f570       _compute_equiv_rate        00440570 f   opus:opus_encoder.obj
 0001:0003f650       _compute_frame_energy      00440650 f   opus:opus_encoder.obj
 0001:0003f680       _compute_redundancy_bytes  00440680 f   opus:opus_encoder.obj
 0001:0003f720       _compute_silk_rate_for_hybrid 00440720 f   opus:opus_encoder.obj
 0001:0003fd20       _encode_multiframe_packet  00440d20 f   opus:opus_encoder.obj
 0001:00040000       _gain_fade                 00441000 f   opus:opus_encoder.obj
 0001:000401d0       _gen_toc                   004411d0 f   opus:opus_encoder.obj
 0001:00042b90       $LN788                     00443b90     opus:opus_encoder.obj
 0001:0004345c       $LN122                     0044445c     opus:opus_encoder.obj
 0001:00043840       _silk_biquad_float         00444840 f   opus:opus_encoder.obj
 0001:000438e0       _user_bitrate_to_bitrate   004448e0 f   opus:opus_encoder.obj
 0001:00043ae0       _opus_decode_frame         00444ae0 f   opus:opus_decoder.obj
 0001:00044418       $LN216                     00445418     opus:opus_decoder.obj
 0001:00044a10       _smooth_fade               00445a10 f   opus:opus_decoder.obj
 0001:00044b80       _opus_repacketizer_cat_impl 00445b80 f   opus:repacketizer.obj
 0001:00044fb0       _alloc_trim_analysis       00445fb0 f   opus:celt_encoder.obj
 0001:00047250       _celt_maxabs16             00448250 f   opus:celt_encoder.obj
 0001:00047610       _compute_mdcts             00448610 f   opus:celt_encoder.obj
 0001:000477e0       _compute_vbr               004487e0 f   opus:celt_encoder.obj
 0001:00047a90       _dynalloc_analysis         00448a90 f   opus:celt_encoder.obj
 0001:00048170       _l1_metric                 00449170 f   opus:celt_encoder.obj
 0001:000481e0       _median_of_5               004491e0 f   opus:celt_encoder.obj
 0001:00048550       $LN66                      00449550     opus:celt_encoder.obj
 0001:00048580       $LN61                      00449580     opus:celt_encoder.obj
 0001:000485b0       $LN67                      004495b0     opus:celt_encoder.obj
 0001:000485d8       $LN62                      004495d8     opus:celt_encoder.obj
 0001:000485f0       _patch_transient_decision  004495f0 f   opus:celt_encoder.obj
 0001:000487b0       _run_prefilter             004497b0 f   opus:celt_encoder.obj
 0001:00048c70       _tf_analysis               00449c70 f   opus:celt_encoder.obj
 0001:000490a0       _transient_analysis        0044a0a0 f   opus:celt_encoder.obj
 0001:00049470       _ec_enc_carry_out          0044a470 f   opus:entenc.obj
 0001:00049730       _ec_enc_normalize          0044a730 f   opus:entenc.obj
 0001:0004aa60       _downmix_and_resample      0044ba60 f   opus:analysis.obj
 0001:0004acd0       _silk_resampler_down2_hp   0044bcd0 f   opus:analysis.obj
 0001:0004ad70       _tonality_analysis         0044bd70 f   opus:analysis.obj
 0001:0004d240       _xcorr_kernel_c            0044e240 f   opus:x86_celt_map.obj
 0001:0004d470       _dual_inner_prod_c         0044e470 f   opus:x86_celt_map.obj
 0001:0004d4c0       _celt_inner_prod_c         0044e4c0 f   opus:x86_celt_map.obj
 0001:0004d540       _celt_decode_lost          0044e540 f   opus:celt_decoder.obj
 0001:0004ebf0       _celt_plc_pitch_search     0044fbf0 f   opus:celt_decoder.obj
 0001:0004ec60       _celt_synthesis            0044fc60 f   opus:celt_decoder.obj
 0001:0004f020       _deemphasis                00450020 f   opus:celt_decoder.obj
 0001:0004f620       $LN46                      00450620     opus:celt_decoder.obj
 0001:0004f63c       $LN47                      0045063c     opus:celt_decoder.obj
 0001:0004f7e0       _ec_dec_normalize          004507e0 f   opus:entdec.obj
 0001:000503a0       _parse_size                004513a0 f   opus:opus.obj
 0001:00051950       _find_best_pitch           00452950 f   opus:pitch.obj
 0001:000527b0       _interp_bits2pulses        004537b0 f   opus:rate.obj
 0001:000532d0       _compute_theta             004542d0 f   opus:bands.obj
 0001:00053960       _deinterleave_hadamard     00454960 f   opus:bands.obj
 0001:00053e30       _intensity_stereo          00454e30 f   opus:bands.obj
 0001:00053f10       _interleave_hadamard       00454f10 f   opus:bands.obj
 0001:00055130       _quant_band                00456130 f   opus:bands.obj
 0001:00055490       _quant_band_n1             00456490 f   opus:bands.obj
 0001:00055580       _quant_band_stereo         00456580 f   opus:bands.obj
 0001:000559d0       _quant_partition           004569d0 f   opus:bands.obj
 0001:00056680       _quant_coarse_energy_impl  00457680 f   opus:quant_bands.obj
 0001:00057310       _silk_DIV32_varQ           00458310 f   opus:stereo_find_predictor.obj
 0001:00057310       _silk_DIV32_varQ           00458310 f   opus:stereo_LR_to_MS.obj
 0001:000595b0       _silk_setup_complexity     0045a5b0 f   opus:control_codec.obj
 0001:00059840       _silk_setup_fs             0045a840 f   opus:control_codec.obj
 0001:00059ac0       _silk_setup_resamplers     0045aac0 f   opus:control_codec.obj
 0001:00059d30       _kf_bfly4                  0045ad30 f   opus:kiss_fft.obj
 0001:00059f50       _kf_bfly5                  0045af50 f   opus:kiss_fft.obj
 0001:0005a5d4       $LN131                     0045b5d4     opus:kiss_fft.obj
 0001:0005a928       $LN117                     0045b928     opus:kiss_fft.obj
 0001:0005b680       _exp_rotation1             0045c680 f   opus:vq.obj
 0001:0005b710       _extract_collapse_mask     0045c710 f   opus:vq.obj
 0001:0005d670       _silk_resampler_private_down_FIR_INTERPOL 0045e670 f   opus:resampler_private_down_FIR.obj
 0001:0005e1e0       _silk_SQRT_APPROX          0045f1e0 f   opus:VAD_sse.obj
 0001:0005e1e0       _silk_SQRT_APPROX          0045f1e0 f   opus:VAD.obj
 0001:0005e1e0       _silk_SQRT_APPROX          0045f1e0 f   opus:stereo_find_predictor.obj
 0001:0005e1e0       _silk_SQRT_APPROX          0045f1e0 f   opus:CNG.obj
 0001:0005ef60       _silk_LP_interpolate_filter_taps 0045ff60 f   opus:LP_variable_cutoff.obj
 0001:0005fa40       _warped_true2monic_coefs   00460a40 f   opus:noise_shape_analysis_FLP.obj
 0001:00061670       _cwrsi                     00462670 f   opus:cwrs.obj
 0001:00061a10       _silk_PLC_conceal          00462a10 f   opus:PLC.obj
 0001:00062650       _silk_PLC_update           00463650 f   opus:PLC.obj
 0001:00064710       _silk_P_Ana_calc_corr_st3  00465710 f   opus:pitch_analysis_core_FLP.obj
 0001:00064960       _silk_P_Ana_calc_energy_st3 00465960 f   opus:pitch_analysis_core_FLP.obj
 0001:00064af0       _silk_float2short_array    00465af0 f   opus:pitch_analysis_core_FLP.obj
 0001:00065810       _silk_short2float_array    00466810 f   opus:pitch_analysis_core_FLP.obj
 0001:00065b58       $LN59                      00466b58     opus:LPC_analysis_filter_FLP.obj
 0001:00065b70       $LN56                      00466b70     opus:LPC_analysis_filter_FLP.obj
 0001:00066860       _silk_A2NLSF_eval_poly     00467860 f   opus:A2NLSF.obj
 0001:000669b0       _silk_A2NLSF_init          004679b0 f   opus:A2NLSF.obj
 0001:00066a90       _silk_A2NLSF_trans_poly    00467a90 f   opus:A2NLSF.obj
 0001:00066c90       _silk_NLSF2A_find_poly     00467c90 f   opus:NLSF2A.obj
 0001:00067720       _silk_noise_shape_quantizer_short_prediction_c 00468720 f   opus:NSQ.obj
 0001:00067980       _silk_nsq_scale_states     00468980 f   opus:NSQ.obj
 0001:00068500       _silk_noise_shape_quantizer_del_dec 00469500 f   opus:NSQ_del_dec.obj
 0001:00069150       _silk_nsq_del_dec_scale_states 0046a150 f   opus:NSQ_del_dec.obj
 0001:0006a110       _LPC_inverse_pred_gain_QA_c 0046b110 f   opus:LPC_inv_pred_gain.obj
 0001:0006cac0       $$000000                   0046dac0     libcmt:ftol2.obj
 0001:0006cb80       $$000000                   0046db80     libcmt:llshr.obj
 0002:0000027c       ?pre_cpp_initializer@@3P6AXXZA 0046e27c     MSVCRT:exe_main.obj
 0002:00000288       ?pre_c_initializer@@3P6AHXZA 0046e288     MSVCRT:exe_main.obj
 0002:0000028c       ?post_pgo_initializer@@3P6AHXZA 0046e28c     MSVCRT:exe_main.obj
 0002:000002c0       _STR_L16                   0046e2c0     pjmedia-codec-i386-win32-vc14-release:l16.obj
 0002:000002e0       ?inband_skip_table@?1??speex_get_next_frame@@9@9 0046e2e0     pjmedia-codec-i386-win32-vc14-release:speex_codec.obj
 0002:00000320       ?wb_skip_table@?1??speex_get_next_frame@@9@9 0046e320     pjmedia-codec-i386-win32-vc14-release:speex_codec.obj
 0002:00000750       ?q6@?1??block1l@@9@9       0046e750     pjmedia-codec-i386-win32-vc14-release:g722_enc.obj
 0002:000007d0       ?iln@?1??block1l@@9@9      0046e7d0     pjmedia-codec-i386-win32-vc14-release:g722_enc.obj
 0002:00000850       ?ilp@?1??block1l@@9@9      0046e850     pjmedia-codec-i386-win32-vc14-release:g722_enc.obj
 0002:000008d0       ?qm4@?1??block2l@@9@9      0046e8d0     pjmedia-codec-i386-win32-vc14-release:g722_enc.obj
 0002:00000910       ?wl@?1??block3l@@9@9       0046e910     pjmedia-codec-i386-win32-vc14-release:g722_enc.obj
 0002:00000930       ?rl42@?1??block3l@@9@9     0046e930     pjmedia-codec-i386-win32-vc14-release:g722_enc.obj
 0002:00000970       ?ilb@?1??block3l@@9@9      0046e970     pjmedia-codec-i386-win32-vc14-release:g722_enc.obj
 0002:000009f0       ?ihn@?1??block1h@@9@9      0046e9f0     pjmedia-codec-i386-win32-vc14-release:g722_enc.obj
 0002:000009fc       ?ihp@?1??block1h@@9@9      0046e9fc     pjmedia-codec-i386-win32-vc14-release:g722_enc.obj
 0002:00000a08       ?qm2@?1??block2h@@9@9      0046ea08     pjmedia-codec-i386-win32-vc14-release:g722_enc.obj
 0002:00000a18       ?wh@?1??block3h@@9@9       0046ea18     pjmedia-codec-i386-win32-vc14-release:g722_enc.obj
 0002:00000a24       ?rh2@?1??block3h@@9@9      0046ea24     pjmedia-codec-i386-win32-vc14-release:g722_enc.obj
 0002:00000a38       ?ilb@?1??block3h@@9@9      0046ea38     pjmedia-codec-i386-win32-vc14-release:g722_enc.obj
 0002:00000ab8       _qm4                       0046eab8     pjmedia-codec-i386-win32-vc14-release:g722_dec.obj
 0002:00000af8       _ilb                       0046eaf8     pjmedia-codec-i386-win32-vc14-release:g722_dec.obj
 0002:00000b78       ?wl@?1??block3l@@9@9       0046eb78     pjmedia-codec-i386-win32-vc14-release:g722_dec.obj
 0002:00000b98       ?rl42@?1??block3l@@9@9     0046eb98     pjmedia-codec-i386-win32-vc14-release:g722_dec.obj
 0002:00000bd8       ?qm6@?1??block5l@@9@9      0046ebd8     pjmedia-codec-i386-win32-vc14-release:g722_dec.obj
 0002:00000cd8       ?qm2@?1??block2h@@9@9      0046ecd8     pjmedia-codec-i386-win32-vc14-release:g722_dec.obj
 0002:00000ce8       ?wh@?1??block3h@@9@9       0046ece8     pjmedia-codec-i386-win32-vc14-release:g722_dec.obj
 0002:00000cf4       ?rh2@?1??block3h@@9@9      0046ecf4     pjmedia-codec-i386-win32-vc14-release:g722_dec.obj
 0002:00000d08       _err_str                   0046ed08     pjmedia-audiodev-i386-win32-vc14-release:errno.obj
 0002:00001524       _STR_RTP_AVP               0046f524     pjmedia-i386-win32-vc14-release:endpoint.obj
 0002:0000152c       _STR_IN                    0046f52c     pjmedia-i386-win32-vc14-release:endpoint.obj
 0002:00001534       _STR_IP4                   0046f534     pjmedia-i386-win32-vc14-release:endpoint.obj
 0002:0000153c       _STR_IP6                   0046f53c     pjmedia-i386-win32-vc14-release:endpoint.obj
 0002:00001544       _STR_SDP_NAME              0046f544     pjmedia-i386-win32-vc14-release:endpoint.obj
 0002:0000154c       _STR_SENDRECV              0046f54c     pjmedia-i386-win32-vc14-release:endpoint.obj
 0002:000016b8       _ID_RTP_AVP                0046f6b8     pjmedia-i386-win32-vc14-release:transport_srtp.obj
 0002:000016c0       _ID_RTP_SAVP               0046f6c0     pjmedia-i386-win32-vc14-release:transport_srtp.obj
 0002:000016c8       _ID_CRYPTO                 0046f6c8     pjmedia-i386-win32-vc14-release:transport_srtp.obj
 0002:00001f90       _err_str                   0046ff90     pjmedia-i386-win32-vc14-release:errno.obj
 0002:0000c010       _err_str                   0047a010     pjlib-util-i386-win32-vc14-release:errno.obj
 0002:0000cf38       _base64_char               0047af38     pjlib-util-i386-win32-vc14-release:base64.obj
 0002:0000d1f0       _err_str                   0047b1f0     pjlib-i386-win32-vc14-release:errno.obj
 0002:0000d968       _gaErrorList               0047b968     pjlib-i386-win32-vc14-release:os_error_win32.obj
 0002:0000e670       _bitoff                    0047c670     libgsmcodec-i386-win32-vc14-release:add.obj
 0002:0000f118       _ltp_params_nb             0047d118     libspeex-i386-win32-vc14-release:modes.obj
 0002:0000f124       _ltp_params_vlbr           0047d124     libspeex-i386-win32-vc14-release:modes.obj
 0002:0000f130       _ltp_params_lbr            0047d130     libspeex-i386-win32-vc14-release:modes.obj
 0002:0000f13c       _ltp_params_med            0047d13c     libspeex-i386-win32-vc14-release:modes.obj
 0002:0000f148       _split_cb_nb_vlbr          0047d148     libspeex-i386-win32-vc14-release:modes.obj
 0002:0000f15c       _split_cb_nb_ulbr          0047d15c     libspeex-i386-win32-vc14-release:modes.obj
 0002:0000f170       _split_cb_nb_lbr           0047d170     libspeex-i386-win32-vc14-release:modes.obj
 0002:0000f184       _split_cb_nb               0047d184     libspeex-i386-win32-vc14-release:modes.obj
 0002:0000f198       _split_cb_nb_med           0047d198     libspeex-i386-win32-vc14-release:modes.obj
 0002:0000f1ac       _split_cb_sb               0047d1ac     libspeex-i386-win32-vc14-release:modes.obj
 0002:0000f1c0       _nb_submode1               0047d1c0     libspeex-i386-win32-vc14-release:modes.obj
 0002:0000f1f8       _nb_submode8               0047d1f8     libspeex-i386-win32-vc14-release:modes.obj
 0002:0000f230       _nb_submode2               0047d230     libspeex-i386-win32-vc14-release:modes.obj
 0002:0000f268       _nb_submode3               0047d268     libspeex-i386-win32-vc14-release:modes.obj
 0002:0000f2a0       _nb_submode4               0047d2a0     libspeex-i386-win32-vc14-release:modes.obj
 0002:0000f2d8       _nb_submode5               0047d2d8     libspeex-i386-win32-vc14-release:modes.obj
 0002:0000f310       _nb_submode6               0047d310     libspeex-i386-win32-vc14-release:modes.obj
 0002:0000f348       _nb_submode7               0047d348     libspeex-i386-win32-vc14-release:modes.obj
 0002:0000f380       _nb_mode                   0047d380     libspeex-i386-win32-vc14-release:modes.obj
 0002:0000f5c8       _split_cb_high             0047d5c8     libspeex-i386-win32-vc14-release:modes_wb.obj
 0002:0000f5dc       _split_cb_high_lbr         0047d5dc     libspeex-i386-win32-vc14-release:modes_wb.obj
 0002:0000f5f0       _wb_submode1               0047d5f0     libspeex-i386-win32-vc14-release:modes_wb.obj
 0002:0000f628       _wb_submode2               0047d628     libspeex-i386-win32-vc14-release:modes_wb.obj
 0002:0000f660       _wb_submode3               0047d660     libspeex-i386-win32-vc14-release:modes_wb.obj
 0002:0000f698       _wb_submode4               0047d698     libspeex-i386-win32-vc14-release:modes_wb.obj
 0002:0000f6d0       _sb_wb_mode                0047d6d0     libspeex-i386-win32-vc14-release:modes_wb.obj
 0002:0000f7a8       _sb_uwb_mode               0047d7a8     libspeex-i386-win32-vc14-release:modes_wb.obj
 0002:00010b80       _wb_skip_table             0047eb80     libspeex-i386-win32-vc14-release:nb_celp.obj
 0002:00011710       _gc_quant_bound            0047f710     libspeex-i386-win32-vc14-release:sb_celp.obj
 0002:00011750       _fold_quant_bound          0047f750     libspeex-i386-win32-vc14-release:sb_celp.obj
 0002:000117d0       _h0                        0047f7d0     libspeex-i386-win32-vc14-release:sb_celp.obj
 0002:00013348       _srtp_null_cipher_description 00481348     libsrtp-i386-win32-vc14-release:null_cipher.obj
 0002:00013354       _srtp_null_cipher_test_0   00481354     libsrtp-i386-win32-vc14-release:null_cipher.obj
 0002:0001340c       _srtp_aes_icm_128_description 0048140c     libsrtp-i386-win32-vc14-release:aes_icm.obj
 0002:0001342c       _srtp_aes_icm_256_description 0048142c     libsrtp-i386-win32-vc14-release:aes_icm.obj
 0002:0001344c       _srtp_aes_icm_128_test_case_0_key 0048144c     libsrtp-i386-win32-vc14-release:aes_icm.obj
 0002:0001346c       _srtp_aes_icm_128_test_case_0_plaintext 0048146c     libsrtp-i386-win32-vc14-release:aes_icm.obj
 0002:0001348c       _srtp_aes_icm_128_test_case_0_ciphertext 0048148c     libsrtp-i386-win32-vc14-release:aes_icm.obj
 0002:000134ac       _srtp_aes_icm_128_test_case_0 004814ac     libsrtp-i386-win32-vc14-release:aes_icm.obj
 0002:000134d8       _srtp_aes_icm_256_test_case_0_key 004814d8     libsrtp-i386-win32-vc14-release:aes_icm.obj
 0002:00013508       _srtp_aes_icm_256_test_case_0_plaintext 00481508     libsrtp-i386-win32-vc14-release:aes_icm.obj
 0002:00013528       _srtp_aes_icm_256_test_case_0_ciphertext 00481528     libsrtp-i386-win32-vc14-release:aes_icm.obj
 0002:00013548       _srtp_aes_icm_256_test_case_0 00481548     libsrtp-i386-win32-vc14-release:aes_icm.obj
 0002:00013660       _srtp_null_auth_test_case_0 00481660     libsrtp-i386-win32-vc14-release:null_auth.obj
 0002:0001367c       _srtp_null_auth_description 0048167c     libsrtp-i386-win32-vc14-release:null_auth.obj
 0002:00013718       _srtp_hmac_test_case_0_key 00481718     libsrtp-i386-win32-vc14-release:hmac.obj
 0002:0001372c       _srtp_hmac_test_case_0_data 0048172c     libsrtp-i386-win32-vc14-release:hmac.obj
 0002:00013734       _srtp_hmac_test_case_0_tag 00481734     libsrtp-i386-win32-vc14-release:hmac.obj
 0002:00013748       _srtp_hmac_test_case_0     00481748     libsrtp-i386-win32-vc14-release:hmac.obj
 0002:00013764       _srtp_hmac_description     00481764     libsrtp-i386-win32-vc14-release:hmac.obj
 0002:000137d0       _T0                        004817d0     libsrtp-i386-win32-vc14-release:aes.obj
 0002:00013bd0       _T1                        00481bd0     libsrtp-i386-win32-vc14-release:aes.obj
 0002:00013fd0       _T2                        00481fd0     libsrtp-i386-win32-vc14-release:aes.obj
 0002:000143d0       _T3                        004823d0     libsrtp-i386-win32-vc14-release:aes.obj
 0002:000147d0       _U0                        004827d0     libsrtp-i386-win32-vc14-release:aes.obj
 0002:00014bd0       _U1                        00482bd0     libsrtp-i386-win32-vc14-release:aes.obj
 0002:00014fd0       _U2                        00482fd0     libsrtp-i386-win32-vc14-release:aes.obj
 0002:000153d0       _U3                        004833d0     libsrtp-i386-win32-vc14-release:aes.obj
 0002:000157d0       _aes_sbox                  004837d0     libsrtp-i386-win32-vc14-release:aes.obj
 0002:000158d0       _aes_inv_sbox              004838d0     libsrtp-i386-win32-vc14-release:aes.obj
 0002:00015a80       _GS_ExceptionPointers      00483a80     MSVCRT:gs_report.obj
 0002:00015a90       _Int32ToUInt32             00483a90     MSVCRT:ftol3.obj
 0002:00015a98       _DP2to32                   00483a98     MSVCRT:ftol3.obj
 0002:00015aa0       _MantissaMask              00483aa0     MSVCRT:ftol3.obj
 0002:00015aa8       _IntegerBit                00483aa8     MSVCRT:ftol3.obj
 0002:00015ab0       _SignBit64                 00483ab0     MSVCRT:ftol3.obj
 0002:00015ab8       _MinFP64                   00483ab8     MSVCRT:ftol3.obj
 0002:00015ac0       _MinInt64                  00483ac0     MSVCRT:ftol3.obj
 0002:00015ac8       _MaxInt64                  00483ac8     MSVCRT:ftol3.obj
 0002:00015ad0       _MaxUInt64                 00483ad0     MSVCRT:ftol3.obj
 0002:00015ad8       _MaxFP32                   00483ad8     MSVCRT:ftol3.obj
 0002:00015ae0       _MinFP32                   00483ae0     MSVCRT:ftol3.obj
 0002:00015ae8       _MinSubInexact             00483ae8     MSVCRT:ftol3.obj
 0002:00015af0       _FpExcptTable              00483af0     MSVCRT:ftol3.obj
 0002:00015b00       _i1075                     00483b00     MSVCRT:ftol3.obj
 0002:00015b04       _i1087                     00483b04     MSVCRT:ftol3.obj
 0002:00015b08       _x0800                     00483b08     MSVCRT:ftol3.obj
 0002:00015b0c       _x17FF                     00483b0c     MSVCRT:ftol3.obj
 0002:00015b10       _CWMask                    00483b10     MSVCRT:ftol3.obj
 0002:00015b14       _mono_voice_bandwidth_thresholds 00483b14     opus:opus_encoder.obj
 0002:00015b34       _mono_music_bandwidth_thresholds 00483b34     opus:opus_encoder.obj
 0002:00015b54       _stereo_voice_bandwidth_thresholds 00483b54     opus:opus_encoder.obj
 0002:00015b74       _stereo_music_bandwidth_thresholds 00483b74     opus:opus_encoder.obj
 0002:00015b94       _fec_thresholds            00483b94     opus:opus_encoder.obj
 0002:00015c10       _trim_icdf                 00483c10     opus:celt_encoder.obj
 0002:00015c1c       _spread_icdf               00483c1c     opus:celt_encoder.obj
 0002:00015c20       _tapset_icdf               00483c20     opus:celt_encoder.obj
 0002:00015c28       ?intensity_thresholds@?EG@??celt_encode_with_ec@@9@9 00483c28     opus:celt_encoder.obj
 0002:00015c80       ?intensity_histeresis@?EG@??celt_encode_with_ec@@9@9 00483c80     opus:celt_encoder.obj
 0002:00015cd8       ?inv_table@?1??transient_analysis@@9@9 00483cd8     opus:celt_encoder.obj
 0002:00015e08       _dct_table                 00483e08     opus:analysis.obj
 0002:00016008       _analysis_window           00484008     opus:analysis.obj
 0002:000163c8       _tbands                    004843c8     opus:analysis.obj
 0002:00016414       _std_feature_bias          00484414     opus:analysis.obj
 0002:000165a0       _trim_icdf                 004845a0     opus:celt_decoder.obj
 0002:000165ac       _spread_icdf               004845ac     opus:celt_decoder.obj
 0002:000165b0       _tapset_icdf               004845b0     opus:celt_decoder.obj
 0002:000165c8       _eband5ms                  004845c8     opus:modes.obj
 0002:000165f4       _logN400                   004845f4     opus:modes.obj
 0002:00016620       _band_allocation           00484620     opus:modes.obj
 0002:00016708       _window120                 00484708     opus:modes.obj
 0002:000168e8       _cache_index50             004848e8     opus:modes.obj
 0002:000169c0       _cache_bits50              004849c0     opus:modes.obj
 0002:00016b48       _cache_caps50              00484b48     opus:modes.obj
 0002:00016bf0       _fft_twiddles48000_960     00484bf0     opus:modes.obj
 0002:00017af0       _fft_bitrev480             00485af0     opus:modes.obj
 0002:00017eb0       _fft_bitrev240             00485eb0     opus:modes.obj
 0002:00018090       _fft_bitrev120             00486090     opus:modes.obj
 0002:00018180       _fft_bitrev60              00486180     opus:modes.obj
 0002:000181f8       _fft_state48000_960_0      004861f8     opus:modes.obj
 0002:00018230       _fft_state48000_960_1      00486230     opus:modes.obj
 0002:00018268       _fft_state48000_960_2      00486268     opus:modes.obj
 0002:000182a0       _fft_state48000_960_3      004862a0     opus:modes.obj
 0002:000182d8       _mdct_twiddles960          004862d8     opus:modes.obj
 0002:00019ef8       _mode48000_960_120         00487ef8     opus:modes.obj
 0002:00019f64       _static_mode_list          00487f64     opus:modes.obj
 0002:00019f68       ?correction@?1??ec_tell_frac@@9@9 00487f68     opus:entcode.obj
 0002:00019fa8       ?gains@?1??comb_filter@@9@9 00487fa8     opus:celt.obj
 0002:00019fcc       ?error_strings@?1??opus_strerror@@9@9 00487fcc     opus:celt.obj
 0002:0001a088       _second_check              00488088     opus:pitch.obj
 0002:0001a0e8       _LOG2_FRAC_TABLE           004880e8     opus:rate.obj
 0002:0001a100       _ordery_table              00488100     opus:bands.obj
 0002:0001a178       ?exp2_table8@?1??compute_qn@@9@9 00488178     opus:bands.obj
 0002:0001a188       ?bit_interleave_table@?5??quant_band@@9@9 00488188     opus:bands.obj
 0002:0001a198       ?bit_deinterleave_table@?N@??quant_band@@9@9 00488198     opus:bands.obj
 0002:0001a22c       _small_energy_icdf         0048822c     opus:quant_bands.obj
 0002:0001a230       _e_prob_model              00488230     opus:quant_bands.obj
 0002:0001a380       _pred_coef                 00488380     opus:quant_bands.obj
 0002:0001a390       _beta_coef                 00488390     opus:quant_bands.obj
 0002:0001a3b8       _delay_matrix_enc          004883b8     opus:resampler.obj
 0002:0001a3c8       _delay_matrix_dec          004883c8     opus:resampler.obj
 0002:0001a548       _silk_LBRR_flags_2_iCDF    00488548     opus:tables_other.obj
 0002:0001a54c       _silk_LBRR_flags_3_iCDF    0048854c     opus:tables_other.obj
 0002:0001a558       _tansig_table              00488558     opus:mlp.obj
 0002:0001a88c       _topo                      0048888c     opus:mlp_data.obj
 0002:0001a898       _weights                   00488898     opus:mlp_data.obj
 0002:0001afa4       ?SPREAD_FACTOR@?1??exp_rotation@@9@9 00488fa4     opus:vq.obj
 0002:0001b638       _silk_LTP_gain_iCDF_0      00489638     opus:tables_LTP.obj
 0002:0001b640       _silk_LTP_gain_iCDF_1      00489640     opus:tables_LTP.obj
 0002:0001b650       _silk_LTP_gain_iCDF_2      00489650     opus:tables_LTP.obj
 0002:0001b670       _silk_LTP_gain_BITS_Q5_0   00489670     opus:tables_LTP.obj
 0002:0001b678       _silk_LTP_gain_BITS_Q5_1   00489678     opus:tables_LTP.obj
 0002:0001b688       _silk_LTP_gain_BITS_Q5_2   00489688     opus:tables_LTP.obj
 0002:0001b6a8       _silk_LTP_gain_vq_0        004896a8     opus:tables_LTP.obj
 0002:0001b6d0       _silk_LTP_gain_vq_1        004896d0     opus:tables_LTP.obj
 0002:0001b720       _silk_LTP_gain_vq_2        00489720     opus:tables_LTP.obj
 0002:0001b7c0       _silk_LTP_gain_vq_0_gain   004897c0     opus:tables_LTP.obj
 0002:0001b7c8       _silk_LTP_gain_vq_1_gain   004897c8     opus:tables_LTP.obj
 0002:0001b7d8       _silk_LTP_gain_vq_2_gain   004897d8     opus:tables_LTP.obj
 0002:0001b888       _tiltWeights               00489888     opus:VAD.obj
 0002:0001b8c0       _silk_NLSF_CB1_WB_Q8       004898c0     opus:tables_NLSF_CB_WB.obj
 0002:0001bac0       _silk_NLSF_CB1_WB_Wght_Q9  00489ac0     opus:tables_NLSF_CB_WB.obj
 0002:0001bec0       _silk_NLSF_CB1_iCDF_WB     00489ec0     opus:tables_NLSF_CB_WB.obj
 0002:0001bf00       _silk_NLSF_CB2_SELECT_WB   00489f00     opus:tables_NLSF_CB_WB.obj
 0002:0001c000       _silk_NLSF_CB2_iCDF_WB     0048a000     opus:tables_NLSF_CB_WB.obj
 0002:0001c048       _silk_NLSF_CB2_BITS_WB_Q5  0048a048     opus:tables_NLSF_CB_WB.obj
 0002:0001c090       _silk_NLSF_PRED_WB_Q8      0048a090     opus:tables_NLSF_CB_WB.obj
 0002:0001c0b0       _silk_NLSF_DELTA_MIN_WB_Q15 0048a0b0     opus:tables_NLSF_CB_WB.obj
 0002:0001c100       _silk_NLSF_CB1_NB_MB_Q8    0048a100     opus:tables_NLSF_CB_NB_MB.obj
 0002:0001c240       _silk_NLSF_CB1_Wght_Q9     0048a240     opus:tables_NLSF_CB_NB_MB.obj
 0002:0001c4c0       _silk_NLSF_CB1_iCDF_NB_MB  0048a4c0     opus:tables_NLSF_CB_NB_MB.obj
 0002:0001c500       _silk_NLSF_CB2_SELECT_NB_MB 0048a500     opus:tables_NLSF_CB_NB_MB.obj
 0002:0001c5a0       _silk_NLSF_CB2_iCDF_NB_MB  0048a5a0     opus:tables_NLSF_CB_NB_MB.obj
 0002:0001c5e8       _silk_NLSF_CB2_BITS_NB_MB_Q5 0048a5e8     opus:tables_NLSF_CB_NB_MB.obj
 0002:0001c630       _silk_NLSF_PRED_NB_MB_Q8   0048a630     opus:tables_NLSF_CB_NB_MB.obj
 0002:0001c644       _silk_NLSF_DELTA_MIN_NB_MB_Q15 0048a644     opus:tables_NLSF_CB_NB_MB.obj
 0002:0001c660       _CELT_PVQ_U_DATA           0048a660     opus:cwrs.obj
 0002:0001da40       _CELT_PVQ_U_ROW            0048ba40     opus:cwrs.obj
 0002:0001da7c       _HARM_ATT_Q15              0048ba7c     opus:PLC.obj
 0002:0001da80       _PLC_RAND_ATTENUATE_V_Q15  0048ba80     opus:PLC.obj
 0002:0001da84       _PLC_RAND_ATTENUATE_UV_Q15 0048ba84     opus:PLC.obj
 0002:0001daa8       ?ordering16@?1??silk_NLSF2A@@9@9 0048baa8     opus:NLSF2A.obj
 0002:0001dab8       ?ordering10@?1??silk_NLSF2A@@9@9 0048bab8     opus:NLSF2A.obj
 0002:0001dac4       _tiltWeights               0048bac4     opus:VAD_sse.obj
 0002:0001dad4       _sigm_LUT_slope_Q10        0048bad4     opus:sigm_Q15.obj
 0002:0001daec       _sigm_LUT_pos_Q15          0048baec     opus:sigm_Q15.obj
 0002:0001db04       _sigm_LUT_neg_Q15          0048bb04     opus:sigm_Q15.obj
 0002:0001e050       __sehtable$?__scrt_common_main_seh@@YAHXZ 0048c050     MSVCRT:exe_main.obj
 0002:0001e070       __sehtable$___scrt_is_nonwritable_in_current_image 0048c070     MSVCRT:utility.obj
 0002:0001e428       .idata$6                   0048c428     ole32:ole32.dll
 0002:0001e448       .idata$6                   0048c448     ws2_32:WS2_32.dll
 0002:0001e614       .idata$6                   0048c614     winmm:WINMM.dll
 0002:0001e978       .idata$6                   0048c978     kernel32:KERNEL32.dll
 0002:0001e9d2       .idata$6                   0048c9d2     vcruntime:VCRUNTIME140.dll
 0002:0001ed4c       .idata$6                   0048cd4c     ucrt:api-ms-win-crt-stdio-l1-1-0.dll
 0002:0001ed6c       .idata$6                   0048cd6c     ucrt:api-ms-win-crt-runtime-l1-1-0.dll
 0002:0001ed8e       .idata$6                   0048cd8e     ucrt:api-ms-win-crt-convert-l1-1-0.dll
 0002:0001edb0       .idata$6                   0048cdb0     ucrt:api-ms-win-crt-string-l1-1-0.dll
 0002:0001edd2       .idata$6                   0048cdd2     ucrt:api-ms-win-crt-math-l1-1-0.dll
 0002:0001edf2       .idata$6                   0048cdf2     ucrt:api-ms-win-crt-utility-l1-1-0.dll
 0002:0001ee14       .idata$6                   0048ce14     ucrt:api-ms-win-crt-heap-l1-1-0.dll
 0002:0001ee34       .idata$6                   0048ce34     ucrt:api-ms-win-crt-locale-l1-1-0.dll
 0003:00000000       $SG24965                   0048d000     pcaputil.obj
 0003:00000674       _USAGE                     0048d674     pcaputil.obj
 0003:00000678       $SG24988                   0048d678     pcaputil.obj
 0003:00000694       $SG25003                   0048d694     pcaputil.obj
 0003:000006a4       $SG25004                   0048d6a4     pcaputil.obj
 0003:000006b0       $SG25042                   0048d6b0     pcaputil.obj
 0003:000006e0       $SG25044                   0048d6e0     pcaputil.obj
 0003:000006f8       $SG25046                   0048d6f8     pcaputil.obj
 0003:00000720       $SG25049                   0048d720     pcaputil.obj
 0003:00000754       $SG25051                   0048d754     pcaputil.obj
 0003:0000077c       $SG25053                   0048d77c     pcaputil.obj
 0003:0000079c       $SG25055                   0048d79c     pcaputil.obj
 0003:000007c8       $SG25057                   0048d7c8     pcaputil.obj
 0003:000007dc       $SG25079                   0048d7dc     pcaputil.obj
 0003:000007fc       $SG25080                   0048d7fc     pcaputil.obj
 0003:00000808       $SG25201                   0048d808     pcaputil.obj
 0003:00000810       $SG25203                   0048d810     pcaputil.obj
 0003:00000844       $SG25206                   0048d844     pcaputil.obj
 0003:00000874       $SG25208                   0048d874     pcaputil.obj
 0003:000008b4       $SG25210                   0048d8b4     pcaputil.obj
 0003:000008f0       $SG25214                   0048d8f0     pcaputil.obj
 0003:0000092c       $SG25218                   0048d92c     pcaputil.obj
 0003:00000954       $SG25222                   0048d954     pcaputil.obj
 0003:00000988       $SG25216                   0048d988     pcaputil.obj
 0003:000009cc       $SG25220                   0048d9cc     pcaputil.obj
 0003:00000a04       $SG25224                   0048da04     pcaputil.obj
 0003:00000a2c       $SG25226                   0048da2c     pcaputil.obj
 0003:00000a54       $SG25229                   0048da54     pcaputil.obj
 0003:00000a58       $SG25231                   0048da58     pcaputil.obj
 0003:00000a8c       $SG25235                   0048da8c     pcaputil.obj
 0003:00000ab4       $SG25240                   0048dab4     pcaputil.obj
 0003:00000ac8       $SG25233                   0048dac8     pcaputil.obj
 0003:00000b14       $SG25247                   0048db14     pcaputil.obj
 0003:00000b40       $SG25239                   0048db40     pcaputil.obj
 0003:00000be0       $SG25242                   0048dbe0     pcaputil.obj
 0003:00000c38       $SG25244                   0048dc38     pcaputil.obj
 0003:00000c8c       $SG25250                   0048dc8c     pcaputil.obj
 0003:00000ca4       $SG25257                   0048dca4     pcaputil.obj
 0003:00000cd0       $SG25254                   0048dcd0     pcaputil.obj
 0003:00000d18       $SG25260                   0048dd18     pcaputil.obj
 0003:00000d30       $SG25318                   0048dd30     pcaputil.obj
 0003:00000d3c       $SG25320                   0048dd3c     pcaputil.obj
 0003:00000d48       $SG25322                   0048dd48     pcaputil.obj
 0003:00000d50       $SG25324                   0048dd50     pcaputil.obj
 0003:00000d58       $SG25326                   0048dd58     pcaputil.obj
 0003:00000d64       $SG25328                   0048dd64     pcaputil.obj
 0003:00000d70       $SG25330                   0048dd70     pcaputil.obj
 0003:00000d78       $SG25332                   0048dd78     pcaputil.obj
 0003:00000d84       $SG25333                   0048dd84     pcaputil.obj
 0003:00000d8c       $SG25337                   0048dd8c     pcaputil.obj
 0003:00000da0       $SG25345                   0048dda0     pcaputil.obj
 0003:00000db8       $SG25348                   0048ddb8     pcaputil.obj
 0003:00000dec       $SG25350                   0048ddec     pcaputil.obj
 0003:00000df8       $SG25351                   0048ddf8     pcaputil.obj
 0003:00000e04       $SG25353                   0048de04     pcaputil.obj
 0003:00000e18       $SG25355                   0048de18     pcaputil.obj
 0003:00000e54       $SG25357                   0048de54     pcaputil.obj
 0003:00000e84       $SG25359                   0048de84     pcaputil.obj
 0003:00000eac       _l16_op                    0048deac     pjmedia-codec-i386-win32-vc14-release:l16.obj
 0003:00000ecc       _l16_factory_op            0048decc     pjmedia-codec-i386-win32-vc14-release:l16.obj
 0003:00000ee4       _gsm_op                    0048dee4     pjmedia-codec-i386-win32-vc14-release:gsm.obj
 0003:00000f04       _gsm_factory_op            0048df04     pjmedia-codec-i386-win32-vc14-release:gsm.obj
 0003:00000f1c       _spx_op                    0048df1c     pjmedia-codec-i386-win32-vc14-release:speex_codec.obj
 0003:00000f3c       _spx_factory_op            0048df3c     pjmedia-codec-i386-win32-vc14-release:speex_codec.obj
 0003:00000f54       _STR_MODE                  0048df54     pjmedia-codec-i386-win32-vc14-release:ilbc.obj
 0003:00000f5c       _ilbc_op                   0048df5c     pjmedia-codec-i386-win32-vc14-release:ilbc.obj
 0003:00000f7c       _ilbc_factory_op           0048df7c     pjmedia-codec-i386-win32-vc14-release:ilbc.obj
 0003:00000f94       _g722_op                   0048df94     pjmedia-codec-i386-win32-vc14-release:g722.obj
 0003:00000fb4       _g722_factory_op           0048dfb4     pjmedia-codec-i386-win32-vc14-release:g722.obj
 0003:00000fcc       _opus_op                   0048dfcc     pjmedia-codec-i386-win32-vc14-release:opus.obj
 0003:00000fec       _opus_cfg                  0048dfec     pjmedia-codec-i386-win32-vc14-release:opus.obj
 0003:00001008       _STR_MAX_BIT_RATE          0048e008     pjmedia-codec-i386-win32-vc14-release:opus.obj
 0003:00001010       _STR_INBAND_FEC            0048e010     pjmedia-codec-i386-win32-vc14-release:opus.obj
 0003:00001018       _STR_DTX                   0048e018     pjmedia-codec-i386-win32-vc14-release:opus.obj
 0003:00001020       _STR_CBR                   0048e020     pjmedia-codec-i386-win32-vc14-release:opus.obj
 0003:00001028       _opus_factory_op           0048e028     pjmedia-codec-i386-win32-vc14-release:opus.obj
 0003:00001040       _STR_MAX_PLAYBACK          0048e040     pjmedia-codec-i386-win32-vc14-release:opus.obj
 0003:00001048       _STR_MAX_CAPTURE           0048e048     pjmedia-codec-i386-win32-vc14-release:opus.obj
 0003:00001050       _STR_STEREO                0048e050     pjmedia-codec-i386-win32-vc14-release:opus.obj
 0003:00001058       _STR_SPROP_STEREO          0048e058     pjmedia-codec-i386-win32-vc14-release:opus.obj
 0003:00001060       _stream_op                 0048e060     pjmedia-audiodev-i386-win32-vc14-release:wmme_dev.obj
 0003:00001078       _factory_op                0048e078     pjmedia-audiodev-i386-win32-vc14-release:wmme_dev.obj
 0003:00001098       _cap_infos                 0048e098     pjmedia-i386-win32-vc14-release:audiodev.obj
 0003:00001110       _transport_udp_op          0048e110     pjmedia-i386-win32-vc14-release:transport_loop.obj
 0003:00001148       _crypto_suites             0048e148     pjmedia-i386-win32-vc14-release:transport_srtp.obj
 0003:00001224       _transport_srtp_op         0048e224     pjmedia-i386-win32-vc14-release:transport_srtp.obj
 0003:00001258       ?liberr@?1??get_libsrtp_errstr@@9@9 0048e258     pjmedia-i386-win32-vc14-release:transport_srtp.obj
 0003:000012bc       _sdes_op                   0048e2bc     pjmedia-i386-win32-vc14-release:transport_srtp.obj
 0003:000012f0       _g711_op                   0048e2f0     pjmedia-i386-win32-vc14-release:g711.obj
 0003:00001310       _g711_factory_op           0048e310     pjmedia-i386-win32-vc14-release:g711.obj
 0003:00001328       _plc_wsola                 0048e328     pjmedia-i386-win32-vc14-release:plc_common.obj
 0003:0000133c       _thread_tls_id             0048e33c     pjlib-i386-win32-vc14-release:os_core_win32.obj
 0003:00001340       _pj_log_max_level          0048e340     pjlib-i386-win32-vc14-release:log.obj
 0003:00001344       _thread_suspended_tls_id   0048e344     pjlib-i386-win32-vc14-release:log.obj
 0003:00001348       _thread_indent_tls_id      0048e348     pjlib-i386-win32-vc14-release:log.obj
 0003:0000134c       _log_writer                0048e34c     pjlib-i386-win32-vc14-release:log.obj
 0003:00001350       _log_decor                 0048e350     pjlib-i386-win32-vc14-release:log.obj
 0003:00001354       _PJ_LOG_COLOR_0            0048e354     pjlib-i386-win32-vc14-release:log.obj
 0003:00001358       _PJ_LOG_COLOR_1            0048e358     pjlib-i386-win32-vc14-release:log.obj
 0003:0000135c       _PJ_LOG_COLOR_2            0048e35c     pjlib-i386-win32-vc14-release:log.obj
 0003:00001360       _PJ_LOG_COLOR_3            0048e360     pjlib-i386-win32-vc14-release:log.obj
 0003:00001364       _PJ_LOG_COLOR_4            0048e364     pjlib-i386-win32-vc14-release:log.obj
 0003:00001368       _PJ_LOG_COLOR_5            0048e368     pjlib-i386-win32-vc14-release:log.obj
 0003:0000136c       _PJ_LOG_COLOR_6            0048e36c     pjlib-i386-win32-vc14-release:log.obj
 0003:00001370       _PJ_LOG_COLOR_77           0048e370     pjlib-i386-win32-vc14-release:log.obj
 0003:00001374       ?ltexts@?2??pj_log@@9@9    0048e374     pjlib-i386-win32-vc14-release:log.obj
 0003:00001390       ?wdays@?3??pj_log@@9@9     0048e390     pjlib-i386-win32-vc14-release:log.obj
 0003:000013b0       _pool_sizes                0048e3b0     pjlib-i386-win32-vc14-release:pool_caching.obj
 0003:000013f0       _mutex_lock_template       0048e3f0     pjlib-i386-win32-vc14-release:lock.obj
 0003:00001404       _null_lock_template        0048e404     pjlib-i386-win32-vc14-release:lock.obj
 0003:00001418       _sem_lock_template         0048e418     pjlib-i386-win32-vc14-release:lock.obj
 0003:0000142c       _thread_local_id           0048e42c     pjlib-i386-win32-vc14-release:except.obj
 0003:00001430       ?hex@?1??hex2digit@@9@9    0048e430     pjlib-i386-win32-vc14-release:guid_win32.obj
 0003:00001444       _id                        0048e444     pjlib-i386-win32-vc14-release:config.obj
 0003:00001448       _tls                       0048e448     pjlib-i386-win32-vc14-release:pool_buf.obj
 0003:00003158       ?eps@?1??LSF_check@@9@9    00490158     libilbccodec-i386-win32-vc14-release:helpfun.obj
 0003:0000315c       ?eps2@?1??LSF_check@@9@9   0049015c     libilbccodec-i386-win32-vc14-release:helpfun.obj
 0003:00003160       ?maxlsf@?1??LSF_check@@9@9 00490160     libilbccodec-i386-win32-vc14-release:helpfun.obj
 0003:00003164       ?minlsf@?1??LSF_check@@9@9 00490164     libilbccodec-i386-win32-vc14-release:helpfun.obj
 0003:00003170       _srtp_event_handler        00490170     libsrtp-i386-win32-vc14-release:srtp.obj
 0003:000035f0       ?rate_table@?1??compute_silk_rate_for_hybrid@@9@9 004905f0     opus:opus_encoder.obj
 0003:0000367c       _A_fb1_20                  0049067c     opus:ana_filt_bank_1.obj
 0003:00003680       _A_fb1_21                  00490680     opus:ana_filt_bank_1.obj
 0003:000036a0       _app                       004906a0     pcaputil.obj
 0003:000038bc       _play_frm_copied           004908bc     pcaputil.obj
 0003:000038c0       _play_frm_ready            004908c0     pcaputil.obj
 0003:000038c4       _l16_factory               004908c4     pjmedia-codec-i386-win32-vc14-release:l16.obj
 0003:000038e0       _gsm_codec_factory         004908e0     pjmedia-codec-i386-win32-vc14-release:gsm.obj
 0003:00003910       _spx_factory               00490910     pjmedia-codec-i386-win32-vc14-release:speex_codec.obj
 0003:000039b8       _ilbc_factory              004909b8     pjmedia-codec-i386-win32-vc14-release:ilbc.obj
 0003:000039d4       _g722_codec_factory        004909d4     pjmedia-codec-i386-win32-vc14-release:g722.obj
 0003:00003a08       _opus_codec_factory        00490a08     pjmedia-codec-i386-win32-vc14-release:opus.obj
 0003:00003a20       ?bitrate_str@?1??generate_fmtp@@9@9 00490a20     pjmedia-codec-i386-win32-vc14-release:opus.obj
 0003:00003a2c       ?clockrate_str@?1??generate_fmtp@@9@9 00490a2c     pjmedia-codec-i386-win32-vc14-release:opus.obj
 0003:00003a38       ?name@?1??get_fmt_name@@9@9 00490a38     pjmedia-audiodev-i386-win32-vc14-release:wmme_dev.obj
 0003:00003a40       ?rec_cnt@?1??wmme_dev_thread@@9@9 00490a40     pjmedia-audiodev-i386-win32-vc14-release:wmme_dev.obj
 0003:00003a44       ?play_cnt@?1??wmme_dev_thread@@9@9 00490a44     pjmedia-audiodev-i386-win32-vc14-release:wmme_dev.obj
 0003:00003a48       _aud_subsys                00490a48     pjmedia-i386-win32-vc14-release:audiodev.obj
 0003:00003f18       ?msg@?3??get_libsrtp_errstr@@9@9 00490f18     pjmedia-i386-win32-vc14-release:transport_srtp.obj
 0003:00003f38       _libsrtp_initialized       00490f38     pjmedia-i386-win32-vc14-release:transport_srtp.obj
 0003:00003f3c       _g711_factory              00490f3c     pjmedia-i386-win32-vc14-release:g711.obj
 0003:00003f70       _event_manager_instance    00490f70     pjmedia-i386-win32-vc14-release:event.obj
 0003:00003f78       ?ev_queue@?9??pjmedia_event_publish@@9@9 00490f78     pjmedia-i386-win32-vc14-release:event.obj
 0003:00004388       _is_initialized            00491388     pjmedia-i386-win32-vc14-release:sdp.obj
 0003:00004390       _cis_buf                   00491390     pjmedia-i386-win32-vc14-release:sdp.obj
 0003:00004794       _cs_digit                  00491794     pjmedia-i386-win32-vc14-release:sdp.obj
 0003:0000479c       _cs_token                  0049179c     pjmedia-i386-win32-vc14-release:sdp.obj
 0003:000047a8       ___getopt_initialized      004917a8     pjlib-util-i386-win32-vc14-release:getopt.obj
 0003:000047ac       _nextchar                  004917ac     pjlib-util-i386-win32-vc14-release:getopt.obj
 0003:000047b0       _ordering                  004917b0     pjlib-util-i386-win32-vc14-release:getopt.obj
 0003:000047b4       _posixly_correct           004917b4     pjlib-util-i386-win32-vc14-release:getopt.obj
 0003:000047b8       _first_nonopt              004917b8     pjlib-util-i386-win32-vc14-release:getopt.obj
 0003:000047bc       _last_nonopt               004917bc     pjlib-util-i386-win32-vc14-release:getopt.obj
 0003:000047c0       _initialized               004917c0     pjlib-i386-win32-vc14-release:os_core_win32.obj
 0003:000047c4       _atexit_count              004917c4     pjlib-i386-win32-vc14-release:os_core_win32.obj
 0003:000047c8       _main_thread               004917c8     pjlib-i386-win32-vc14-release:os_core_win32.obj
 0003:000048c8       _critical_section_mutex    004918c8     pjlib-i386-win32-vc14-release:os_core_win32.obj
 0003:00004900       _atexit_func               00491900     pjlib-i386-win32-vc14-release:os_core_win32.obj
 0003:00004980       ?buf@?1??pj_gethostname@@9@9 00491980     pjlib-i386-win32-vc14-release:sock_bsd.obj
 0003:00004a00       ?hostname@?1??pj_gethostname@@9@9 00491a00     pjlib-i386-win32-vc14-release:sock_bsd.obj
 0003:00004a08       _err_msg_hnd_cnt           00491a08     pjlib-i386-win32-vc14-release:errno.obj
 0003:00004a10       _err_msg_hnd               00491a10     pjlib-i386-win32-vc14-release:errno.obj
 0003:00004a88       _g_last_thread             00491a88     pjlib-i386-win32-vc14-release:log.obj
 0003:00004a90       _base_time                 00491a90     pjlib-i386-win32-vc14-release:os_time_win32.obj
 0003:00004a98       _exception_id_names        00491a98     pjlib-i386-win32-vc14-release:except.obj
 0003:00004ad8       ?unknown_name@?1??pj_exception_id_name@@9@9 00491ad8     pjlib-i386-win32-vc14-release:except.obj
 0003:00004af8       _s_hDLL                    00491af8     pjlib-i386-win32-vc14-release:ip_helper_win32.obj
 0003:00004afc       _s_pfnGetIpAddrTable       00491afc     pjlib-i386-win32-vc14-release:ip_helper_win32.obj
 0003:00004b00       _s_pfnGetAdapterAddresses  00491b00     pjlib-i386-win32-vc14-release:ip_helper_win32.obj
 0003:00004b04       _s_pfnGetIpForwardTable    00491b04     pjlib-i386-win32-vc14-release:ip_helper_win32.obj
 0003:00004b08       _s_pfnGetIfEntry           00491b08     pjlib-i386-win32-vc14-release:ip_helper_win32.obj
 0003:00004b0c       _stack_based_factory       00491b0c     pjlib-i386-win32-vc14-release:pool_buf.obj
 0003:00004b30       _is_initialized            00491b30     pjlib-i386-win32-vc14-release:pool_buf.obj
 0003:00004b34       _srtp_log_handler          00491b34     libsrtp-i386-win32-vc14-release:srtp.obj
 0003:00004b38       _srtp_log_handler_data     00491b38     libsrtp-i386-win32-vc14-release:srtp.obj
 0003:00004b50       _srtp_aes_icm_128_test_case_0_nonce 00491b50     libsrtp-i386-win32-vc14-release:aes_icm.obj
 0003:00004b60       _srtp_aes_icm_256_test_case_0_nonce 00491b60     libsrtp-i386-win32-vc14-release:aes_icm.obj
 0003:00004b70       _GS_ExceptionRecord        00491b70     MSVCRT:gs_report.obj
 0003:00004bc0       _GS_ContextRecord          00491bc0     MSVCRT:gs_report.obj
 0003:00004e9c       ?is_initialized_as_dll@@3_NA 00491e9c     MSVCRT:utility.obj
 0003:00004e9d       ?module_local_atexit_table_initialized@@3_NA 00491e9d     MSVCRT:utility.obj
 0003:00004ea0       ?module_local_atexit_table@@3U_onexit_table_t@@A 00491ea0     MSVCRT:utility.obj
 0003:00004eac       ?module_local_at_quick_exit_table@@3U_onexit_table_t@@A 00491eac     MSVCRT:utility.obj
 0004:00000000       _static_const_table        00493000     MSVCRT:svml_dcos2_sse2.obj
 0004:00000200       __e02PI                    00493200     MSVCRT:svml_dtrig.obj
 0004:000003a0       __e04PI                    004933a0     MSVCRT:svml_dtrig.obj
 0004:00000530       _2il0floatpacket_2         00493530     MSVCRT:svml_dtrig.obj
 0004:00000540       _2il0floatpacket_9         00493540     MSVCRT:svml_dtrig.obj
 0004:00000550       _2il0floatpacket_12        00493550     MSVCRT:svml_dtrig.obj
 0004:00000560       __dPI02                    00493560     MSVCRT:svml_dtrig.obj
 0004:00000570       __d02PI                    00493570     MSVCRT:svml_dtrig.obj
 0004:00000580       __DP4                      00493580     MSVCRT:svml_dtrig.obj
 0004:000005a0       __dPI04                    004935a0     MSVCRT:svml_dtrig.obj
 0004:000005b0       __d04PI                    004935b0     MSVCRT:svml_dtrig.obj
 0004:000005c0       __QP4                      004935c0     MSVCRT:svml_dtrig.obj
