 siprtp

 Timestamp is 5dc90845 (Mon Nov 11 14:05:41 2019)

 Preferred load address is 00400000

 Start         Length     Name                   Class
 0001:00000000 00049178H .text$mn                CODE
 0002:00000000 0000029cH .idata$5                DATA
 0002:0000029c 00000004H .00cfg                  DATA
 0002:000002a0 00000004H .CRT$XCA                DATA
 0002:000002a4 00000004H .CRT$XCAA               DATA
 0002:000002a8 00000004H .CRT$XCZ                DATA
 0002:000002ac 00000004H .CRT$XIA                DATA
 0002:000002b0 00000004H .CRT$XIAA               DATA
 0002:000002b4 00000004H .CRT$XIAC               DATA
 0002:000002b8 00000004H .CRT$XIZ                DATA
 0002:000002bc 00000004H .CRT$XPA                DATA
 0002:000002c0 00000004H .CRT$XPZ                DATA
 0002:000002c4 00000004H .CRT$XTA                DATA
 0002:000002c8 00000008H .CRT$XTZ                DATA
 0002:000002cc 00000000H .gfids$y                DATA
 0002:000002d0 000156a0H .rdata                  DATA
 0002:00015970 00000004H .rdata$sxdata           DATA
 0002:00015974 0000023cH .rdata$zzzdbg           DATA
 0002:00015bb0 00000004H .rtc$IAA                DATA
 0002:00015bb4 00000004H .rtc$IZZ                DATA
 0002:00015bb8 00000004H .rtc$TAA                DATA
 0002:00015bbc 00000004H .rtc$TZZ                DATA
 0002:00015bc0 0000003cH .xdata$x                DATA
 0002:00015bfc 00000000H .edata                  DATA
 0002:00015bfc 00000104H .idata$2                DATA
 0002:00015d00 00000014H .idata$3                DATA
 0002:00015d14 0000029cH .idata$4                DATA
 0002:00015fb0 00000a2cH .idata$6                DATA
 0003:00000000 00002720H .data                   DATA
 0003:00002720 001db130H .bss                    DATA
 0004:00000000 000005e0H _RDATA                  DATA

  Address         Publics by Value              Rva+Base       Lib:Object

 0000:00000000       ___guard_longjmp_table     00000000     <absolute>
 0000:00000000       ___guard_fids_count        00000000     <absolute>
 0000:00000000       ___guard_iat_count         00000000     <absolute>
 0000:00000000       ___guard_fids_table        00000000     <absolute>
 0000:00000000       ___guard_iat_table         00000000     <absolute>
 0000:00000000       ___hybrid_code_map_count   00000000     <absolute>
 0000:00000000       ___enclave_config          00000000     <absolute>
 0000:00000000       ___hybrid_auxiliary_iat    00000000     <absolute>
 0000:00000000       ___guard_longjmp_count     00000000     <absolute>
 0000:00000000       ___dynamic_value_reloc_table 00000000     <absolute>
 0000:00000000       ___volatile_metadata       00000000     <absolute>
 0000:00000000       ___hybrid_code_map         00000000     <absolute>
 0000:00000001       ___safe_se_handler_count   00000001     <absolute>
 0000:00000100       ___guard_flags             00000100     <absolute>
 0000:00000000       ___ImageBase               00400000     <linker-defined>
 0001:00003cc0       _app_logging_init          00404cc0 f   siprtp.obj
 0001:00003d20       _app_logging_shutdown      00404d20 f   siprtp.obj
 0001:00003d40       _main                      00404d40 f   siprtp.obj
 0001:00004200       ___local_stdio_printf_options 00405200 f i siprtp.obj
 0001:00004210       _printf                    00405210 f i siprtp.obj
 0001:00004240       _sprintf                   00405240 f i siprtp.obj
 0001:00004330       ___scrt_stub_for_initialize_mta 00405330 f   MSVCRT:utility_desktop.obj
 0001:00004330       ___scrt_exe_initialize_mta 00405330 f   MSVCRT:utility_desktop.obj
 0001:00004330       __get_startup_commit_mode  00405330 f   MSVCRT:commit_mode.obj
 0001:00004330       _srtp_ekt_stream_init_from_policy 00405330 f   libsrtp-i386-win32-vc14-release:ekt.obj
 0001:00004330       __matherr                  00405330 f   MSVCRT:matherr.obj
 0001:00004330       __get_startup_thread_locale_mode 00405330 f   MSVCRT:thread_locale.obj
 0001:00004330       ___scrt_initialize_winrt   00405330 f   MSVCRT:utility_desktop.obj
 0001:00004330       __get_startup_new_mode     00405330 f   MSVCRT:new_mode.obj
 0001:00005a10       __snprintf                 00406a10 f i pjsip-ua-i386-win32-vc14-release:sip_inv.obj
 0001:000073b0       _pjsip_create_sdp_body     004083b0 f   pjsip-ua-i386-win32-vc14-release:sip_inv.obj
 0001:00007430       _pjsip_inv_add_ref         00408430 f   pjsip-ua-i386-win32-vc14-release:sip_inv.obj
 0001:00007460       _pjsip_inv_create_uac      00408460 f   pjsip-ua-i386-win32-vc14-release:sip_inv.obj
 0001:00007600       _pjsip_inv_create_uas      00408600 f   pjsip-ua-i386-win32-vc14-release:sip_inv.obj
 0001:00007850       _pjsip_inv_end_session     00408850 f   pjsip-ua-i386-win32-vc14-release:sip_inv.obj
 0001:00007ae0       _pjsip_inv_initial_answer  00408ae0 f   pjsip-ua-i386-win32-vc14-release:sip_inv.obj
 0001:00007c20       _pjsip_inv_invite          00408c20 f   pjsip-ua-i386-win32-vc14-release:sip_inv.obj
 0001:00007e80       _pjsip_inv_process_redirect 00408e80 f   pjsip-ua-i386-win32-vc14-release:sip_inv.obj
 0001:000081b0       _pjsip_inv_send_msg        004091b0 f   pjsip-ua-i386-win32-vc14-release:sip_inv.obj
 0001:00008410       _pjsip_inv_state_name      00409410 f   pjsip-ua-i386-win32-vc14-release:sip_inv.obj
 0001:00008430       _pjsip_inv_terminate       00409430 f   pjsip-ua-i386-win32-vc14-release:sip_inv.obj
 0001:000084f0       _pjsip_inv_uac_restart     004094f0 f   pjsip-ua-i386-win32-vc14-release:sip_inv.obj
 0001:00008560       _pjsip_inv_update          00409560 f   pjsip-ua-i386-win32-vc14-release:sip_inv.obj
 0001:00008780       _pjsip_inv_usage_init      00409780 f   pjsip-ua-i386-win32-vc14-release:sip_inv.obj
 0001:000087e0       _pjsip_inv_verify_request  004097e0 f   pjsip-ua-i386-win32-vc14-release:sip_inv.obj
 0001:00008810       _pjsip_inv_verify_request3 00409810 f   pjsip-ua-i386-win32-vc14-release:sip_inv.obj
 0001:000092b0       _pjsip_rdata_get_sdp_info  0040a2b0 f   pjsip-ua-i386-win32-vc14-release:sip_inv.obj
 0001:000098a0       _pjsip_100rel_attach       0040a8a0 f   pjsip-ua-i386-win32-vc14-release:sip_100rel.obj
 0001:00009910       _pjsip_100rel_create_prack 0040a910 f   pjsip-ua-i386-win32-vc14-release:sip_100rel.obj
 0001:00009bf0       _pjsip_100rel_end_session  0040abf0 f   pjsip-ua-i386-win32-vc14-release:sip_100rel.obj
 0001:00009c50       _pjsip_100rel_init_module  0040ac50 f   pjsip-ua-i386-win32-vc14-release:sip_100rel.obj
 0001:00009c80       _pjsip_100rel_is_reliable  0040ac80 f   pjsip-ua-i386-win32-vc14-release:sip_100rel.obj
 0001:00009cc0       _pjsip_100rel_on_rx_prack  0040acc0 f   pjsip-ua-i386-win32-vc14-release:sip_100rel.obj
 0001:00009f00       _pjsip_100rel_send_prack   0040af00 f   pjsip-ua-i386-win32-vc14-release:sip_100rel.obj
 0001:00009f40       _pjsip_100rel_tx_response  0040af40 f   pjsip-ua-i386-win32-vc14-release:sip_100rel.obj
 0001:0000a730       _pjsip_sess_expires_hdr_create 0040b730 f   pjsip-ua-i386-win32-vc14-release:sip_timer.obj
 0001:0000a790       _pjsip_timer_end_session   0040b790 f   pjsip-ua-i386-win32-vc14-release:sip_timer.obj
 0001:0000a7c0       _pjsip_timer_handle_refresh_error 0040b7c0 f   pjsip-ua-i386-win32-vc14-release:sip_timer.obj
 0001:0000a940       _pjsip_timer_init_session  0040b940 f   pjsip-ua-i386-win32-vc14-release:sip_timer.obj
 0001:0000a9d0       _pjsip_timer_process_req   0040b9d0 f   pjsip-ua-i386-win32-vc14-release:sip_timer.obj
 0001:0000abd0       _pjsip_timer_process_resp  0040bbd0 f   pjsip-ua-i386-win32-vc14-release:sip_timer.obj
 0001:0000afa0       _pjsip_timer_update_req    0040bfa0 f   pjsip-ua-i386-win32-vc14-release:sip_timer.obj
 0001:0000b030       _pjsip_timer_update_resp   0040c030 f   pjsip-ua-i386-win32-vc14-release:sip_timer.obj
 0001:0000cea0       _pjsip_accept_hdr_create   0040dea0 f   pjsip-core-i386-win32-vc14-release:sip_msg.obj
 0001:0000cef0       _pjsip_allow_hdr_create    0040def0 f   pjsip-core-i386-win32-vc14-release:sip_msg.obj
 0001:0000cf40       _pjsip_cid_hdr_create      0040df40 f   pjsip-core-i386-win32-vc14-release:sip_msg.obj
 0001:0000cfb0       _pjsip_clen_hdr_create     0040dfb0 f   pjsip-core-i386-win32-vc14-release:sip_msg.obj
 0001:0000d010       _pjsip_clone_text_data     0040e010 f   pjsip-core-i386-win32-vc14-release:sip_msg.obj
 0001:0000d050       _pjsip_contact_hdr_create  0040e050 f   pjsip-core-i386-win32-vc14-release:sip_msg.obj
 0001:0000d0d0       _pjsip_cseq_hdr_create     0040e0d0 f   pjsip-core-i386-win32-vc14-release:sip_msg.obj
 0001:0000d130       _pjsip_ctype_hdr_create    0040e130 f   pjsip-core-i386-win32-vc14-release:sip_msg.obj
 0001:0000d1a0       _pjsip_expires_hdr_create  0040e1a0 f   pjsip-core-i386-win32-vc14-release:sip_msg.obj
 0001:0000d1f0       _pjsip_from_hdr_create     0040e1f0 f   pjsip-core-i386-win32-vc14-release:sip_msg.obj
 0001:0000d2c0       _pjsip_fromto_hdr_set_from 0040e2c0 f   pjsip-core-i386-win32-vc14-release:sip_msg.obj
 0001:0000d2f0       _pjsip_fromto_hdr_set_to   0040e2f0 f   pjsip-core-i386-win32-vc14-release:sip_msg.obj
 0001:0000d320       _pjsip_generic_array_hdr_init 0040e320 f   pjsip-core-i386-win32-vc14-release:sip_msg.obj
 0001:0000d390       _pjsip_generic_string_hdr_create 0040e390 f   pjsip-core-i386-win32-vc14-release:sip_msg.obj
 0001:0000d420       _pjsip_get_ack_method      0040e420 f   pjsip-core-i386-win32-vc14-release:sip_msg.obj
 0001:0000d430       _pjsip_get_bye_method      0040e430 f   pjsip-core-i386-win32-vc14-release:sip_msg.obj
 0001:0000d440       _pjsip_get_cancel_method   0040e440 f   pjsip-core-i386-win32-vc14-release:sip_msg.obj
 0001:0000d450       _pjsip_get_invite_method   0040e450 f   pjsip-core-i386-win32-vc14-release:sip_msg.obj
 0001:0000d460       _pjsip_get_status_text     0040e460 f   pjsip-core-i386-win32-vc14-release:sip_msg.obj
 0001:0000d4a0       _pjsip_hdr_clone           0040e4a0 f   pjsip-core-i386-win32-vc14-release:sip_msg.obj
 0001:0000d4c0       _pjsip_hdr_print_on        0040e4c0 f   pjsip-core-i386-win32-vc14-release:sip_msg.obj
 0001:0000d4e0       _pjsip_hdr_shallow_clone   0040e4e0 f   pjsip-core-i386-win32-vc14-release:sip_msg.obj
 0001:0000d500       _pjsip_max_fwd_hdr_create  0040e500 f   pjsip-core-i386-win32-vc14-release:sip_msg.obj
 0001:0000d550       _pjsip_media_type_cmp      0040e550 f   pjsip-core-i386-win32-vc14-release:sip_msg.obj
 0001:0000d5b0       _pjsip_media_type_cp       0040e5b0 f   pjsip-core-i386-win32-vc14-release:sip_msg.obj
 0001:0000d600       _pjsip_media_type_init     0040e600 f   pjsip-core-i386-win32-vc14-release:sip_msg.obj
 0001:0000d650       _pjsip_media_type_init2    0040e650 f   pjsip-core-i386-win32-vc14-release:sip_msg.obj
 0001:0000d6d0       _pjsip_media_type_print    0040e6d0 f   pjsip-core-i386-win32-vc14-release:sip_msg.obj
 0001:0000d6e0       _pjsip_method_cmp          0040e6e0 f   pjsip-core-i386-win32-vc14-release:sip_msg.obj
 0001:0000d720       _pjsip_method_copy         0040e720 f   pjsip-core-i386-win32-vc14-release:sip_msg.obj
 0001:0000d760       _pjsip_method_init_np      0040e760 f   pjsip-core-i386-win32-vc14-release:sip_msg.obj
 0001:0000d7d0       _pjsip_min_expires_hdr_create 0040e7d0 f   pjsip-core-i386-win32-vc14-release:sip_msg.obj
 0001:0000d820       _pjsip_msg_body_clone      0040e820 f   pjsip-core-i386-win32-vc14-release:sip_msg.obj
 0001:0000d8c0       _pjsip_msg_create          0040e8c0 f   pjsip-core-i386-win32-vc14-release:sip_msg.obj
 0001:0000d8f0       _pjsip_msg_find_hdr        0040e8f0 f   pjsip-core-i386-win32-vc14-release:sip_msg.obj
 0001:0000d920       _pjsip_msg_find_hdr_by_name 0040e920 f   pjsip-core-i386-win32-vc14-release:sip_msg.obj
 0001:0000d970       _pjsip_msg_find_hdr_by_names 0040e970 f   pjsip-core-i386-win32-vc14-release:sip_msg.obj
 0001:0000d9d0       _pjsip_msg_print           0040e9d0 f   pjsip-core-i386-win32-vc14-release:sip_msg.obj
 0001:0000dcf0       _pjsip_print_text_body     0040ecf0 f   pjsip-core-i386-win32-vc14-release:sip_msg.obj
 0001:0000dd20       _pjsip_require_hdr_create  0040ed20 f   pjsip-core-i386-win32-vc14-release:sip_msg.obj
 0001:0000dd70       _pjsip_retry_after_hdr_create 0040ed70 f   pjsip-core-i386-win32-vc14-release:sip_msg.obj
 0001:0000ddd0       _pjsip_route_hdr_create    0040edd0 f   pjsip-core-i386-win32-vc14-release:sip_msg.obj
 0001:0000de30       _pjsip_routing_hdr_set_route 0040ee30 f   pjsip-core-i386-win32-vc14-release:sip_msg.obj
 0001:0000de60       _pjsip_rr_hdr_create       0040ee60 f   pjsip-core-i386-win32-vc14-release:sip_msg.obj
 0001:0000dec0       _pjsip_supported_hdr_create 0040eec0 f   pjsip-core-i386-win32-vc14-release:sip_msg.obj
 0001:0000df30       _pjsip_to_hdr_create       0040ef30 f   pjsip-core-i386-win32-vc14-release:sip_msg.obj
 0001:0000e000       _pjsip_unsupported_hdr_create 0040f000 f   pjsip-core-i386-win32-vc14-release:sip_msg.obj
 0001:0000e050       _pjsip_via_hdr_create      0040f050 f   pjsip-core-i386-win32-vc14-release:sip_msg.obj
 0001:0000e0d0       _pjsip_warning_hdr_create  0040f0d0 f   pjsip-core-i386-win32-vc14-release:sip_msg.obj
 0001:0000e190       _pjsip_warning_hdr_create_from_status 0040f190 f   pjsip-core-i386-win32-vc14-release:sip_msg.obj
 0001:0000e530       _pjsip_rx_data_get_info    0040f530 f   pjsip-core-i386-win32-vc14-release:sip_transport.obj
 0001:0000e5c0       _pjsip_tpmgr_acquire_transport2 0040f5c0 f   pjsip-core-i386-win32-vc14-release:sip_transport.obj
 0001:0000e8f0       _pjsip_tpmgr_create        0040f8f0 f   pjsip-core-i386-win32-vc14-release:sip_transport.obj
 0001:0000ea40       _pjsip_tpmgr_destroy       0040fa40 f   pjsip-core-i386-win32-vc14-release:sip_transport.obj
 0001:0000eb60       _pjsip_tpmgr_receive_packet 0040fb60 f   pjsip-core-i386-win32-vc14-release:sip_transport.obj
 0001:0000f0e0       _pjsip_tpselector_add_ref  004100e0 f   pjsip-core-i386-win32-vc14-release:sip_transport.obj
 0001:0000f100       _pjsip_tpselector_dec_ref  00410100 f   pjsip-core-i386-win32-vc14-release:sip_transport.obj
 0001:0000f120       _pjsip_transport_add_ref   00410120 f   pjsip-core-i386-win32-vc14-release:sip_transport.obj
 0001:0000f200       _pjsip_transport_add_state_listener 00410200 f   pjsip-core-i386-win32-vc14-release:sip_transport.obj
 0001:0000f2d0       _pjsip_transport_dec_ref   004102d0 f   pjsip-core-i386-win32-vc14-release:sip_transport.obj
 0001:0000f3f0       _pjsip_transport_destroy   004103f0 f   pjsip-core-i386-win32-vc14-release:sip_transport.obj
 0001:0000f460       _pjsip_transport_get_default_port_for_type 00410460 f   pjsip-core-i386-win32-vc14-release:sip_transport.obj
 0001:0000f4a0       _pjsip_transport_get_flag_from_type 004104a0 f   pjsip-core-i386-win32-vc14-release:sip_transport.obj
 0001:0000f4e0       _pjsip_transport_get_type_desc 004104e0 f   pjsip-core-i386-win32-vc14-release:sip_transport.obj
 0001:0000f520       _pjsip_transport_get_type_from_flag 00410520 f   pjsip-core-i386-win32-vc14-release:sip_transport.obj
 0001:0000f560       _pjsip_transport_get_type_from_name 00410560 f   pjsip-core-i386-win32-vc14-release:sip_transport.obj
 0001:0000f5b0       _pjsip_transport_get_type_name 004105b0 f   pjsip-core-i386-win32-vc14-release:sip_transport.obj
 0001:0000f5f0       _pjsip_transport_register  004105f0 f   pjsip-core-i386-win32-vc14-release:sip_transport.obj
 0001:0000f720       _pjsip_transport_remove_state_listener 00410720 f   pjsip-core-i386-win32-vc14-release:sip_transport.obj
 0001:0000f7c0       _pjsip_transport_send      004107c0 f   pjsip-core-i386-win32-vc14-release:sip_transport.obj
 0001:0000f920       _pjsip_tx_data_add_ref     00410920 f   pjsip-core-i386-win32-vc14-release:sip_transport.obj
 0001:0000f940       _pjsip_tx_data_clone       00410940 f   pjsip-core-i386-win32-vc14-release:sip_transport.obj
 0001:0000fb50       _pjsip_tx_data_create      00410b50 f   pjsip-core-i386-win32-vc14-release:sip_transport.obj
 0001:0000fc60       _pjsip_tx_data_dec_ref     00410c60 f   pjsip-core-i386-win32-vc14-release:sip_transport.obj
 0001:0000fca0       _pjsip_tx_data_encode      00410ca0 f   pjsip-core-i386-win32-vc14-release:sip_transport.obj
 0001:0000fd90       _pjsip_tx_data_get_info    00410d90 f   pjsip-core-i386-win32-vc14-release:sip_transport.obj
 0001:0000fdf0       _pjsip_tx_data_invalidate_msg 00410df0 f   pjsip-core-i386-win32-vc14-release:sip_transport.obj
 0001:0000fe10       _pjsip_tx_data_set_transport 00410e10 f   pjsip-core-i386-win32-vc14-release:sip_transport.obj
 0001:00010330       _pjsip_endpt_acquire_transport2 00411330 f   pjsip-core-i386-win32-vc14-release:sip_endpoint.obj
 0001:00010360       _pjsip_endpt_add_capability 00411360 f   pjsip-core-i386-win32-vc14-release:sip_endpoint.obj
 0001:00010450       _pjsip_endpt_atexit        00411450 f   pjsip-core-i386-win32-vc14-release:sip_endpoint.obj
 0001:000104b0       _pjsip_endpt_cancel_timer  004114b0 f   pjsip-core-i386-win32-vc14-release:sip_endpoint.obj
 0001:000104d0       _pjsip_endpt_create        004114d0 f   pjsip-core-i386-win32-vc14-release:sip_endpoint.obj
 0001:00010780       _pjsip_endpt_create_pool   00411780 f   pjsip-core-i386-win32-vc14-release:sip_endpoint.obj
 0001:000107d0       _pjsip_endpt_create_tdata  004117d0 f   pjsip-core-i386-win32-vc14-release:sip_endpoint.obj
 0001:000107f0       _pjsip_endpt_destroy       004117f0 f   pjsip-core-i386-win32-vc14-release:sip_endpoint.obj
 0001:00010930       _pjsip_endpt_get_capability 00411930 f   pjsip-core-i386-win32-vc14-release:sip_endpoint.obj
 0001:00010960       _pjsip_endpt_get_ioqueue   00411960 f   pjsip-core-i386-win32-vc14-release:sip_endpoint.obj
 0001:00010970       _pjsip_endpt_get_request_headers 00411970 f   pjsip-core-i386-win32-vc14-release:sip_endpoint.obj
 0001:00010980       _pjsip_endpt_get_timer_heap 00411980 f   pjsip-core-i386-win32-vc14-release:sip_endpoint.obj
 0001:00010990       _pjsip_endpt_get_tpmgr     00411990 f   pjsip-core-i386-win32-vc14-release:sip_endpoint.obj
 0001:000109a0       _pjsip_endpt_handle_events 004119a0 f   pjsip-core-i386-win32-vc14-release:sip_endpoint.obj
 0001:00010a70       _pjsip_endpt_has_capability 00411a70 f   pjsip-core-i386-win32-vc14-release:sip_endpoint.obj
 0001:00010ae0       _pjsip_endpt_log_error     00411ae0 f   pjsip-core-i386-win32-vc14-release:sip_endpoint.obj
 0001:00010bc0       _pjsip_endpt_name          00411bc0 f   pjsip-core-i386-win32-vc14-release:sip_endpoint.obj
 0001:00010bd0       _pjsip_endpt_process_rx_data 00411bd0 f   pjsip-core-i386-win32-vc14-release:sip_endpoint.obj
 0001:00010d60       _pjsip_endpt_register_module 00411d60 f   pjsip-core-i386-win32-vc14-release:sip_endpoint.obj
 0001:00010e80       _pjsip_endpt_release_pool  00411e80 f   pjsip-core-i386-win32-vc14-release:sip_endpoint.obj
 0001:00010ea0       _pjsip_endpt_resolve       00411ea0 f   pjsip-core-i386-win32-vc14-release:sip_endpoint.obj
 0001:00010ec0       _pjsip_endpt_schedule_timer 00411ec0 f   pjsip-core-i386-win32-vc14-release:sip_endpoint.obj
 0001:00010ee0       _pjsip_endpt_schedule_timer_w_grp_lock 00411ee0 f   pjsip-core-i386-win32-vc14-release:sip_endpoint.obj
 0001:00010f10       _pjsip_endpt_unregister_module 00411f10 f   pjsip-core-i386-win32-vc14-release:sip_endpoint.obj
 0001:00011230       _pjsip_endpt_create_ack    00412230 f   pjsip-core-i386-win32-vc14-release:sip_util.obj
 0001:000113e0       _pjsip_endpt_create_cancel 004123e0 f   pjsip-core-i386-win32-vc14-release:sip_util.obj
 0001:000115f0       _pjsip_endpt_create_request_from_hdr 004125f0 f   pjsip-core-i386-win32-vc14-release:sip_util.obj
 0001:00011810       _pjsip_endpt_create_response 00412810 f   pjsip-core-i386-win32-vc14-release:sip_util.obj
 0001:00011a70       _pjsip_endpt_respond_stateless 00412a70 f   pjsip-core-i386-win32-vc14-release:sip_util.obj
 0001:00011bf0       _pjsip_endpt_send_request_stateless 00412bf0 f   pjsip-core-i386-win32-vc14-release:sip_util.obj
 0001:00011cd0       _pjsip_endpt_send_response 00412cd0 f   pjsip-core-i386-win32-vc14-release:sip_util.obj
 0001:00011dc0       _pjsip_event_str           00412dc0 f   pjsip-core-i386-win32-vc14-release:sip_util.obj
 0001:00011dd0       _pjsip_get_dest_info       00412dd0 f   pjsip-core-i386-win32-vc14-release:sip_util.obj
 0001:00011f70       _pjsip_get_request_dest    00412f70 f   pjsip-core-i386-win32-vc14-release:sip_util.obj
 0001:00011fe0       _pjsip_get_response_addr   00412fe0 f   pjsip-core-i386-win32-vc14-release:sip_util.obj
 0001:00012110       _pjsip_process_route_set   00413110 f   pjsip-core-i386-win32-vc14-release:sip_util.obj
 0001:00012350       _pjsip_restore_strict_route_set 00413350 f   pjsip-core-i386-win32-vc14-release:sip_util.obj
 0001:000123f0       _pjsip_target_assign_status 004133f0 f   pjsip-core-i386-win32-vc14-release:sip_util.obj
 0001:00012430       _pjsip_target_set_add_from_msg 00413430 f   pjsip-core-i386-win32-vc14-release:sip_util.obj
 0001:00012570       _pjsip_target_set_add_uri  00413570 f   pjsip-core-i386-win32-vc14-release:sip_util.obj
 0001:00012640       _pjsip_target_set_get_next 00413640 f   pjsip-core-i386-win32-vc14-release:sip_util.obj
 0001:00012690       _pjsip_target_set_set_current 00413690 f   pjsip-core-i386-win32-vc14-release:sip_util.obj
 0001:00012f00       _pjsip_udp_transport_restart2 00413f00 f   pjsip-core-i386-win32-vc14-release:sip_transport_udp.obj
 0001:00013110       _pjsip_udp_transport_start 00414110 f   pjsip-core-i386-win32-vc14-release:sip_transport_udp.obj
 0001:000131d0       _pjsip_udp_transport_start2 004141d0 f   pjsip-core-i386-win32-vc14-release:sip_transport_udp.obj
 0001:00015960       _pjsip_rdata_get_tsx       00416960 f   pjsip-core-i386-win32-vc14-release:sip_transaction.obj
 0001:00015980       _pjsip_tsx_create_key      00416980 f   pjsip-core-i386-win32-vc14-release:sip_transaction.obj
 0001:000159f0       _pjsip_tsx_create_uac      004169f0 f   pjsip-core-i386-win32-vc14-release:sip_transaction.obj
 0001:00015a10       _pjsip_tsx_create_uac2     00416a10 f   pjsip-core-i386-win32-vc14-release:sip_transaction.obj
 0001:00015c60       _pjsip_tsx_create_uas      00416c60 f   pjsip-core-i386-win32-vc14-release:sip_transaction.obj
 0001:00015c80       _pjsip_tsx_create_uas2     00416c80 f   pjsip-core-i386-win32-vc14-release:sip_transaction.obj
 0001:00015eb0       _pjsip_tsx_layer_find_tsx2 00416eb0 f   pjsip-core-i386-win32-vc14-release:sip_transaction.obj
 0001:00015f20       _pjsip_tsx_layer_init_module 00416f20 f   pjsip-core-i386-win32-vc14-release:sip_transaction.obj
 0001:000160a0       _pjsip_tsx_recv_msg        004170a0 f   pjsip-core-i386-win32-vc14-release:sip_transaction.obj
 0001:00016120       _pjsip_tsx_retransmit_no_state 00417120 f   pjsip-core-i386-win32-vc14-release:sip_transaction.obj
 0001:00016180       _pjsip_tsx_send_msg        00417180 f   pjsip-core-i386-win32-vc14-release:sip_transaction.obj
 0001:00016230       _pjsip_tsx_set_timeout     00417230 f   pjsip-core-i386-win32-vc14-release:sip_transaction.obj
 0001:00016300       _pjsip_tsx_set_transport   00417300 f   pjsip-core-i386-win32-vc14-release:sip_transaction.obj
 0001:00016360       _pjsip_tsx_state_str       00417360 f   pjsip-core-i386-win32-vc14-release:sip_transaction.obj
 0001:00016370       _pjsip_tsx_terminate       00417370 f   pjsip-core-i386-win32-vc14-release:sip_transaction.obj
 0001:00017b70       _pjsip_rdata_get_dlg       00418b70 f   pjsip-core-i386-win32-vc14-release:sip_ua_layer.obj
 0001:00017b90       _pjsip_tsx_get_dlg         00418b90 f   pjsip-core-i386-win32-vc14-release:sip_ua_layer.obj
 0001:00017bb0       _pjsip_ua_get_endpt        00418bb0 f   pjsip-core-i386-win32-vc14-release:sip_ua_layer.obj
 0001:00017bc0       _pjsip_ua_init_module      00418bc0 f   pjsip-core-i386-win32-vc14-release:sip_ua_layer.obj
 0001:00017bf0       _pjsip_ua_instance         00418bf0 f   pjsip-core-i386-win32-vc14-release:sip_ua_layer.obj
 0001:00017c00       _pjsip_ua_register_dlg     00418c00 f   pjsip-core-i386-win32-vc14-release:sip_ua_layer.obj
 0001:00017cf0       _pjsip_ua_unregister_dlg   00418cf0 f   pjsip-core-i386-win32-vc14-release:sip_ua_layer.obj
 0001:00017ef0       _create_uas_dialog         00418ef0 f   pjsip-core-i386-win32-vc14-release:sip_dialog.obj
 0001:00018720       _pjsip_dlg_add_usage       00419720 f   pjsip-core-i386-win32-vc14-release:sip_dialog.obj
 0001:00018850       _pjsip_dlg_create_request  00419850 f   pjsip-core-i386-win32-vc14-release:sip_dialog.obj
 0001:00018a20       _pjsip_dlg_create_response 00419a20 f   pjsip-core-i386-win32-vc14-release:sip_dialog.obj
 0001:00018ae0       _pjsip_dlg_create_uac      00419ae0 f   pjsip-core-i386-win32-vc14-release:sip_dialog.obj
 0001:00018eb0       _pjsip_dlg_create_uas_and_inc_lock 00419eb0 f   pjsip-core-i386-win32-vc14-release:sip_dialog.obj
 0001:00018ed0       _pjsip_dlg_dec_lock        00419ed0 f   pjsip-core-i386-win32-vc14-release:sip_dialog.obj
 0001:00018f30       _pjsip_dlg_dec_session     00419f30 f   pjsip-core-i386-win32-vc14-release:sip_dialog.obj
 0001:00018fb0       _pjsip_dlg_get_remote_cap_hdr 00419fb0 f   pjsip-core-i386-win32-vc14-release:sip_dialog.obj
 0001:00019060       _pjsip_dlg_inc_lock        0041a060 f   pjsip-core-i386-win32-vc14-release:sip_dialog.obj
 0001:00019090       _pjsip_dlg_inc_session     0041a090 f   pjsip-core-i386-win32-vc14-release:sip_dialog.obj
 0001:00019110       _pjsip_dlg_modify_response 0041a110 f   pjsip-core-i386-win32-vc14-release:sip_dialog.obj
 0001:00019200       _pjsip_dlg_on_rx_request   0041a200 f   pjsip-core-i386-win32-vc14-release:sip_dialog.obj
 0001:000194f0       _pjsip_dlg_on_rx_response  0041a4f0 f   pjsip-core-i386-win32-vc14-release:sip_dialog.obj
 0001:00019890       _pjsip_dlg_on_tsx_state    0041a890 f   pjsip-core-i386-win32-vc14-release:sip_dialog.obj
 0001:000199a0       _pjsip_dlg_remote_has_cap  0041a9a0 f   pjsip-core-i386-win32-vc14-release:sip_dialog.obj
 0001:00019a90       _pjsip_dlg_send_request    0041aa90 f   pjsip-core-i386-win32-vc14-release:sip_dialog.obj
 0001:00019c80       _pjsip_dlg_send_response   0041ac80 f   pjsip-core-i386-win32-vc14-release:sip_dialog.obj
 0001:00019d90       _pjsip_dlg_terminate       0041ad90 f   pjsip-core-i386-win32-vc14-release:sip_dialog.obj
 0001:00019dc0       _pjsip_dlg_try_inc_lock    0041adc0 f   pjsip-core-i386-win32-vc14-release:sip_dialog.obj
 0001:00019e00       _pjsip_dlg_update_remote_cap 0041ae00 f   pjsip-core-i386-win32-vc14-release:sip_dialog.obj
 0001:0001a160       _pjsip_method_creates_dialog 0041b160 f   pjsip-core-i386-win32-vc14-release:sip_dialog.obj
 0001:0001a5d0       _pjsip_auth_clt_deinit     0041b5d0 f   pjsip-core-i386-win32-vc14-release:sip_auth_client.obj
 0001:0001a620       _pjsip_auth_clt_init       0041b620 f   pjsip-core-i386-win32-vc14-release:sip_auth_client.obj
 0001:0001a670       _pjsip_auth_clt_init_req   0041b670 f   pjsip-core-i386-win32-vc14-release:sip_auth_client.obj
 0001:0001a890       _pjsip_auth_clt_reinit_req 0041b890 f   pjsip-core-i386-win32-vc14-release:sip_auth_client.obj
 0001:0001ab60       _pjsip_auth_create_digest  0041bb60 f   pjsip-core-i386-win32-vc14-release:sip_auth_client.obj
 0001:0001b2d0       _deinit_sip_parser         0041c2d0 f   pjsip-core-i386-win32-vc14-release:sip_parser.obj
 0001:0001bbb0       _init_sip_parser           0041cbb0 f   pjsip-core-i386-win32-vc14-release:sip_parser.obj
 0001:0001e290       _pjsip_find_msg            0041f290 f   pjsip-core-i386-win32-vc14-release:sip_parser.obj
 0001:0001e5b0       _pjsip_parse_end_hdr_imp   0041f5b0 f   pjsip-core-i386-win32-vc14-release:sip_parser.obj
 0001:0001e5e0       _pjsip_parse_hdr           0041f5e0 f   pjsip-core-i386-win32-vc14-release:sip_parser.obj
 0001:0001e6d0       _pjsip_parse_headers       0041f6d0 f   pjsip-core-i386-win32-vc14-release:sip_parser.obj
 0001:0001e9b0       _pjsip_parse_param_imp     0041f9b0 f   pjsip-core-i386-win32-vc14-release:sip_parser.obj
 0001:0001e9e0       _pjsip_parse_rdata         0041f9e0 f   pjsip-core-i386-win32-vc14-release:sip_parser.obj
 0001:0001ea40       _pjsip_parse_uri           0041fa40 f   pjsip-core-i386-win32-vc14-release:sip_parser.obj
 0001:0001eb00       _pjsip_parser_const        0041fb00 f   pjsip-core-i386-win32-vc14-release:sip_parser.obj
 0001:0001eb10       _pjsip_register_hdr_parser 0041fb10 f   pjsip-core-i386-win32-vc14-release:sip_parser.obj
 0001:0001ec00       _pjsip_register_uri_parser 0041fc00 f   pjsip-core-i386-win32-vc14-release:sip_parser.obj
 0001:0001f180       _pjsip_multipart_find_part 00420180 f   pjsip-core-i386-win32-vc14-release:sip_multipart.obj
 0001:0001f1e0       _pjsip_multipart_parse     004201e0 f   pjsip-core-i386-win32-vc14-release:sip_multipart.obj
 0001:00020070       _pjsip_name_addr_assign    00421070 f   pjsip-core-i386-win32-vc14-release:sip_uri.obj
 0001:000200b0       _pjsip_name_addr_create    004210b0 f   pjsip-core-i386-win32-vc14-release:sip_uri.obj
 0001:000200e0       _pjsip_name_addr_init      004210e0 f   pjsip-core-i386-win32-vc14-release:sip_uri.obj
 0001:00020110       _pjsip_other_uri_create    00421110 f   pjsip-core-i386-win32-vc14-release:sip_uri.obj
 0001:00020130       _pjsip_param_clone         00421130 f   pjsip-core-i386-win32-vc14-release:sip_uri.obj
 0001:000201a0       _pjsip_param_cmp           004211a0 f   pjsip-core-i386-win32-vc14-release:sip_uri.obj
 0001:00020240       _pjsip_param_find          00421240 f   pjsip-core-i386-win32-vc14-release:sip_uri.obj
 0001:00020280       _pjsip_param_print_on      00421280 f   pjsip-core-i386-win32-vc14-release:sip_uri.obj
 0001:00020380       _pjsip_param_shallow_clone 00421380 f   pjsip-core-i386-win32-vc14-release:sip_uri.obj
 0001:000203e0       _pjsip_sip_uri_create      004213e0 f   pjsip-core-i386-win32-vc14-release:sip_uri.obj
 0001:000206e0       _pjsip_resolve             004216e0 f   pjsip-core-i386-win32-vc14-release:sip_resolve.obj
 0001:00020d90       _pjsip_resolver_create     00421d90 f   pjsip-core-i386-win32-vc14-release:sip_resolve.obj
 0001:00020dc0       _pjsip_resolver_destroy    00421dc0 f   pjsip-core-i386-win32-vc14-release:sip_resolve.obj
 0001:00020fc0       _pjsip_strerror            00421fc0 f   pjsip-core-i386-win32-vc14-release:sip_errno.obj
 0001:00021430       _pjsip_tel_nb_cmp          00422430 f   pjsip-core-i386-win32-vc14-release:sip_tel_uri.obj
 0001:00021550       _pjsip_tel_uri_subsys_init 00422550 f   pjsip-core-i386-win32-vc14-release:sip_tel_uri.obj
 0001:00021ef0       _pjsip_authorization_hdr_create 00422ef0 f   pjsip-core-i386-win32-vc14-release:sip_auth_msg.obj
 0001:00021f60       _pjsip_proxy_authenticate_hdr_create 00422f60 f   pjsip-core-i386-win32-vc14-release:sip_auth_msg.obj
 0001:00021fd0       _pjsip_proxy_authorization_hdr_create 00422fd0 f   pjsip-core-i386-win32-vc14-release:sip_auth_msg.obj
 0001:00022040       _pjsip_www_authenticate_hdr_create 00423040 f   pjsip-core-i386-win32-vc14-release:sip_auth_msg.obj
 0001:00023050       _pjsip_auth_init_parser    00424050 f   pjsip-core-i386-win32-vc14-release:sip_auth_parser.obj
 0001:000230b0       _pjmedia_aud_subsys_init   004240b0 f   pjmedia-audiodev-i386-win32-vc14-release:audiodev.obj
 0001:00023150       _pjmedia_aud_subsys_shutdown 00424150 f   pjmedia-audiodev-i386-win32-vc14-release:audiodev.obj
 0001:00023190       _pjmedia_audiodev_strerror 00424190 f   pjmedia-audiodev-i386-win32-vc14-release:errno.obj
 0001:000244e0       _pjmedia_wmme_factory      004254e0 f   pjmedia-audiodev-i386-win32-vc14-release:wmme_dev.obj
 0001:00024c70       _pjmedia_sdp_attr_add      00425c70 f   pjmedia-i386-win32-vc14-release:sdp.obj
 0001:00024cb0       _pjmedia_sdp_attr_create   00425cb0 f   pjmedia-i386-win32-vc14-release:sdp.obj
 0001:00024d10       _pjmedia_sdp_attr_create_rtcp 00425d10 f   pjmedia-i386-win32-vc14-release:sdp.obj
 0001:00024de0       _pjmedia_sdp_attr_find     00425de0 f   pjmedia-i386-win32-vc14-release:sdp.obj
 0001:00024e60       _pjmedia_sdp_attr_find2    00425e60 f   pjmedia-i386-win32-vc14-release:sdp.obj
 0001:00024ea0       _pjmedia_sdp_attr_get_fmtp 00425ea0 f   pjmedia-i386-win32-vc14-release:sdp.obj
 0001:00024f40       _pjmedia_sdp_attr_get_rtcp 00425f40 f   pjmedia-i386-win32-vc14-release:sdp.obj
 0001:00025080       _pjmedia_sdp_attr_get_rtpmap 00426080 f   pjmedia-i386-win32-vc14-release:sdp.obj
 0001:00025240       _pjmedia_sdp_attr_get_ssrc 00426240 f   pjmedia-i386-win32-vc14-release:sdp.obj
 0001:000253a0       _pjmedia_sdp_attr_remove   004263a0 f   pjmedia-i386-win32-vc14-release:sdp.obj
 0001:00025430       _pjmedia_sdp_attr_remove_all 00426430 f   pjmedia-i386-win32-vc14-release:sdp.obj
 0001:000254c0       _pjmedia_sdp_attr_to_rtpmap 004264c0 f   pjmedia-i386-win32-vc14-release:sdp.obj
 0001:00025510       _pjmedia_sdp_conn_clone    00426510 f   pjmedia-i386-win32-vc14-release:sdp.obj
 0001:00025580       _pjmedia_sdp_media_add_attr 00426580 f   pjmedia-i386-win32-vc14-release:sdp.obj
 0001:000255c0       _pjmedia_sdp_media_clone   004265c0 f   pjmedia-i386-win32-vc14-release:sdp.obj
 0001:000257b0       _pjmedia_sdp_media_clone_deactivate 004267b0 f   pjmedia-i386-win32-vc14-release:sdp.obj
 0001:00025910       _pjmedia_sdp_media_deactivate 00426910 f   pjmedia-i386-win32-vc14-release:sdp.obj
 0001:00025940       _pjmedia_sdp_media_find_attr 00426940 f   pjmedia-i386-win32-vc14-release:sdp.obj
 0001:00025970       _pjmedia_sdp_media_find_attr2 00426970 f   pjmedia-i386-win32-vc14-release:sdp.obj
 0001:000259d0       _pjmedia_sdp_media_remove_all_attr 004269d0 f   pjmedia-i386-win32-vc14-release:sdp.obj
 0001:00025a70       _pjmedia_sdp_media_remove_attr 00426a70 f   pjmedia-i386-win32-vc14-release:sdp.obj
 0001:00025ab0       _pjmedia_sdp_parse         00426ab0 f   pjmedia-i386-win32-vc14-release:sdp.obj
 0001:000264c0       _pjmedia_sdp_print         004274c0 f   pjmedia-i386-win32-vc14-release:sdp.obj
 0001:000264d0       _pjmedia_sdp_rtpmap_to_attr 004274d0 f   pjmedia-i386-win32-vc14-release:sdp.obj
 0001:00026620       _pjmedia_sdp_session_clone 00427620 f   pjmedia-i386-win32-vc14-release:sdp.obj
 0001:00026820       _pjmedia_sdp_transport_cmp 00427820 f   pjmedia-i386-win32-vc14-release:sdp.obj
 0001:00026870       _pjmedia_sdp_transport_get_proto 00427870 f   pjmedia-i386-win32-vc14-release:sdp.obj
 0001:000269b0       _pjmedia_sdp_validate      004279b0 f   pjmedia-i386-win32-vc14-release:sdp.obj
 0001:000269d0       _pjmedia_sdp_validate2     004279d0 f   pjmedia-i386-win32-vc14-release:sdp.obj
 0001:000271a0       _pjmedia_endpt_create2     004281a0 f   pjmedia-i386-win32-vc14-release:endpoint.obj
 0001:00027360       _pjmedia_endpt_create_pool 00428360 f   pjmedia-i386-win32-vc14-release:endpoint.obj
 0001:00027380       _pjmedia_endpt_destroy2    00428380 f   pjmedia-i386-win32-vc14-release:endpoint.obj
 0001:00027440       _pj_pool_getobjname        00428440 f   pjlib-i386-win32-vc14-release:pool.obj
 0001:00027440       _pjmedia_endpt_get_codec_mgr 00428440 f   pjmedia-i386-win32-vc14-release:endpoint.obj
 0001:00027450       _pjmedia_endpt_get_ioqueue 00428450 f   pjmedia-i386-win32-vc14-release:endpoint.obj
 0001:000274c0       _pjmedia_codec_g711_deinit 004284c0 f   pjmedia-i386-win32-vc14-release:g711.obj
 0001:00027ba0       _pjmedia_codec_g711_init   00428ba0 f   pjmedia-i386-win32-vc14-release:g711.obj
 0001:00027ca0       _pjmedia_rtp_decode_rtp    00428ca0 f   pjmedia-i386-win32-vc14-release:rtp.obj
 0001:00027d30       _pjmedia_rtp_encode_rtp    00428d30 f   pjmedia-i386-win32-vc14-release:rtp.obj
 0001:00027dc0       _pjmedia_rtp_seq_init      00428dc0 f   pjmedia-i386-win32-vc14-release:rtp.obj
 0001:00027df0       _pjmedia_rtp_seq_update    00428df0 f   pjmedia-i386-win32-vc14-release:rtp.obj
 0001:00027ef0       _pjmedia_rtp_session_init  00428ef0 f   pjmedia-i386-win32-vc14-release:rtp.obj
 0001:00027f90       _pjmedia_rtp_session_update 00428f90 f   pjmedia-i386-win32-vc14-release:rtp.obj
 0001:00027fb0       _pjmedia_rtp_session_update2 00428fb0 f   pjmedia-i386-win32-vc14-release:rtp.obj
 0001:00028520       _pjmedia_rtcp_build_rtcp   00429520 f   pjmedia-i386-win32-vc14-release:rtcp.obj
 0001:00028760       _pjmedia_rtcp_get_ntp_time 00429760 f   pjmedia-i386-win32-vc14-release:rtcp.obj
 0001:000288e0       _pjmedia_rtcp_init         004298e0 f   pjmedia-i386-win32-vc14-release:rtcp.obj
 0001:000289e0       _pjmedia_rtcp_rx_rtcp      004299e0 f   pjmedia-i386-win32-vc14-release:rtcp.obj
 0001:00028cb0       _pjmedia_rtcp_rx_rtp       00429cb0 f   pjmedia-i386-win32-vc14-release:rtcp.obj
 0001:00028cd0       _pjmedia_rtcp_rx_rtp2      00429cd0 f   pjmedia-i386-win32-vc14-release:rtcp.obj
 0001:00028ea0       _pjmedia_rtcp_tx_rtp       00429ea0 f   pjmedia-i386-win32-vc14-release:rtcp.obj
 0001:00029810       _pjmedia_sdp_neg_cancel_offer 0042a810 f   pjmedia-i386-win32-vc14-release:sdp_neg.obj
 0001:00029880       _pjmedia_sdp_neg_create_w_local_offer 0042a880 f   pjmedia-i386-win32-vc14-release:sdp_neg.obj
 0001:00029910       _pjmedia_sdp_neg_create_w_remote_offer 0042a910 f   pjmedia-i386-win32-vc14-release:sdp_neg.obj
 0001:000299e0       _pjmedia_sdp_neg_fmt_match 0042a9e0 f   pjmedia-i386-win32-vc14-release:sdp_neg.obj
 0001:00029b10       _pjmedia_sdp_neg_get_active_local 0042ab10 f   pjmedia-i386-win32-vc14-release:sdp_neg.obj
 0001:00029b40       _pjmedia_sdp_neg_get_active_remote 0042ab40 f   pjmedia-i386-win32-vc14-release:sdp_neg.obj
 0001:00029b70       _pjmedia_sdp_neg_get_neg_local 0042ab70 f   pjmedia-i386-win32-vc14-release:sdp_neg.obj
 0001:00029ba0       _pjmedia_sdp_neg_get_state 0042aba0 f   pjmedia-i386-win32-vc14-release:sdp_neg.obj
 0001:00029bb0       _pjmedia_sdp_neg_has_local_answer 0042abb0 f   pjmedia-i386-win32-vc14-release:sdp_neg.obj
 0001:00029bc0       _pjmedia_sdp_neg_modify_local_offer2 0042abc0 f   pjmedia-i386-win32-vc14-release:sdp_neg.obj
 0001:00029de0       _pjmedia_sdp_neg_negotiate 0042ade0 f   pjmedia-i386-win32-vc14-release:sdp_neg.obj
 0001:0002a190       _pjmedia_sdp_neg_send_local_offer 0042b190 f   pjmedia-i386-win32-vc14-release:sdp_neg.obj
 0001:0002a220       _pjmedia_sdp_neg_set_local_answer 0042b220 f   pjmedia-i386-win32-vc14-release:sdp_neg.obj
 0001:0002a2b0       _pjmedia_sdp_neg_set_remote_answer 0042b2b0 f   pjmedia-i386-win32-vc14-release:sdp_neg.obj
 0001:0002a300       _pjmedia_sdp_neg_set_remote_offer 0042b300 f   pjmedia-i386-win32-vc14-release:sdp_neg.obj
 0001:0002a350       _pjmedia_sdp_neg_state_str 0042b350 f   pjmedia-i386-win32-vc14-release:sdp_neg.obj
 0001:0002b1c0       _pjmedia_stream_info_from_sdp 0042c1c0 f   pjmedia-i386-win32-vc14-release:stream_info.obj
 0001:0002c4d0       _pjmedia_transport_udp_attach 0042d4d0 f   pjmedia-i386-win32-vc14-release:transport_udp.obj
 0001:0002c820       _pjmedia_transport_udp_create2 0042d820 f   pjmedia-i386-win32-vc14-release:transport_udp.obj
 0001:0002ce70       _pjmedia_aud_driver_deinit 0042de70 f   pjmedia-i386-win32-vc14-release:audiodev.obj
 0001:0002cf40       _pjmedia_aud_driver_init   0042df40 f   pjmedia-i386-win32-vc14-release:audiodev.obj
 0001:0002d1c0       _pjmedia_aud_stream_get_param 0042e1c0 f   pjmedia-i386-win32-vc14-release:audiodev.obj
 0001:0002d220       _pjmedia_get_aud_subsys    0042e220 f   pjmedia-i386-win32-vc14-release:audiodev.obj
 0001:0002d3e0       _pjmedia_event_init        0042e3e0 f   pjmedia-i386-win32-vc14-release:event.obj
 0001:0002d420       _pjmedia_event_publish     0042e420 f   pjmedia-i386-win32-vc14-release:event.obj
 0001:0002d550       _pjmedia_codec_info_to_id  0042e550 f   pjmedia-i386-win32-vc14-release:codec.obj
 0001:0002d5a0       _pjmedia_codec_mgr_destroy 0042e5a0 f   pjmedia-i386-win32-vc14-release:codec.obj
 0001:0002d630       _pjmedia_codec_mgr_find_codecs_by_id 0042e630 f   pjmedia-i386-win32-vc14-release:codec.obj
 0001:0002d710       _pjmedia_codec_mgr_get_codec_info 0042e710 f   pjmedia-i386-win32-vc14-release:codec.obj
 0001:0002d790       _pjmedia_codec_mgr_get_default_param 0042e790 f   pjmedia-i386-win32-vc14-release:codec.obj
 0001:0002d900       _pjmedia_codec_mgr_init    0042e900 f   pjmedia-i386-win32-vc14-release:codec.obj
 0001:0002d970       _pjmedia_codec_mgr_register_factory 0042e970 f   pjmedia-i386-win32-vc14-release:codec.obj
 0001:0002db30       _pjmedia_codec_mgr_unregister_factory 0042eb30 f   pjmedia-i386-win32-vc14-release:codec.obj
 0001:0002dcc0       _pjmedia_strerror          0042ecc0 f   pjmedia-i386-win32-vc14-release:errno.obj
 0001:0002de60       _pjmedia_plc_create        0042ee60 f   pjmedia-i386-win32-vc14-release:plc_common.obj
 0001:0002dec0       _pjmedia_plc_generate      0042eec0 f   pjmedia-i386-win32-vc14-release:plc_common.obj
 0001:0002def0       _pjmedia_plc_save          0042eef0 f   pjmedia-i386-win32-vc14-release:plc_common.obj
 0001:0002df20       _pjmedia_silence_det_apply 0042ef20 f   pjmedia-i386-win32-vc14-release:silencedet.obj
 0001:0002e100       _pjmedia_silence_det_create 0042f100 f   pjmedia-i386-win32-vc14-release:silencedet.obj
 0001:0002e180       _pjmedia_silence_det_detect 0042f180 f   pjmedia-i386-win32-vc14-release:silencedet.obj
 0001:0002e300       _pjmedia_rtcp_fb_decode_sdp 0042f300 f   pjmedia-i386-win32-vc14-release:rtcp_fb.obj
 0001:0002e630       _pjmedia_rtcp_fb_parse_nack 0042f630 f   pjmedia-i386-win32-vc14-release:rtcp_fb.obj
 0001:0002e700       _pjmedia_stream_info_parse_fmtp 0042f700 f   pjmedia-i386-win32-vc14-release:stream_common.obj
 0001:00030670       _get_libsrtp_errstr        00431670 f   pjmedia-i386-win32-vc14-release:transport_srtp.obj
 0001:00030920       _pjmedia_transport_srtp_start 00431920 f   pjmedia-i386-win32-vc14-release:transport_srtp.obj
 0001:00030fc0       _pjmedia_transport_srtp_stop 00431fc0 f   pjmedia-i386-win32-vc14-release:transport_srtp.obj
 0001:00031cf0       _pjmedia_wsola_create      00432cf0 f   pjmedia-i386-win32-vc14-release:wsola.obj
 0001:00032040       _pjmedia_wsola_generate    00433040 f   pjmedia-i386-win32-vc14-release:wsola.obj
 0001:00032110       _pjmedia_wsola_save        00433110 f   pjmedia-i386-win32-vc14-release:wsola.obj
 0001:000325a0       _pjlib_util_init           004335a0 f   pjlib-util-i386-win32-vc14-release:errno.obj
 0001:000325c0       _pjlib_util_strerror       004335c0 f   pjlib-util-i386-win32-vc14-release:errno.obj
 0001:00032f40       _pj_getopt_long            00433f40 f   pjlib-util-i386-win32-vc14-release:getopt.obj
 0001:00032f60       _pj_cis_add_alpha          00433f60 f   pjlib-util-i386-win32-vc14-release:scanner.obj
 0001:00032fb0       _pj_cis_add_cis            00433fb0 f   pjlib-util-i386-win32-vc14-release:scanner.obj
 0001:00032ff0       _pj_cis_add_num            00433ff0 f   pjlib-util-i386-win32-vc14-release:scanner.obj
 0001:00033020       _pj_cis_add_str            00434020 f   pjlib-util-i386-win32-vc14-release:scanner.obj
 0001:00033050       _pj_cis_buf_init           00434050 f   pjlib-util-i386-win32-vc14-release:scanner.obj
 0001:00033080       _pj_cis_del_str            00434080 f   pjlib-util-i386-win32-vc14-release:scanner.obj
 0001:000330b0       _pj_cis_dup                004340b0 f   pjlib-util-i386-win32-vc14-release:scanner.obj
 0001:00033140       _pj_cis_init               00434140 f   pjlib-util-i386-win32-vc14-release:scanner.obj
 0001:00033190       _pj_cis_invert             00434190 f   pjlib-util-i386-win32-vc14-release:scanner.obj
 0001:000331d0       _pj_scan_advance_n         004341d0 f   pjlib-util-i386-win32-vc14-release:scanner.obj
 0001:00033210       _pj_scan_fini              00434210 f   pjlib-util-i386-win32-vc14-release:scanner.obj
 0001:00033230       _pj_scan_get               00434230 f   pjlib-util-i386-win32-vc14-release:scanner.obj
 0001:000332a0       _pj_scan_get_char          004342a0 f   pjlib-util-i386-win32-vc14-release:scanner.obj
 0001:000332e0       _pj_scan_get_n             004342e0 f   pjlib-util-i386-win32-vc14-release:scanner.obj
 0001:00033330       _pj_scan_get_newline       00434330 f   pjlib-util-i386-win32-vc14-release:scanner.obj
 0001:00033370       _pj_scan_get_quote         00434370 f   pjlib-util-i386-win32-vc14-release:scanner.obj
 0001:00033440       _pj_scan_get_until_ch      00434440 f   pjlib-util-i386-win32-vc14-release:scanner.obj
 0001:000334a0       _pj_scan_get_until_chr     004344a0 f   pjlib-util-i386-win32-vc14-release:scanner.obj
 0001:00033530       _pj_scan_init              00434530 f   pjlib-util-i386-win32-vc14-release:scanner.obj
 0001:00033580       _pj_scan_peek              00434580 f   pjlib-util-i386-win32-vc14-release:scanner.obj
 0001:000335e0       _pj_scan_skip_line         004345e0 f   pjlib-util-i386-win32-vc14-release:scanner.obj
 0001:00033610       _pj_scan_skip_whitespace   00434610 f   pjlib-util-i386-win32-vc14-release:scanner.obj
 0001:00033700       _pj_str_unescape           00434700 f   pjlib-util-i386-win32-vc14-release:string.obj
 0001:000337e0       _pj_strncpy2_escape        004347e0 f   pjlib-util-i386-win32-vc14-release:string.obj
 0001:00033b00       _pj_dns_parse_addr_response 00434b00 f   pjlib-util-i386-win32-vc14-release:resolver.obj
 0001:00033dd0       _pj_dns_resolver_cancel_query 00434dd0 f   pjlib-util-i386-win32-vc14-release:resolver.obj
 0001:00033e50       _pj_dns_resolver_destroy   00434e50 f   pjlib-util-i386-win32-vc14-release:resolver.obj
 0001:00033ff0       _pj_dns_resolver_start_query 00434ff0 f   pjlib-util-i386-win32-vc14-release:resolver.obj
 0001:00034ed0       _pj_md5_final              00435ed0 f   pjlib-util-i386-win32-vc14-release:md5.obj
 0001:00034f60       _pj_md5_init               00435f60 f   pjlib-util-i386-win32-vc14-release:md5.obj
 0001:00034fa0       _pj_md5_update             00435fa0 f   pjlib-util-i386-win32-vc14-release:md5.obj
 0001:00035070       _pj_dns_get_type_name      00436070 f   pjlib-util-i386-win32-vc14-release:dns.obj
 0001:00035120       _pj_dns_make_query         00436120 f   pjlib-util-i386-win32-vc14-release:dns.obj
 0001:000360b0       _pj_dns_srv_resolve        004370b0 f   pjlib-util-i386-win32-vc14-release:srv_resolver.obj
 0001:00036230       _pj_base64_decode          00437230 f   pjlib-util-i386-win32-vc14-release:base64.obj
 0001:00036420       _pj_base64_encode          00437420 f   pjlib-util-i386-win32-vc14-release:base64.obj
 0001:00036620       _pj_atexit                 00437620 f   pjlib-i386-win32-vc14-release:os_core_win32.obj
 0001:00036650       _pj_atomic_create          00437650 f   pjlib-i386-win32-vc14-release:os_core_win32.obj
 0001:00036680       _pj_atomic_dec_and_get     00437680 f   pjlib-i386-win32-vc14-release:os_core_win32.obj
 0001:000366d0       _pj_atomic_destroy         004376d0 f   pjlib-i386-win32-vc14-release:os_core_win32.obj
 0001:000366f0       _pj_atomic_get             004376f0 f   pjlib-i386-win32-vc14-release:os_core_win32.obj
 0001:00036740       _pj_atomic_inc             00437740 f   pjlib-i386-win32-vc14-release:os_core_win32.obj
 0001:00036790       _pj_atomic_inc_and_get     00437790 f   pjlib-i386-win32-vc14-release:os_core_win32.obj
 0001:000367e0       _pj_atomic_set             004377e0 f   pjlib-i386-win32-vc14-release:os_core_win32.obj
 0001:00036830       _pj_enter_critical_section 00437830 f   pjlib-i386-win32-vc14-release:os_core_win32.obj
 0001:00036890       _pj_init                   00437890 f   pjlib-i386-win32-vc14-release:os_core_win32.obj
 0001:00036aa0       _pj_leave_critical_section 00437aa0 f   pjlib-i386-win32-vc14-release:os_core_win32.obj
 0001:00036b00       _pj_mutex_create           00437b00 f   pjlib-i386-win32-vc14-release:os_core_win32.obj
 0001:00036b50       _pj_mutex_create_recursive 00437b50 f   pjlib-i386-win32-vc14-release:os_core_win32.obj
 0001:00036b50       _pj_mutex_create_simple    00437b50 f   pjlib-i386-win32-vc14-release:os_core_win32.obj
 0001:00036ba0       _pj_mutex_destroy          00437ba0 f   pjlib-i386-win32-vc14-release:os_core_win32.obj
 0001:00036c10       _pj_mutex_lock             00437c10 f   pjlib-i386-win32-vc14-release:os_core_win32.obj
 0001:00036c80       _pj_mutex_trylock          00437c80 f   pjlib-i386-win32-vc14-release:os_core_win32.obj
 0001:00036d00       _pj_mutex_unlock           00437d00 f   pjlib-i386-win32-vc14-release:os_core_win32.obj
 0001:00036d70       _pj_rwmutex_create         00437d70 f   pjlib-i386-win32-vc14-release:os_core_win32.obj
 0001:00036f10       _pj_rwmutex_destroy        00437f10 f   pjlib-i386-win32-vc14-release:os_core_win32.obj
 0001:00036fa0       _pj_rwmutex_lock_read      00437fa0 f   pjlib-i386-win32-vc14-release:os_core_win32.obj
 0001:00036ff0       _pj_rwmutex_lock_write     00437ff0 f   pjlib-i386-win32-vc14-release:os_core_win32.obj
 0001:00037010       _pj_rwmutex_unlock_read    00438010 f   pjlib-i386-win32-vc14-release:os_core_win32.obj
 0001:00037050       _pj_rwmutex_unlock_write   00438050 f   pjlib-i386-win32-vc14-release:os_core_win32.obj
 0001:00037070       _pj_sem_destroy            00438070 f   pjlib-i386-win32-vc14-release:os_core_win32.obj
 0001:00037100       _pj_sem_post               00438100 f   pjlib-i386-win32-vc14-release:os_core_win32.obj
 0001:000371a0       _pj_sem_trywait            004381a0 f   pjlib-i386-win32-vc14-release:os_core_win32.obj
 0001:00037200       _pj_sem_wait               00438200 f   pjlib-i386-win32-vc14-release:os_core_win32.obj
 0001:00037310       _pj_shutdown               00438310 f   pjlib-i386-win32-vc14-release:os_core_win32.obj
 0001:00037450       _pj_term_set_color         00438450 f   pjlib-i386-win32-vc14-release:os_core_win32.obj
 0001:00037520       _pj_thread_check_stack     00438520 f   pjlib-i386-win32-vc14-release:os_core_win32.obj
 0001:00037570       _pj_thread_create          00438570 f   pjlib-i386-win32-vc14-release:os_core_win32.obj
 0001:000376c0       _pj_thread_destroy         004386c0 f   pjlib-i386-win32-vc14-release:os_core_win32.obj
 0001:00037750       _pj_thread_get_name        00438750 f   pjlib-i386-win32-vc14-release:os_core_win32.obj
 0001:000377a0       _pj_thread_join            004387a0 f   pjlib-i386-win32-vc14-release:os_core_win32.obj
 0001:00037860       _pj_thread_local_alloc     00438860 f   pjlib-i386-win32-vc14-release:os_core_win32.obj
 0001:000378b0       _pj_thread_local_free      004388b0 f   pjlib-i386-win32-vc14-release:os_core_win32.obj
 0001:00037900       _pj_thread_local_get       00438900 f   pjlib-i386-win32-vc14-release:os_core_win32.obj
 0001:00037910       _pj_thread_local_set       00438910 f   pjlib-i386-win32-vc14-release:os_core_win32.obj
 0001:00037950       _pj_thread_sleep           00438950 f   pjlib-i386-win32-vc14-release:os_core_win32.obj
 0001:000379a0       _pj_thread_this            004389a0 f   pjlib-i386-win32-vc14-release:os_core_win32.obj
 0001:00037a30       _pj_time_val_normalize     00438a30 f   pjlib-i386-win32-vc14-release:types.obj
 0001:00037ae0       _pj_errno_clear_handlers   00438ae0 f   pjlib-i386-win32-vc14-release:errno.obj
 0001:00037b00       _pj_perror                 00438b00 f   pjlib-i386-win32-vc14-release:errno.obj
 0001:00037b20       _pj_perror_1               00438b20 f   pjlib-i386-win32-vc14-release:errno.obj
 0001:00037b40       _pj_perror_2               00438b40 f   pjlib-i386-win32-vc14-release:errno.obj
 0001:00037b60       _pj_perror_3               00438b60 f   pjlib-i386-win32-vc14-release:errno.obj
 0001:00037b80       _pj_perror_4               00438b80 f   pjlib-i386-win32-vc14-release:errno.obj
 0001:00037d70       _pj_register_strerror      00438d70 f   pjlib-i386-win32-vc14-release:errno.obj
 0001:00037e40       _pj_strerror               00438e40 f   pjlib-i386-win32-vc14-release:errno.obj
 0001:00037f80       _pj_gethostname            00438f80 f   pjlib-i386-win32-vc14-release:sock_bsd.obj
 0001:00038000       _pj_htonl                  00439000 f   pjlib-i386-win32-vc14-release:sock_bsd.obj
 0001:00038010       _pj_htons                  00439010 f   pjlib-i386-win32-vc14-release:sock_bsd.obj
 0001:00038020       _pj_inet_aton              00439020 f   pjlib-i386-win32-vc14-release:sock_bsd.obj
 0001:000380b0       _pj_inet_ntop              004390b0 f   pjlib-i386-win32-vc14-release:sock_bsd.obj
 0001:000381d0       _pj_inet_pton              004391d0 f   pjlib-i386-win32-vc14-release:sock_bsd.obj
 0001:00038330       _pj_ntohl                  00439330 f   pjlib-i386-win32-vc14-release:sock_bsd.obj
 0001:00038340       _pj_ntohs                  00439340 f   pjlib-i386-win32-vc14-release:sock_bsd.obj
 0001:00038350       _pj_sock_accept            00439350 f   pjlib-i386-win32-vc14-release:sock_bsd.obj
 0001:000383c0       _pj_sock_bind              004393c0 f   pjlib-i386-win32-vc14-release:sock_bsd.obj
 0001:00038430       _pj_sock_close             00439430 f   pjlib-i386-win32-vc14-release:sock_bsd.obj
 0001:00038480       _pj_sock_connect           00439480 f   pjlib-i386-win32-vc14-release:sock_bsd.obj
 0001:000384e0       _pj_sock_getsockname       004394e0 f   pjlib-i386-win32-vc14-release:sock_bsd.obj
 0001:00038540       _pj_sock_getsockopt        00439540 f   pjlib-i386-win32-vc14-release:sock_bsd.obj
 0001:000385b0       _pj_sock_recv              004395b0 f   pjlib-i386-win32-vc14-release:sock_bsd.obj
 0001:00038620       _pj_sock_recvfrom          00439620 f   pjlib-i386-win32-vc14-release:sock_bsd.obj
 0001:00038690       _pj_sock_send              00439690 f   pjlib-i386-win32-vc14-release:sock_bsd.obj
 0001:00038700       _pj_sock_sendto            00439700 f   pjlib-i386-win32-vc14-release:sock_bsd.obj
 0001:00038770       _pj_sock_setsockopt        00439770 f   pjlib-i386-win32-vc14-release:sock_bsd.obj
 0001:000387f0       _pj_sock_setsockopt_params 004397f0 f   pjlib-i386-win32-vc14-release:sock_bsd.obj
 0001:00038900       _pj_sock_socket            00439900 f   pjlib-i386-win32-vc14-release:sock_bsd.obj
 0001:000389b0       _pj_addr_str_print         004399b0 f   pjlib-i386-win32-vc14-release:sock_common.obj
 0001:00038a80       _pj_gethostip              00439a80 f   pjlib-i386-win32-vc14-release:sock_common.obj
 0001:00039440       _pj_getipinterface         0043a440 f   pjlib-i386-win32-vc14-release:sock_common.obj
 0001:00039650       _pj_sockaddr_cmp           0043a650 f   pjlib-i386-win32-vc14-release:sock_common.obj
 0001:000397d0       _pj_sockaddr_cp            0043a7d0 f   pjlib-i386-win32-vc14-release:sock_common.obj
 0001:00039830       _pj_sockaddr_get_addr      0043a830 f   pjlib-i386-win32-vc14-release:sock_common.obj
 0001:00039870       _pj_sockaddr_get_addr_len  0043a870 f   pjlib-i386-win32-vc14-release:sock_common.obj
 0001:000398b0       _pj_sockaddr_get_len       0043a8b0 f   pjlib-i386-win32-vc14-release:sock_common.obj
 0001:000398f0       _pj_sockaddr_get_port      0043a8f0 f   pjlib-i386-win32-vc14-release:sock_common.obj
 0001:00039920       _pj_sockaddr_has_addr      0043a920 f   pjlib-i386-win32-vc14-release:sock_common.obj
 0001:000399d0       _pj_sockaddr_in_init       0043a9d0 f   pjlib-i386-win32-vc14-release:sock_common.obj
 0001:00039a20       _pj_sockaddr_in_set_str_addr 0043aa20 f   pjlib-i386-win32-vc14-release:sock_common.obj
 0001:00039b10       _pj_sockaddr_init          0043ab10 f   pjlib-i386-win32-vc14-release:sock_common.obj
 0001:00039cb0       _pj_sockaddr_print         0043acb0 f   pjlib-i386-win32-vc14-release:sock_common.obj
 0001:00039dc0       _pj_sockaddr_set_port      0043adc0 f   pjlib-i386-win32-vc14-release:sock_common.obj
 0001:00039e00       _pj_sockaddr_synthesize    0043ae00 f   pjlib-i386-win32-vc14-release:sock_common.obj
 0001:00039f60       _pj_NO_MEMORY_EXCEPTION    0043af60 f   pjlib-i386-win32-vc14-release:pool.obj
 0001:00039f70       _pj_pool_alloc             0043af70 f   pjlib-i386-win32-vc14-release:pool.obj
 0001:0003a0e0       _pj_pool_calloc            0043b0e0 f   pjlib-i386-win32-vc14-release:pool.obj
 0001:0003a110       _pj_pool_create            0043b110 f   pjlib-i386-win32-vc14-release:pool.obj
 0001:0003a120       _pj_pool_create_int        0043b120 f   pjlib-i386-win32-vc14-release:pool.obj
 0001:0003a230       _pj_pool_destroy_int       0043b230 f   pjlib-i386-win32-vc14-release:pool.obj
 0001:0003a270       _pj_pool_get_capacity      0043b270 f   pjlib-i386-win32-vc14-release:pool.obj
 0001:0003a280       _pj_pool_get_used_size     0043b280 f   pjlib-i386-win32-vc14-release:pool.obj
 0001:0003a2b0       _pj_pool_init_int          0043b2b0 f   pjlib-i386-win32-vc14-release:pool.obj
 0001:0003a320       _pj_pool_release           0043b320 f   pjlib-i386-win32-vc14-release:pool.obj
 0001:0003a340       _pj_pool_reset             0043b340 f   pjlib-i386-win32-vc14-release:pool.obj
 0001:0003a750       _pj_caching_pool_destroy   0043b750 f   pjlib-i386-win32-vc14-release:pool_caching.obj
 0001:0003a830       _pj_caching_pool_init      0043b830 f   pjlib-i386-win32-vc14-release:pool_caching.obj
 0001:0003a8f0       _pj_str                    0043b8f0 f   pjlib-i386-win32-vc14-release:string.obj
 0001:0003a910       _pj_strassign              0043b910 f   pjlib-i386-win32-vc14-release:string.obj
 0001:0003a930       _pj_strcat                 0043b930 f   pjlib-i386-win32-vc14-release:string.obj
 0001:0003a960       _pj_strcat2                0043b960 f   pjlib-i386-win32-vc14-release:string.obj
 0001:0003a9a0       _pj_strcmp                 0043b9a0 f   pjlib-i386-win32-vc14-release:string.obj
 0001:0003aa50       _pj_strcmp2                0043ba50 f   pjlib-i386-win32-vc14-release:string.obj
 0001:0003aab0       _pj_strcpy                 0043bab0 f   pjlib-i386-win32-vc14-release:string.obj
 0001:0003aae0       _pj_strcpy2                0043bae0 f   pjlib-i386-win32-vc14-release:string.obj
 0001:0003ab20       _pj_strdup                 0043bb20 f   pjlib-i386-win32-vc14-release:string.obj
 0001:0003ab60       _pj_strdup2                0043bb60 f   pjlib-i386-win32-vc14-release:string.obj
 0001:0003abc0       _pj_strdup2_with_null      0043bbc0 f   pjlib-i386-win32-vc14-release:string.obj
 0001:0003ac20       _pj_strdup_with_null       0043bc20 f   pjlib-i386-win32-vc14-release:string.obj
 0001:0003ac70       _pj_stricmp                0043bc70 f   pjlib-i386-win32-vc14-release:string.obj
 0001:0003acd0       _pj_stricmp2               0043bcd0 f   pjlib-i386-win32-vc14-release:string.obj
 0001:0003ad40       _pj_strltrim               0043bd40 f   pjlib-i386-win32-vc14-release:string.obj
 0001:0003ad80       _pj_strncpy                0043bd80 f   pjlib-i386-win32-vc14-release:string.obj
 0001:0003adc0       _pj_strncpy_with_null      0043bdc0 f   pjlib-i386-win32-vc14-release:string.obj
 0001:0003ae00       _pj_strnicmp               0043be00 f   pjlib-i386-win32-vc14-release:string.obj
 0001:0003ae40       _pj_strnicmp2              0043be40 f   pjlib-i386-win32-vc14-release:string.obj
 0001:0003aeb0       _pj_strstr                 0043beb0 f   pjlib-i386-win32-vc14-release:string.obj
 0001:0003af00       _pj_strtok                 0043bf00 f   pjlib-i386-win32-vc14-release:string.obj
 0001:0003aff0       _pj_strtok2                0043bff0 f   pjlib-i386-win32-vc14-release:string.obj
 0001:0003b0d0       _pj_strtol2                0043c0d0 f   pjlib-i386-win32-vc14-release:string.obj
 0001:0003b250       _pj_strtoul                0043c250 f   pjlib-i386-win32-vc14-release:string.obj
 0001:0003b2b0       _pj_strtoul2               0043c2b0 f   pjlib-i386-win32-vc14-release:string.obj
 0001:0003b360       _pj_strtoul3               0043c360 f   pjlib-i386-win32-vc14-release:string.obj
 0001:0003b4e0       _pj_strtrim                0043c4e0 f   pjlib-i386-win32-vc14-release:string.obj
 0001:0003b560       _pj_utoa                   0043c560 f   pjlib-i386-win32-vc14-release:string.obj
 0001:0003b5e0       _pj_utoa_pad               0043c5e0 f   pjlib-i386-win32-vc14-release:string.obj
 0001:0003b680       _pj_gettimeofday           0043c680 f   pjlib-i386-win32-vc14-release:os_time_win32.obj
 0001:0003b730       _pj_time_decode            0043c730 f   pjlib-i386-win32-vc14-release:os_time_win32.obj
 0001:0003b7e0       _pj_get_timestamp          0043c7e0 f   pjlib-i386-win32-vc14-release:os_timestamp_win32.obj
 0001:0003b840       _pj_get_timestamp_freq     0043c840 f   pjlib-i386-win32-vc14-release:os_timestamp_win32.obj
 0001:0003b8a0       _pj_log_write              0043c8a0 f   pjlib-i386-win32-vc14-release:log_writer_stdout.obj
 0001:0003b940       _pj_log                    0043c940 f   pjlib-i386-win32-vc14-release:log.obj
 0001:0003be40       _pj_log_1                  0043ce40 f   pjlib-i386-win32-vc14-release:log.obj
 0001:0003be60       _pj_log_2                  0043ce60 f   pjlib-i386-win32-vc14-release:log.obj
 0001:0003be80       _pj_log_3                  0043ce80 f   pjlib-i386-win32-vc14-release:log.obj
 0001:0003bea0       _pj_log_4                  0043cea0 f   pjlib-i386-win32-vc14-release:log.obj
 0001:0003bec0       _pj_log_5                  0043cec0 f   pjlib-i386-win32-vc14-release:log.obj
 0001:0003bee0       _pj_log_get_color          0043cee0 f   pjlib-i386-win32-vc14-release:log.obj
 0001:0003bf50       _pj_log_get_decor          0043cf50 f   pjlib-i386-win32-vc14-release:log.obj
 0001:0003bf60       _pj_log_get_level          0043cf60 f   pjlib-i386-win32-vc14-release:log.obj
 0001:0003bf70       _pj_log_init               0043cf70 f   pjlib-i386-win32-vc14-release:log.obj
 0001:0003bfe0       _pj_log_pop_indent         0043cfe0 f   pjlib-i386-win32-vc14-release:log.obj
 0001:0003c010       _pj_log_push_indent        0043d010 f   pjlib-i386-win32-vc14-release:log.obj
 0001:0003c040       _pj_log_set_decor          0043d040 f   pjlib-i386-win32-vc14-release:log.obj
 0001:0003c050       _pj_log_set_log_func       0043d050 f   pjlib-i386-win32-vc14-release:log.obj
 0001:0003c060       _pj_rand                   0043d060 f   pjlib-i386-win32-vc14-release:rand.obj
 0001:0003c150       _pj_list_erase             0043d150 f   pjlib-i386-win32-vc14-release:list.obj
 0001:0003c170       _pj_list_find_node         0043d170 f   pjlib-i386-win32-vc14-release:list.obj
 0001:0003c1a0       _pj_list_insert_after      0043d1a0 f   pjlib-i386-win32-vc14-release:list.obj
 0001:0003c1c0       _pj_list_insert_before     0043d1c0 f   pjlib-i386-win32-vc14-release:list.obj
 0001:0003c1e0       _pj_list_insert_nodes_before 0043d1e0 f   pjlib-i386-win32-vc14-release:list.obj
 0001:0003c200       _pj_list_search            0043d200 f   pjlib-i386-win32-vc14-release:list.obj
 0001:0003c240       _pj_list_size              0043d240 f   pjlib-i386-win32-vc14-release:list.obj
 0001:0003c510       _pj_grp_lock_acquire       0043d510 f   pjlib-i386-win32-vc14-release:lock.obj
 0001:0003c520       _pj_grp_lock_add_handler   0043d520 f   pjlib-i386-win32-vc14-release:lock.obj
 0001:0003c570       _pj_grp_lock_add_ref       0043d570 f   pjlib-i386-win32-vc14-release:lock.obj
 0001:0003c590       _pj_grp_lock_create        0043d590 f   pjlib-i386-win32-vc14-release:lock.obj
 0001:0003c680       _pj_grp_lock_create_w_handler 0043d680 f   pjlib-i386-win32-vc14-release:lock.obj
 0001:0003c7a0       _pj_grp_lock_dec_ref       0043d7a0 f   pjlib-i386-win32-vc14-release:lock.obj
 0001:0003c7d0       _pj_grp_lock_release       0043d7d0 f   pjlib-i386-win32-vc14-release:lock.obj
 0001:0003c7e0       _pj_grp_lock_tryacquire    0043d7e0 f   pjlib-i386-win32-vc14-release:lock.obj
 0001:0003c7f0       _pj_lock_acquire           0043d7f0 f   pjlib-i386-win32-vc14-release:lock.obj
 0001:0003c810       _pj_lock_create_null_mutex 0043d810 f   pjlib-i386-win32-vc14-release:lock.obj
 0001:0003c830       _pj_lock_create_recursive_mutex 0043d830 f   pjlib-i386-win32-vc14-release:lock.obj
 0001:0003c850       _pj_lock_create_simple_mutex 0043d850 f   pjlib-i386-win32-vc14-release:lock.obj
 0001:0003c870       _pj_lock_destroy           0043d870 f   pjlib-i386-win32-vc14-release:lock.obj
 0001:0003c890       _pj_lock_release           0043d890 f   pjlib-i386-win32-vc14-release:lock.obj
 0001:0003c8b0       _pj_lock_tryacquire        0043d8b0 f   pjlib-i386-win32-vc14-release:lock.obj
 0001:0003c8d0       _pj_array_erase            0043d8d0 f   pjlib-i386-win32-vc14-release:array.obj
 0001:0003c910       _pj_array_insert           0043d910 f   pjlib-i386-win32-vc14-release:array.obj
 0001:0003ca20       _pj_timer_entry_init       0043da20 f   pjlib-i386-win32-vc14-release:timer.obj
 0001:0003ca50       _pj_timer_entry_running    0043da50 f   pjlib-i386-win32-vc14-release:timer.obj
 0001:0003ca70       _pj_timer_heap_cancel      0043da70 f   pjlib-i386-win32-vc14-release:timer.obj
 0001:0003ca90       _pj_timer_heap_cancel_if_active 0043da90 f   pjlib-i386-win32-vc14-release:timer.obj
 0001:0003cab0       _pj_timer_heap_create      0043dab0 f   pjlib-i386-win32-vc14-release:timer.obj
 0001:0003cc60       _pj_timer_heap_destroy     0043dc60 f   pjlib-i386-win32-vc14-release:timer.obj
 0001:0003cc90       _pj_timer_heap_poll        0043dc90 f   pjlib-i386-win32-vc14-release:timer.obj
 0001:0003ce10       _pj_timer_heap_schedule    0043de10 f   pjlib-i386-win32-vc14-release:timer.obj
 0001:0003ce30       _pj_timer_heap_schedule_w_grp_lock 0043de30 f   pjlib-i386-win32-vc14-release:timer.obj
 0001:0003ce50       _pj_timer_heap_set_lock    0043de50 f   pjlib-i386-win32-vc14-release:timer.obj
 0001:0003ce80       _pj_timer_heap_set_max_timed_out_per_poll 0043de80 f   pjlib-i386-win32-vc14-release:timer.obj
 0001:0003d340       _ioqueue_dispatch_read_event 0043e340 f   pjlib-i386-win32-vc14-release:ioqueue_select.obj
 0001:0003d550       _ioqueue_dispatch_write_event 0043e550 f   pjlib-i386-win32-vc14-release:ioqueue_select.obj
 0001:0003d7e0       _pj_ioqueue_create         0043e7e0 f   pjlib-i386-win32-vc14-release:ioqueue_select.obj
 0001:0003d9b0       _pj_ioqueue_destroy        0043e9b0 f   pjlib-i386-win32-vc14-release:ioqueue_select.obj
 0001:0003da70       _pj_ioqueue_get_user_data  0043ea70 f   pjlib-i386-win32-vc14-release:ioqueue_select.obj
 0001:0003da90       _pj_ioqueue_is_pending     0043ea90 f   pjlib-i386-win32-vc14-release:ioqueue_select.obj
 0001:0003daa0       _pj_ioqueue_lock_key       0043eaa0 f   pjlib-i386-win32-vc14-release:ioqueue_select.obj
 0001:0003dad0       _pj_ioqueue_op_key_init    0043ead0 f   pjlib-i386-win32-vc14-release:ioqueue_select.obj
 0001:0003daf0       _pj_ioqueue_poll           0043eaf0 f   pjlib-i386-win32-vc14-release:ioqueue_select.obj
 0001:0003dfd0       _pj_ioqueue_post_completion 0043efd0 f   pjlib-i386-win32-vc14-release:ioqueue_select.obj
 0001:0003e130       _pj_ioqueue_recvfrom       0043f130 f   pjlib-i386-win32-vc14-release:ioqueue_select.obj
 0001:0003e270       _pj_ioqueue_register_sock  0043f270 f   pjlib-i386-win32-vc14-release:ioqueue_select.obj
 0001:0003e2a0       _pj_ioqueue_register_sock2 0043f2a0 f   pjlib-i386-win32-vc14-release:ioqueue_select.obj
 0001:0003e430       _pj_ioqueue_sendto         0043f430 f   pjlib-i386-win32-vc14-release:ioqueue_select.obj
 0001:0003e5d0       _pj_ioqueue_set_concurrency 0043f5d0 f   pjlib-i386-win32-vc14-release:ioqueue_select.obj
 0001:0003e5f0       _pj_ioqueue_unlock_key     0043f5f0 f   pjlib-i386-win32-vc14-release:ioqueue_select.obj
 0001:0003e620       _pj_ioqueue_unregister     0043f620 f   pjlib-i386-win32-vc14-release:ioqueue_select.obj
 0001:0003e820       _pj_exception_id_alloc     0043f820 f   pjlib-i386-win32-vc14-release:except.obj
 0001:0003e870       _pj_exception_id_free      0043f870 f   pjlib-i386-win32-vc14-release:except.obj
 0001:0003e8b0       _pj_exception_id_name      0043f8b0 f   pjlib-i386-win32-vc14-release:except.obj
 0001:0003e8f0       _pj_pop_exception_handler_ 0043f8f0 f   pjlib-i386-win32-vc14-release:except.obj
 0001:0003e920       _pj_push_exception_handler_ 0043f920 f   pjlib-i386-win32-vc14-release:except.obj
 0001:0003e970       _pj_throw_exception_       0043f970 f   pjlib-i386-win32-vc14-release:except.obj
 0001:0003ec00       _pj_hash_calc              0043fc00 f   pjlib-i386-win32-vc14-release:hash.obj
 0001:0003ec90       _pj_hash_calc_tolower      0043fc90 f   pjlib-i386-win32-vc14-release:hash.obj
 0001:0003ece0       _pj_hash_count             0043fce0 f   pjlib-i386-win32-vc14-release:hash.obj
 0001:0003ecf0       _pj_hash_create            0043fcf0 f   pjlib-i386-win32-vc14-release:hash.obj
 0001:0003ed40       _pj_hash_first             0043fd40 f   pjlib-i386-win32-vc14-release:hash.obj
 0001:0003ed80       _pj_hash_get               0043fd80 f   pjlib-i386-win32-vc14-release:hash.obj
 0001:0003edb0       _pj_hash_get_lower         0043fdb0 f   pjlib-i386-win32-vc14-release:hash.obj
 0001:0003ede0       _pj_hash_next              0043fde0 f   pjlib-i386-win32-vc14-release:hash.obj
 0001:0003ee30       _pj_hash_set               0043fe30 f   pjlib-i386-win32-vc14-release:hash.obj
 0001:0003ee90       _pj_hash_set_lower         0043fe90 f   pjlib-i386-win32-vc14-release:hash.obj
 0001:0003eef0       _pj_hash_set_np            0043fef0 f   pjlib-i386-win32-vc14-release:hash.obj
 0001:0003ef50       _pj_hash_set_np_lower      0043ff50 f   pjlib-i386-win32-vc14-release:hash.obj
 0001:0003efb0       _pj_hash_this              0043ffb0 f   pjlib-i386-win32-vc14-release:hash.obj
 0001:0003efd0       _pj_get_netos_error        0043ffd0 f   pjlib-i386-win32-vc14-release:os_error_win32.obj
 0001:0003f000       _pj_get_os_error           00440000 f   pjlib-i386-win32-vc14-release:os_error_win32.obj
 0001:0003f020       _platform_strerror         00440020 f   pjlib-i386-win32-vc14-release:os_error_win32.obj
 0001:0003f100       _pj_GUID_STRING_LENGTH     00440100 f   pjlib-i386-win32-vc14-release:guid_win32.obj
 0001:0003f110       _pj_generate_unique_string 00440110 f   pjlib-i386-win32-vc14-release:guid_win32.obj
 0001:0003f1c0       _pj_create_unique_string   004401c0 f   pjlib-i386-win32-vc14-release:guid.obj
 0001:0003f1f0       _pj_qos_get_params         004401f0 f   pjlib-i386-win32-vc14-release:sock_qos_common.obj
 0001:0003f220       _pj_sock_apply_qos2        00440220 f   pjlib-i386-win32-vc14-release:sock_qos_common.obj
 0001:0003f2f0       _pj_getaddrinfo            004402f0 f   pjlib-i386-win32-vc14-release:addr_resolv_sock.obj
 0001:0003f4b0       _pj_pool_create_on_buf     004404b0 f   pjlib-i386-win32-vc14-release:pool_buf.obj
 0001:0003f900       _pj_enum_ip_interface      00440900 f   pjlib-i386-win32-vc14-release:ip_helper_win32.obj
 0001:0003fb90       _pj_gettickcount           00440b90 f   pjlib-i386-win32-vc14-release:os_timestamp_common.obj
 0001:0003fc60       _PJ_FD_CLR                 00440c60 f   pjlib-i386-win32-vc14-release:sock_select.obj
 0001:0003fce0       _srtp_rdb_get_value        00440ce0 f   libsrtp-i386-win32-vc14-release:rdb.obj
 0001:0003fce0       _PJ_FD_COUNT               00440ce0 f   pjlib-i386-win32-vc14-release:sock_select.obj
 0001:0003fcf0       _PJ_FD_ISSET               00440cf0 f   pjlib-i386-win32-vc14-release:sock_select.obj
 0001:0003fd20       _PJ_FD_SET                 00440d20 f   pjlib-i386-win32-vc14-release:sock_select.obj
 0001:0003fd90       _PJ_FD_ZERO                00440d90 f   pjlib-i386-win32-vc14-release:sock_select.obj
 0001:0003fdc0       _pj_sock_select            00440dc0 f   pjlib-i386-win32-vc14-release:sock_select.obj
 0001:0003fe30       _pj_sock_set_qos_params    00440e30 f   pjlib-i386-win32-vc14-release:sock_qos_bsd.obj
 0001:0003ff50       _pj_sock_set_qos_type      00440f50 f   pjlib-i386-win32-vc14-release:sock_qos_bsd.obj
 0001:00040090       _srtp_event_reporter       00441090 f   libsrtp-i386-win32-vc14-release:srtp.obj
 0001:00040130       ___local_stdio_scanf_options 00441130 f i libsrtp-i386-win32-vc14-release:srtp.obj
 0001:000401c0       _srtp_add_stream           004411c0 f   libsrtp-i386-win32-vc14-release:srtp.obj
 0001:00040470       _srtp_create               00441470 f   libsrtp-i386-win32-vc14-release:srtp.obj
 0001:000404f0       _srtp_crypto_policy_set_aes_cm_256_hmac_sha1_32 004414f0 f   libsrtp-i386-win32-vc14-release:srtp.obj
 0001:00040530       _srtp_crypto_policy_set_aes_cm_256_hmac_sha1_80 00441530 f   libsrtp-i386-win32-vc14-release:srtp.obj
 0001:00040570       _srtp_dealloc              00441570 f   libsrtp-i386-win32-vc14-release:srtp.obj
 0001:00040850       _srtp_get_session_keys     00441850 f   libsrtp-i386-win32-vc14-release:srtp.obj
 0001:00040960       _srtp_inject_mki           00441960 f   libsrtp-i386-win32-vc14-release:srtp.obj
 0001:00040cb0       _srtp_protect              00441cb0 f   libsrtp-i386-win32-vc14-release:srtp.obj
 0001:00040fe0       _srtp_protect_mki          00441fe0 f   libsrtp-i386-win32-vc14-release:srtp.obj
 0001:00041590       _srtp_protect_rtcp         00442590 f   libsrtp-i386-win32-vc14-release:srtp.obj
 0001:000417c0       _srtp_protect_rtcp_mki     004427c0 f   libsrtp-i386-win32-vc14-release:srtp.obj
 0001:00041b70       _srtp_stream_alloc         00442b70 f   libsrtp-i386-win32-vc14-release:srtp.obj
 0001:00041e00       _srtp_stream_clone         00442e00 f   libsrtp-i386-win32-vc14-release:srtp.obj
 0001:00042020       _srtp_stream_dealloc       00443020 f   libsrtp-i386-win32-vc14-release:srtp.obj
 0001:000422a0       _srtp_stream_init          004432a0 f   libsrtp-i386-win32-vc14-release:srtp.obj
 0001:00042420       _srtp_stream_init_keys     00443420 f   libsrtp-i386-win32-vc14-release:srtp.obj
 0001:00042c40       _srtp_unprotect            00443c40 f   libsrtp-i386-win32-vc14-release:srtp.obj
 0001:00042f60       _srtp_unprotect_mki        00443f60 f   libsrtp-i386-win32-vc14-release:srtp.obj
 0001:000435b0       _srtp_unprotect_rtcp       004445b0 f   libsrtp-i386-win32-vc14-release:srtp.obj
 0001:00043830       _srtp_unprotect_rtcp_mki   00444830 f   libsrtp-i386-win32-vc14-release:srtp.obj
 0001:00043d20       _srtp_validate_policy_master_keys 00444d20 f   libsrtp-i386-win32-vc14-release:srtp.obj
 0001:00043dd0       _srtp_crypto_alloc         00444dd0 f   libsrtp-i386-win32-vc14-release:alloc.obj
 0001:00043e30       _srtp_crypto_free          00444e30 f   libsrtp-i386-win32-vc14-release:alloc.obj
 0001:00043e60       _bitvector_alloc           00444e60 f   libsrtp-i386-win32-vc14-release:datatypes.obj
 0001:00043ec0       _bitvector_dealloc         00444ec0 f   libsrtp-i386-win32-vc14-release:datatypes.obj
 0001:00043ef0       _bitvector_left_shift      00444ef0 f   libsrtp-i386-win32-vc14-release:datatypes.obj
 0001:00044050       _bitvector_set_to_zero     00445050 f   libsrtp-i386-win32-vc14-release:datatypes.obj
 0001:00044070       _octet_string_is_eq        00445070 f   libsrtp-i386-win32-vc14-release:datatypes.obj
 0001:00044140       _octet_string_set_to_zero  00445140 f   libsrtp-i386-win32-vc14-release:datatypes.obj
 0001:00044160       _srtp_octet_string_hex_string 00445160 f   libsrtp-i386-win32-vc14-release:datatypes.obj
 0001:00044200       _v128_copy_octet_string    00445200 f   libsrtp-i386-win32-vc14-release:datatypes.obj
 0001:00044280       _v128_hex_string           00445280 f   libsrtp-i386-win32-vc14-release:datatypes.obj
 0001:00044310       _v128_left_shift           00445310 f   libsrtp-i386-win32-vc14-release:datatypes.obj
 0001:000443f0       _srtp_err_report           004453f0 f   libsrtp-i386-win32-vc14-release:srtp_err.obj
 0001:00044420       _srtp_rdbx_add_index       00445420 f   libsrtp-i386-win32-vc14-release:rdbx.obj
 0001:00044470       _srtp_rdbx_check           00445470 f   libsrtp-i386-win32-vc14-release:rdbx.obj
 0001:000444b0       _srtp_rdbx_dealloc         004454b0 f   libsrtp-i386-win32-vc14-release:rdbx.obj
 0001:000444d0       _srtp_rdbx_estimate_index  004454d0 f   libsrtp-i386-win32-vc14-release:rdbx.obj
 0001:00044580       _srtp_rdbx_get_packet_index 00445580 f   libsrtp-i386-win32-vc14-release:rdbx.obj
 0001:00044590       _srtp_auth_get_tag_length  00445590 f   libsrtp-i386-win32-vc14-release:auth.obj
 0001:00044590       _srtp_cipher_get_key_length 00445590 f   libsrtp-i386-win32-vc14-release:cipher.obj
 0001:00044590       _srtp_rdbx_get_window_size 00445590 f   libsrtp-i386-win32-vc14-release:rdbx.obj
 0001:000445a0       _srtp_rdbx_init            004455a0 f   libsrtp-i386-win32-vc14-release:rdbx.obj
 0001:000445e0       _srtp_rdbx_set_roc         004455e0 f   libsrtp-i386-win32-vc14-release:rdbx.obj
 0001:00044640       _srtp_rdbx_set_roc_seq     00445640 f   libsrtp-i386-win32-vc14-release:rdbx.obj
 0001:000446a0       _srtp_rdb_add_index        004456a0 f   libsrtp-i386-win32-vc14-release:rdb.obj
 0001:000446f0       _srtp_rdb_check            004456f0 f   libsrtp-i386-win32-vc14-release:rdb.obj
 0001:00044740       _srtp_rdb_increment        00445740 f   libsrtp-i386-win32-vc14-release:rdb.obj
 0001:00044760       _srtp_rdb_init             00445760 f   libsrtp-i386-win32-vc14-release:rdb.obj
 0001:00044790       _srtp_cipher_dealloc       00445790 f   libsrtp-i386-win32-vc14-release:cipher.obj
 0001:000447b0       _srtp_cipher_decrypt       004457b0 f   libsrtp-i386-win32-vc14-release:cipher.obj
 0001:000447e0       _srtp_cipher_encrypt       004457e0 f   libsrtp-i386-win32-vc14-release:cipher.obj
 0001:00044810       _srtp_cipher_get_tag       00445810 f   libsrtp-i386-win32-vc14-release:cipher.obj
 0001:00044850       _srtp_cipher_init          00445850 f   libsrtp-i386-win32-vc14-release:cipher.obj
 0001:00044880       _srtp_cipher_output        00445880 f   libsrtp-i386-win32-vc14-release:cipher.obj
 0001:000448b0       _srtp_cipher_set_aad       004458b0 f   libsrtp-i386-win32-vc14-release:cipher.obj
 0001:000448f0       _srtp_cipher_set_iv        004458f0 f   libsrtp-i386-win32-vc14-release:cipher.obj
 0001:00044920       _srtp_auth_get_key_length  00445920 f   libsrtp-i386-win32-vc14-release:auth.obj
 0001:00044930       _srtp_auth_get_prefix_length 00445930 f   libsrtp-i386-win32-vc14-release:auth.obj
 0001:00044940       _srtp_key_limit_clone      00445940 f   libsrtp-i386-win32-vc14-release:key.obj
 0001:00044960       _srtp_key_limit_set        00445960 f   libsrtp-i386-win32-vc14-release:key.obj
 0001:000449a0       _srtp_key_limit_update     004459a0 f   libsrtp-i386-win32-vc14-release:key.obj
 0001:00044a00       _srtp_crypto_kernel_alloc_auth 00445a00 f   libsrtp-i386-win32-vc14-release:crypto_kernel.obj
 0001:00044a50       _srtp_crypto_kernel_alloc_cipher 00445a50 f   libsrtp-i386-win32-vc14-release:crypto_kernel.obj
 0001:00044aa0       _srtp_ekt_alloc            00445aa0 f   libsrtp-i386-win32-vc14-release:ekt.obj
 0001:00044ab0       _srtp_ekt_octets_after_base_tag 00445ab0 f   libsrtp-i386-win32-vc14-release:ekt.obj
 0001:00044ad0       _srtp_ekt_write_data       00445ad0 f   libsrtp-i386-win32-vc14-release:ekt.obj
 0001:00044c20       _srtp_stream_init_from_ekt 00445c20 f   libsrtp-i386-win32-vc14-release:ekt.obj
 0001:000460e0       _srtp_aes_decrypt          004470e0 f   libsrtp-i386-win32-vc14-release:aes.obj
 0001:00046210       _srtp_aes_encrypt          00447210 f   libsrtp-i386-win32-vc14-release:aes.obj
 0001:00046340       _srtp_aes_expand_decryption_key 00447340 f   libsrtp-i386-win32-vc14-release:aes.obj
 0001:00046640       _srtp_aes_expand_encryption_key 00447640 f   libsrtp-i386-win32-vc14-release:aes.obj
 0001:00046780       _srtp_sha1_core            00447780 f   libsrtp-i386-win32-vc14-release:sha1.obj
 0001:00046cd0       _srtp_sha1_final           00447cd0 f   libsrtp-i386-win32-vc14-release:sha1.obj
 0001:00047310       _srtp_sha1_init            00448310 f   libsrtp-i386-win32-vc14-release:sha1.obj
 0001:00047350       _srtp_sha1_update          00448350 f   libsrtp-i386-win32-vc14-release:sha1.obj
 0001:00047425       ___WSAFDIsSet@8            00448425 f   ws2_32:WS2_32.dll
 0001:0004742b       ___raise_securityfailure   0044842b f   MSVCRT:gs_report.obj
 0001:00047453       ___report_gsfailure        00448453 f   MSVCRT:gs_report.obj
 0001:0004754c       ___report_rangecheckfailure 0044854c f   MSVCRT:gs_report.obj
 0001:00047558       ___report_securityfailure  00448558 f   MSVCRT:gs_report.obj
 0001:00047626       @__security_check_cookie@4 00448626 f   MSVCRT:secchk.obj
 0001:00047640       __allmul                   00448640 f   MSVCRT:llmul.obj
 0001:00047680       __aulldiv                  00448680 f   MSVCRT:ulldiv.obj
 0001:0004792f       _mainCRTStartup            0044892f f   MSVCRT:exe_main.obj
 0001:00047940       __aullrem                  00448940 f   MSVCRT:ullrem.obj
 0001:000479c0       ___vdecl_cos2              004489c0 f   MSVCRT:svml_dcos2_dispatch.obj
 0001:000479c5       ___isa_available_init      004489c5 f   MSVCRT:cpu_disp.obj
 0001:00047b60       __alldiv                   00448b60 f   MSVCRT:lldiv.obj
 0001:00047c10       __ftoui3                   00448c10 f   MSVCRT:ftol3.obj
 0001:00047c1f       __ftoul3                   00448c1f f   MSVCRT:ftol3.obj
 0001:00047c2e       __ftol3                    00448c2e f   MSVCRT:ftol3.obj
 0001:00047c3b       __ftol3_NaN                00448c3b f   MSVCRT:ftol3.obj
 0001:00047c53       __ftol3_work               00448c53 f   MSVCRT:ftol3.obj
 0001:00047cd9       __ftol3_common             00448cd9 f   MSVCRT:ftol3.obj
 0001:00047d9b       __ftol3_arg_error          00448d9b f   MSVCRT:ftol3.obj
 0001:00047dad       __ftol3_except             00448dad f   MSVCRT:ftol3.obj
 0001:00047df1       __dtoui3                   00448df1 f   MSVCRT:ftol3.obj
 0001:00047e00       __dtoul3                   00448e00 f   MSVCRT:ftol3.obj
 0001:00047e0f       __dtol3                    00448e0f f   MSVCRT:ftol3.obj
 0001:00047e1c       __dtol3_NaN                00448e1c f   MSVCRT:ftol3.obj
 0001:00047e39       __dtol3_work               00448e39 f   MSVCRT:ftol3.obj
 0001:00047f20       __ultod3                   00448f20 f   MSVCRT:ftol3.obj
 0001:00047f60       __ltod3                    00448f60 f   MSVCRT:ftol3.obj
 0001:00047fcb       ___scrt_acquire_startup_lock 00448fcb f   MSVCRT:utility.obj
 0001:00047ffd       ___scrt_initialize_crt     00448ffd f   MSVCRT:utility.obj
 0001:00048036       ___scrt_initialize_onexit_tables 00449036 f   MSVCRT:utility.obj
 0001:000480db       ___scrt_is_nonwritable_in_current_image 004490db f   MSVCRT:utility.obj
 0001:0004816f       ___scrt_release_startup_lock 0044916f f   MSVCRT:utility.obj
 0001:0004818c       ___scrt_uninitialize_crt   0044918c f   MSVCRT:utility.obj
 0001:000481b4       __onexit                   004491b4 f   MSVCRT:utility.obj
 0001:000481ef       _atexit                    004491ef f   MSVCRT:utility.obj
 0001:00048251       ___security_init_cookie    00449251 f   MSVCRT:gs_support.obj
 0001:0004829c       __get_startup_argv_mode    0044929c f   MSVCRT:argv_mode.obj
 0001:000482a0       __get_startup_file_mode    004492a0 f   MSVCRT:file_mode.obj
 0001:000482a6       ?__scrt_initialize_type_info@@YAXXZ 004492a6 f   MSVCRT:tncleanup.obj
 0001:000482b2       ___scrt_stub_for_acrt_uninitialize 004492b2 f   MSVCRT:ucrt_stubs.obj
 0001:000482b2       __should_initialize_environment 004492b2 f   MSVCRT:env_mode.obj
 0001:000482b2       ___acrt_initialize         004492b2 f   MSVCRT:ucrt_stubs.obj
 0001:000482b2       ___acrt_uninitialize       004492b2 f   MSVCRT:ucrt_stubs.obj
 0001:000482b2       ___vcrt_uninitialize       004492b2 f   MSVCRT:ucrt_stubs.obj
 0001:000482b2       ___scrt_stub_for_acrt_initialize 004492b2 f   MSVCRT:ucrt_stubs.obj
 0001:000482b2       ___vcrt_initialize         004492b2 f   MSVCRT:ucrt_stubs.obj
 0001:000482b5       __initialize_default_precision 004492b5 f   MSVCRT:default_precision.obj
 0001:000482d6       __initialize_denormal_control 004492d6 f   MSVCRT:denormal_control.obj
 0001:000482d6       @_guard_check_icall_nop@4  004492d6 f   MSVCRT:guard_support.obj
 0001:000482d6       __initialize_invalid_parameter_handler 004492d6 f   MSVCRT:invalid_parameter_handler.obj
 0001:000482d7       ___scrt_initialize_default_local_stdio_options 004492d7 f   MSVCRT:default_local_stdio_options.obj
 0001:000482f4       ___scrt_is_user_matherr_present 004492f4 f   MSVCRT:matherr_detection.obj
 0001:00048300       ___scrt_get_dyn_tls_init_callback 00449300 f   MSVCRT:dyn_tls_init.obj
 0001:00048306       ___scrt_get_dyn_tls_dtor_callback 00449306 f   MSVCRT:dyn_tls_dtor.obj
 0001:0004830c       ___scrt_fastfail           0044930c f   MSVCRT:utility_desktop.obj
 0001:00048426       ___scrt_initialize_mta     00449426 f   MSVCRT:utility_desktop.obj
 0001:0004842b       ___scrt_is_managed_app     0044942b f   MSVCRT:utility_desktop.obj
 0001:0004846e       ___scrt_set_unhandled_exception_filter 0044946e f   MSVCRT:utility_desktop.obj
 0001:0004847a       ___scrt_unhandled_exception_filter@4 0044947a f   MSVCRT:utility_desktop.obj
 0001:000484bb       __crt_debugger_hook        004494bb f   MSVCRT:utility_desktop.obj
 0001:000484c3       __RTC_Initialize           004494c3 f   MSVCRT:initsect.obj
 0001:000484ef       __RTC_Terminate            004494ef f   MSVCRT:initsect.obj
 0001:00048520       __SEH_prolog4              00449520 f   MSVCRT:sehprolg4.obj
 0001:00048566       __SEH_epilog4              00449566 f   MSVCRT:sehprolg4.obj
 0001:0004857b       __except_handler4          0044957b f   MSVCRT:chandler4gs.obj
 0001:000485a0       ___sse2_cos2               004495a0 f   MSVCRT:svml_dcos2_sse2.obj
 0001:00048740       ___scrt_is_ucrt_dll_in_use 00449740 f   MSVCRT:ucrt_detection.obj
 0001:00048750       ___common_sin_reduction_LA 00449750 f   MSVCRT:svml_dtrig.obj
 0001:00048aa0       ___common_cos_reduction_LA 00449aa0 f   MSVCRT:svml_dtrig.obj
 0001:00048d90       ___common_pi04_reduction_LA 00449d90 f   MSVCRT:svml_dtrig.obj
 0001:000490a0       _IsProcessorFeaturePresent@4 0044a0a0 f   kernel32:KERNEL32.dll
 0001:000490a6       _memcpy                    0044a0a6 f   vcruntime:VCRUNTIME140.dll
 0001:000490ac       _memset                    0044a0ac f   vcruntime:VCRUNTIME140.dll
 0001:000490b2       _memchr                    0044a0b2 f   vcruntime:VCRUNTIME140.dll
 0001:000490b8       __setjmp3                  0044a0b8 f   vcruntime:VCRUNTIME140.dll
 0001:000490be       _memmove                   0044a0be f   vcruntime:VCRUNTIME140.dll
 0001:000490c4       _strchr                    0044a0c4 f   vcruntime:VCRUNTIME140.dll
 0001:000490ca       _longjmp                   0044a0ca f   vcruntime:VCRUNTIME140.dll
 0001:000490d0       __except_handler4_common   0044a0d0 f   vcruntime:VCRUNTIME140.dll
 0001:000490d6       __libm_sse2_cos_precise    0044a0d6 f   ucrt:api-ms-win-crt-math-l1-1-0.dll
 0001:000490dc       __CIfmod                   0044a0dc f   ucrt:api-ms-win-crt-math-l1-1-0.dll
 0001:000490e2       _exit                      0044a0e2 f   ucrt:api-ms-win-crt-runtime-l1-1-0.dll
 0001:000490e8       __seh_filter_exe           0044a0e8 f   ucrt:api-ms-win-crt-runtime-l1-1-0.dll
 0001:000490ee       __set_app_type             0044a0ee f   ucrt:api-ms-win-crt-runtime-l1-1-0.dll
 0001:000490f4       ___setusermatherr          0044a0f4 f   ucrt:api-ms-win-crt-math-l1-1-0.dll
 0001:000490fa       __configure_narrow_argv    0044a0fa f   ucrt:api-ms-win-crt-runtime-l1-1-0.dll
 0001:00049100       __initialize_narrow_environment 0044a100 f   ucrt:api-ms-win-crt-runtime-l1-1-0.dll
 0001:00049106       __get_initial_narrow_environment 0044a106 f   ucrt:api-ms-win-crt-runtime-l1-1-0.dll
 0001:0004910c       __initterm                 0044a10c f   ucrt:api-ms-win-crt-runtime-l1-1-0.dll
 0001:00049112       __initterm_e               0044a112 f   ucrt:api-ms-win-crt-runtime-l1-1-0.dll
 0001:00049118       __exit                     0044a118 f   ucrt:api-ms-win-crt-runtime-l1-1-0.dll
 0001:0004911e       __set_fmode                0044a11e f   ucrt:api-ms-win-crt-stdio-l1-1-0.dll
 0001:00049124       ___p___argc                0044a124 f   ucrt:api-ms-win-crt-runtime-l1-1-0.dll
 0001:0004912a       ___p___argv                0044a12a f   ucrt:api-ms-win-crt-runtime-l1-1-0.dll
 0001:00049130       __cexit                    0044a130 f   ucrt:api-ms-win-crt-runtime-l1-1-0.dll
 0001:00049136       __c_exit                   0044a136 f   ucrt:api-ms-win-crt-runtime-l1-1-0.dll
 0001:0004913c       __register_thread_local_exe_atexit_callback 0044a13c f   ucrt:api-ms-win-crt-runtime-l1-1-0.dll
 0001:00049142       __configthreadlocale       0044a142 f   ucrt:api-ms-win-crt-locale-l1-1-0.dll
 0001:00049148       __set_new_mode             0044a148 f   ucrt:api-ms-win-crt-heap-l1-1-0.dll
 0001:0004914e       ___p__commode              0044a14e f   ucrt:api-ms-win-crt-stdio-l1-1-0.dll
 0001:00049154       __except1                  0044a154 f   ucrt:api-ms-win-crt-math-l1-1-0.dll
 0001:0004915a       __initialize_onexit_table  0044a15a f   ucrt:api-ms-win-crt-runtime-l1-1-0.dll
 0001:00049160       __register_onexit_function 0044a160 f   ucrt:api-ms-win-crt-runtime-l1-1-0.dll
 0001:00049166       __crt_atexit               0044a166 f   ucrt:api-ms-win-crt-runtime-l1-1-0.dll
 0001:0004916c       __controlfp_s              0044a16c f   ucrt:api-ms-win-crt-runtime-l1-1-0.dll
 0001:00049172       _terminate                 0044a172 f   ucrt:api-ms-win-crt-runtime-l1-1-0.dll
 0002:00000000       __imp__GetLocalTime@4      0044b000     kernel32:KERNEL32.dll
 0002:00000004       __imp__GetModuleHandleW@4  0044b004     kernel32:KERNEL32.dll
 0002:00000008       __imp__IsDebuggerPresent@0 0044b008     kernel32:KERNEL32.dll
 0002:0000000c       __imp__InitializeSListHead@4 0044b00c     kernel32:KERNEL32.dll
 0002:00000010       __imp__GetSystemTimeAsFileTime@4 0044b010     kernel32:KERNEL32.dll
 0002:00000014       __imp__IsProcessorFeaturePresent@4 0044b014     kernel32:KERNEL32.dll
 0002:00000018       __imp__TerminateProcess@8  0044b018     kernel32:KERNEL32.dll
 0002:0000001c       __imp__SetUnhandledExceptionFilter@4 0044b01c     kernel32:KERNEL32.dll
 0002:00000020       __imp__UnhandledExceptionFilter@4 0044b020     kernel32:KERNEL32.dll
 0002:00000024       __imp__LoadLibraryA@4      0044b024     kernel32:KERNEL32.dll
 0002:00000028       __imp__GetProcAddress@8    0044b028     kernel32:KERNEL32.dll
 0002:0000002c       __imp__FreeLibrary@4       0044b02c     kernel32:KERNEL32.dll
 0002:00000030       __imp__FormatMessageA@28   0044b030     kernel32:KERNEL32.dll
 0002:00000034       __imp__QueryPerformanceFrequency@4 0044b034     kernel32:KERNEL32.dll
 0002:00000038       __imp__QueryPerformanceCounter@4 0044b038     kernel32:KERNEL32.dll
 0002:0000003c       __imp__SystemTimeToFileTime@8 0044b03c     kernel32:KERNEL32.dll
 0002:00000040       __imp__FileTimeToSystemTime@8 0044b040     kernel32:KERNEL32.dll
 0002:00000044       __imp__SetConsoleTextAttribute@8 0044b044     kernel32:KERNEL32.dll
 0002:00000048       __imp__CreateSemaphoreA@16 0044b048     kernel32:KERNEL32.dll
 0002:0000004c       __imp__TlsFree@4           0044b04c     kernel32:KERNEL32.dll
 0002:00000050       __imp__TlsSetValue@8       0044b050     kernel32:KERNEL32.dll
 0002:00000054       __imp__TlsGetValue@4       0044b054     kernel32:KERNEL32.dll
 0002:00000058       __imp__TlsAlloc@0          0044b058     kernel32:KERNEL32.dll
 0002:0000005c       __imp__GetCurrentThreadId@0 0044b05c     kernel32:KERNEL32.dll
 0002:00000060       __imp__CreateThread@24     0044b060     kernel32:KERNEL32.dll
 0002:00000064       __imp__GetCurrentProcessId@0 0044b064     kernel32:KERNEL32.dll
 0002:00000068       __imp__Sleep@4             0044b068     kernel32:KERNEL32.dll
 0002:0000006c       __imp__WaitForSingleObject@8 0044b06c     kernel32:KERNEL32.dll
 0002:00000070       __imp__ReleaseSemaphore@12 0044b070     kernel32:KERNEL32.dll
 0002:00000074       __imp__DeleteCriticalSection@4 0044b074     kernel32:KERNEL32.dll
 0002:00000078       __imp__TryEnterCriticalSection@4 0044b078     kernel32:KERNEL32.dll
 0002:0000007c       __imp__LeaveCriticalSection@4 0044b07c     kernel32:KERNEL32.dll
 0002:00000080       __imp__EnterCriticalSection@4 0044b080     kernel32:KERNEL32.dll
 0002:00000084       __imp__InitializeCriticalSection@4 0044b084     kernel32:KERNEL32.dll
 0002:00000088       __imp__GetLastError@0      0044b088     kernel32:KERNEL32.dll
 0002:0000008c       __imp__GetStdHandle@4      0044b08c     kernel32:KERNEL32.dll
 0002:00000090       __imp__WaitForMultipleObjects@16 0044b090     kernel32:KERNEL32.dll
 0002:00000094       __imp__CreateEventA@16     0044b094     kernel32:KERNEL32.dll
 0002:00000098       __imp__SetEvent@4          0044b098     kernel32:KERNEL32.dll
 0002:0000009c       __imp__CloseHandle@4       0044b09c     kernel32:KERNEL32.dll
 0002:000000a0       __imp__SetPriorityClass@8  0044b0a0     kernel32:KERNEL32.dll
 0002:000000a4       __imp__SetThreadPriority@8 0044b0a4     kernel32:KERNEL32.dll
 0002:000000a8       __imp__GetCurrentThread@0  0044b0a8     kernel32:KERNEL32.dll
 0002:000000ac       __imp__GetCurrentProcess@0 0044b0ac     kernel32:KERNEL32.dll
 0002:000000b0       \177KERNEL32_NULL_THUNK_DATA 0044b0b0     kernel32:KERNEL32.dll
 0002:000000b4       __imp__longjmp             0044b0b4     vcruntime:VCRUNTIME140.dll
 0002:000000b8       __imp__memcpy              0044b0b8     vcruntime:VCRUNTIME140.dll
 0002:000000bc       __imp__memset              0044b0bc     vcruntime:VCRUNTIME140.dll
 0002:000000c0       __imp__memchr              0044b0c0     vcruntime:VCRUNTIME140.dll
 0002:000000c4       __imp___setjmp3            0044b0c4     vcruntime:VCRUNTIME140.dll
 0002:000000c8       __imp__memmove             0044b0c8     vcruntime:VCRUNTIME140.dll
 0002:000000cc       __imp___except_handler4_common 0044b0cc     vcruntime:VCRUNTIME140.dll
 0002:000000d0       __imp__strchr              0044b0d0     vcruntime:VCRUNTIME140.dll
 0002:000000d4       \177VCRUNTIME140_NULL_THUNK_DATA 0044b0d4     vcruntime:VCRUNTIME140.dll
 0002:000000d8       __imp__waveOutReset@4      0044b0d8     winmm:WINMM.dll
 0002:000000dc       __imp__waveOutRestart@4    0044b0dc     winmm:WINMM.dll
 0002:000000e0       __imp__waveOutPause@4      0044b0e0     winmm:WINMM.dll
 0002:000000e4       __imp__waveOutWrite@12     0044b0e4     winmm:WINMM.dll
 0002:000000e8       __imp__waveOutUnprepareHeader@12 0044b0e8     winmm:WINMM.dll
 0002:000000ec       __imp__waveOutPrepareHeader@12 0044b0ec     winmm:WINMM.dll
 0002:000000f0       __imp__waveInReset@4       0044b0f0     winmm:WINMM.dll
 0002:000000f4       __imp__waveOutOpen@24      0044b0f4     winmm:WINMM.dll
 0002:000000f8       __imp__waveOutSetVolume@8  0044b0f8     winmm:WINMM.dll
 0002:000000fc       __imp__waveOutGetVolume@8  0044b0fc     winmm:WINMM.dll
 0002:00000100       __imp__waveOutGetDevCapsA@12 0044b100     winmm:WINMM.dll
 0002:00000104       __imp__waveOutGetNumDevs@0 0044b104     winmm:WINMM.dll
 0002:00000108       __imp__waveInGetErrorTextA@12 0044b108     winmm:WINMM.dll
 0002:0000010c       __imp__waveOutGetErrorTextA@12 0044b10c     winmm:WINMM.dll
 0002:00000110       __imp__waveInGetNumDevs@0  0044b110     winmm:WINMM.dll
 0002:00000114       __imp__waveInStop@4        0044b114     winmm:WINMM.dll
 0002:00000118       __imp__waveInStart@4       0044b118     winmm:WINMM.dll
 0002:0000011c       __imp__waveInAddBuffer@12  0044b11c     winmm:WINMM.dll
 0002:00000120       __imp__waveInUnprepareHeader@12 0044b120     winmm:WINMM.dll
 0002:00000124       __imp__waveInPrepareHeader@12 0044b124     winmm:WINMM.dll
 0002:00000128       __imp__waveInClose@4       0044b128     winmm:WINMM.dll
 0002:0000012c       __imp__waveInOpen@24       0044b12c     winmm:WINMM.dll
 0002:00000130       __imp__waveOutClose@4      0044b130     winmm:WINMM.dll
 0002:00000134       __imp__waveInGetDevCapsA@12 0044b134     winmm:WINMM.dll
 0002:00000138       \177WINMM_NULL_THUNK_DATA  0044b138     winmm:WINMM.dll
 0002:0000013c       __imp__setsockopt@20       0044b13c     ws2_32:WS2_32.dll
 0002:00000140       __imp__sendto@24           0044b140     ws2_32:WS2_32.dll
 0002:00000144       __imp__send@16             0044b144     ws2_32:WS2_32.dll
 0002:00000148       __imp__recvfrom@24         0044b148     ws2_32:WS2_32.dll
 0002:0000014c       __imp__recv@16             0044b14c     ws2_32:WS2_32.dll
 0002:00000150       __imp__WSASocketA@24       0044b150     ws2_32:WS2_32.dll
 0002:00000154       __imp__ntohs@4             0044b154     ws2_32:WS2_32.dll
 0002:00000158       __imp__ntohl@4             0044b158     ws2_32:WS2_32.dll
 0002:0000015c       __imp__inet_addr@4         0044b15c     ws2_32:WS2_32.dll
 0002:00000160       __imp__htons@4             0044b160     ws2_32:WS2_32.dll
 0002:00000164       __imp__htonl@4             0044b164     ws2_32:WS2_32.dll
 0002:00000168       __imp__getsockopt@20       0044b168     ws2_32:WS2_32.dll
 0002:0000016c       __imp__getsockname@12      0044b16c     ws2_32:WS2_32.dll
 0002:00000170       __imp__connect@12          0044b170     ws2_32:WS2_32.dll
 0002:00000174       __imp__closesocket@4       0044b174     ws2_32:WS2_32.dll
 0002:00000178       __imp__bind@12             0044b178     ws2_32:WS2_32.dll
 0002:0000017c       __imp__accept@12           0044b17c     ws2_32:WS2_32.dll
 0002:00000180       __imp__WSAGetLastError@0   0044b180     ws2_32:WS2_32.dll
 0002:00000184       __imp__WSACleanup@0        0044b184     ws2_32:WS2_32.dll
 0002:00000188       __imp__WSAStartup@8        0044b188     ws2_32:WS2_32.dll
 0002:0000018c       __imp__WSAAddressToStringA@20 0044b18c     ws2_32:WS2_32.dll
 0002:00000190       __imp__WSAStringToAddressA@20 0044b190     ws2_32:WS2_32.dll
 0002:00000194       __imp__ioctlsocket@12      0044b194     ws2_32:WS2_32.dll
 0002:00000198       __imp__gethostbyname@4     0044b198     ws2_32:WS2_32.dll
 0002:0000019c       __imp____WSAFDIsSet@8      0044b19c     ws2_32:WS2_32.dll
 0002:000001a0       __imp__select@20           0044b1a0     ws2_32:WS2_32.dll
 0002:000001a4       __imp__gethostname@8       0044b1a4     ws2_32:WS2_32.dll
 0002:000001a8       __imp__WSAIoctl@36         0044b1a8     ws2_32:WS2_32.dll
 0002:000001ac       \177WS2_32_NULL_THUNK_DATA 0044b1ac     ws2_32:WS2_32.dll
 0002:000001b0       __imp__atoi                0044b1b0     ucrt:api-ms-win-crt-convert-l1-1-0.dll
 0002:000001b4       \177api-ms-win-crt-convert-l1-1-0_NULL_THUNK_DATA 0044b1b4     ucrt:api-ms-win-crt-convert-l1-1-0.dll
 0002:000001b8       __imp__free                0044b1b8     ucrt:api-ms-win-crt-heap-l1-1-0.dll
 0002:000001bc       __imp___set_new_mode       0044b1bc     ucrt:api-ms-win-crt-heap-l1-1-0.dll
 0002:000001c0       __imp__malloc              0044b1c0     ucrt:api-ms-win-crt-heap-l1-1-0.dll
 0002:000001c4       \177api-ms-win-crt-heap-l1-1-0_NULL_THUNK_DATA 0044b1c4     ucrt:api-ms-win-crt-heap-l1-1-0.dll
 0002:000001c8       __imp___configthreadlocale 0044b1c8     ucrt:api-ms-win-crt-locale-l1-1-0.dll
 0002:000001cc       \177api-ms-win-crt-locale-l1-1-0_NULL_THUNK_DATA 0044b1cc     ucrt:api-ms-win-crt-locale-l1-1-0.dll
 0002:000001d0       __imp___CIfmod             0044b1d0     ucrt:api-ms-win-crt-math-l1-1-0.dll
 0002:000001d4       __imp___except1            0044b1d4     ucrt:api-ms-win-crt-math-l1-1-0.dll
 0002:000001d8       __imp____setusermatherr    0044b1d8     ucrt:api-ms-win-crt-math-l1-1-0.dll
 0002:000001dc       __imp___libm_sse2_cos_precise 0044b1dc     ucrt:api-ms-win-crt-math-l1-1-0.dll
 0002:000001e0       \177api-ms-win-crt-math-l1-1-0_NULL_THUNK_DATA 0044b1e0     ucrt:api-ms-win-crt-math-l1-1-0.dll
 0002:000001e4       __imp____p___argc          0044b1e4     ucrt:api-ms-win-crt-runtime-l1-1-0.dll
 0002:000001e8       __imp___exit               0044b1e8     ucrt:api-ms-win-crt-runtime-l1-1-0.dll
 0002:000001ec       __imp__terminate           0044b1ec     ucrt:api-ms-win-crt-runtime-l1-1-0.dll
 0002:000001f0       __imp___controlfp_s        0044b1f0     ucrt:api-ms-win-crt-runtime-l1-1-0.dll
 0002:000001f4       __imp___crt_atexit         0044b1f4     ucrt:api-ms-win-crt-runtime-l1-1-0.dll
 0002:000001f8       __imp____p___argv          0044b1f8     ucrt:api-ms-win-crt-runtime-l1-1-0.dll
 0002:000001fc       __imp___cexit              0044b1fc     ucrt:api-ms-win-crt-runtime-l1-1-0.dll
 0002:00000200       __imp___register_onexit_function 0044b200     ucrt:api-ms-win-crt-runtime-l1-1-0.dll
 0002:00000204       __imp___initialize_onexit_table 0044b204     ucrt:api-ms-win-crt-runtime-l1-1-0.dll
 0002:00000208       __imp___initterm           0044b208     ucrt:api-ms-win-crt-runtime-l1-1-0.dll
 0002:0000020c       __imp___get_initial_narrow_environment 0044b20c     ucrt:api-ms-win-crt-runtime-l1-1-0.dll
 0002:00000210       __imp___initterm_e         0044b210     ucrt:api-ms-win-crt-runtime-l1-1-0.dll
 0002:00000214       __imp___initialize_narrow_environment 0044b214     ucrt:api-ms-win-crt-runtime-l1-1-0.dll
 0002:00000218       __imp___c_exit             0044b218     ucrt:api-ms-win-crt-runtime-l1-1-0.dll
 0002:0000021c       __imp__exit                0044b21c     ucrt:api-ms-win-crt-runtime-l1-1-0.dll
 0002:00000220       __imp___seh_filter_exe     0044b220     ucrt:api-ms-win-crt-runtime-l1-1-0.dll
 0002:00000224       __imp___set_app_type       0044b224     ucrt:api-ms-win-crt-runtime-l1-1-0.dll
 0002:00000228       __imp___configure_narrow_argv 0044b228     ucrt:api-ms-win-crt-runtime-l1-1-0.dll
 0002:0000022c       __imp___register_thread_local_exe_atexit_callback 0044b22c     ucrt:api-ms-win-crt-runtime-l1-1-0.dll
 0002:00000230       \177api-ms-win-crt-runtime-l1-1-0_NULL_THUNK_DATA 0044b230     ucrt:api-ms-win-crt-runtime-l1-1-0.dll
 0002:00000234       __imp__puts                0044b234     ucrt:api-ms-win-crt-stdio-l1-1-0.dll
 0002:00000238       __imp____acrt_iob_func     0044b238     ucrt:api-ms-win-crt-stdio-l1-1-0.dll
 0002:0000023c       __imp___set_fmode          0044b23c     ucrt:api-ms-win-crt-stdio-l1-1-0.dll
 0002:00000240       __imp__fopen               0044b240     ucrt:api-ms-win-crt-stdio-l1-1-0.dll
 0002:00000244       __imp__fgets               0044b244     ucrt:api-ms-win-crt-stdio-l1-1-0.dll
 0002:00000248       __imp__fwrite              0044b248     ucrt:api-ms-win-crt-stdio-l1-1-0.dll
 0002:0000024c       __imp____stdio_common_vsprintf 0044b24c     ucrt:api-ms-win-crt-stdio-l1-1-0.dll
 0002:00000250       __imp____stdio_common_vfprintf 0044b250     ucrt:api-ms-win-crt-stdio-l1-1-0.dll
 0002:00000254       __imp__fflush              0044b254     ucrt:api-ms-win-crt-stdio-l1-1-0.dll
 0002:00000258       __imp__fclose              0044b258     ucrt:api-ms-win-crt-stdio-l1-1-0.dll
 0002:0000025c       __imp____p__commode        0044b25c     ucrt:api-ms-win-crt-stdio-l1-1-0.dll
 0002:00000260       \177api-ms-win-crt-stdio-l1-1-0_NULL_THUNK_DATA 0044b260     ucrt:api-ms-win-crt-stdio-l1-1-0.dll
 0002:00000264       __imp__isdigit             0044b264     ucrt:api-ms-win-crt-string-l1-1-0.dll
 0002:00000268       __imp__strncpy             0044b268     ucrt:api-ms-win-crt-string-l1-1-0.dll
 0002:0000026c       __imp__isxdigit            0044b26c     ucrt:api-ms-win-crt-string-l1-1-0.dll
 0002:00000270       __imp__strncmp             0044b270     ucrt:api-ms-win-crt-string-l1-1-0.dll
 0002:00000274       __imp___stricmp            0044b274     ucrt:api-ms-win-crt-string-l1-1-0.dll
 0002:00000278       __imp__isspace             0044b278     ucrt:api-ms-win-crt-string-l1-1-0.dll
 0002:0000027c       __imp___strnicmp           0044b27c     ucrt:api-ms-win-crt-string-l1-1-0.dll
 0002:00000280       __imp__tolower             0044b280     ucrt:api-ms-win-crt-string-l1-1-0.dll
 0002:00000284       __imp__toupper             0044b284     ucrt:api-ms-win-crt-string-l1-1-0.dll
 0002:00000288       \177api-ms-win-crt-string-l1-1-0_NULL_THUNK_DATA 0044b288     ucrt:api-ms-win-crt-string-l1-1-0.dll
 0002:0000028c       __imp__rand                0044b28c     ucrt:api-ms-win-crt-utility-l1-1-0.dll
 0002:00000290       \177api-ms-win-crt-utility-l1-1-0_NULL_THUNK_DATA 0044b290     ucrt:api-ms-win-crt-utility-l1-1-0.dll
 0002:00000294       __imp__CoCreateGuid@4      0044b294     ole32:ole32.dll
 0002:00000298       \177ole32_NULL_THUNK_DATA  0044b298     ole32:ole32.dll
 0002:0000029c       ___guard_check_icall_fptr  0044b29c     MSVCRT:guard_support.obj
 0002:000002a0       ___xc_a                    0044b2a0     MSVCRT:initializers.obj
 0002:000002a8       ___xc_z                    0044b2a8     MSVCRT:initializers.obj
 0002:000002ac       ___xi_a                    0044b2ac     MSVCRT:initializers.obj
 0002:000002b8       ___xi_z                    0044b2b8     MSVCRT:initializers.obj
 0002:000002bc       ___xp_a                    0044b2bc     MSVCRT:initializers.obj
 0002:000002c0       ___xp_z                    0044b2c0     MSVCRT:initializers.obj
 0002:000002c4       ___xt_a                    0044b2c4     MSVCRT:initializers.obj
 0002:000002c8       ___xt_z                    0044b2c8     MSVCRT:initializers.obj
 0002:000002d0       __real@4059000000000000    0044b2d0     siprtp.obj
 0002:000002d8       __real@408f400000000000    0044b2d8     siprtp.obj
 0002:000002e0       __xmm@00000000000000080000000000000001 0044b2e0     siprtp.obj
 0002:000002f0       __xmm@41f00000000000000000000000000000 0044b2f0     siprtp.obj
 0002:00000300       ??_C@_04HIBGFPH@NULL@      0044b300     pjsip-ua-i386-win32-vc14-release:sip_inv.obj
 0002:00000308       ??_C@_07BJAKIKLF@CALLING@  0044b308     pjsip-ua-i386-win32-vc14-release:sip_inv.obj
 0002:00000310       ??_C@_08FPHOKLMI@INCOMING@ 0044b310     pjsip-ua-i386-win32-vc14-release:sip_inv.obj
 0002:0000031c       ??_C@_05HMGOBOK@EARLY@     0044b31c     pjsip-ua-i386-win32-vc14-release:sip_inv.obj
 0002:00000324       ??_C@_0L@OPGIEADC@CONNECTING@ 0044b324     pjsip-ua-i386-win32-vc14-release:sip_inv.obj
 0002:00000330       ??_C@_09JCKBPFKF@CONFIRMED@ 0044b330     pjsip-ua-i386-win32-vc14-release:sip_inv.obj
 0002:0000033c       ??_C@_0L@GKFIMDLD@DISCONNCTD@ 0044b33c     pjsip-ua-i386-win32-vc14-release:sip_inv.obj
 0002:00000348       ??_C@_0L@ONMJOFAN@TERMINATED@ 0044b348     pjsip-ua-i386-win32-vc14-release:sip_inv.obj
 0002:00000360       ??_C@_06HHJABCJL@UPDATE@   0044b360     pjsip-ua-i386-win32-vc14-release:sip_inv.obj
 0002:00000368       ??_C@_0L@BLDGPIGK@mod?9invite@ 0044b368     pjsip-ua-i386-win32-vc14-release:sip_inv.obj
 0002:00000374       ??_C@_06DBKGGLMH@INVITE@   0044b374     pjsip-ua-i386-win32-vc14-release:sip_inv.obj
 0002:0000037c       ??_C@_03JMECLKOM@ACK@      0044b37c     pjsip-ua-i386-win32-vc14-release:sip_inv.obj
 0002:00000380       ??_C@_03BMFBOCK@BYE@       0044b380     pjsip-ua-i386-win32-vc14-release:sip_inv.obj
 0002:00000384       ??_C@_06JHILMIHF@CANCEL@   0044b384     pjsip-ua-i386-win32-vc14-release:sip_inv.obj
 0002:0000038c       ??_C@_0BA@MJOOLNNM@application?1sdp@ 0044b38c     pjsip-ua-i386-win32-vc14-release:sip_inv.obj
 0002:0000039c       ??_C@_0BE@OEKCNCCE@Sending?5pending?5BYE@ 0044b39c     pjsip-ua-i386-win32-vc14-release:sip_inv.obj
 0002:000003b0       ??_C@_0BL@KNCDOFEH@Failed?5sending?5pending?5BYE@ 0044b3b0     pjsip-ua-i386-win32-vc14-release:sip_inv.obj
 0002:000003cc       ??_C@_0BJ@DIELNPDA@Received?5?$CFs?0?5sending?5ACK@ 0044b3cc     pjsip-ua-i386-win32-vc14-release:sip_inv.obj
 0002:000003e8       ??_C@_0CM@GCDEGPO@Received?5?$CFs?0?5notifying?5applicat@ 0044b3e8     pjsip-ua-i386-win32-vc14-release:sip_inv.obj
 0002:00000414       ??_C@_09LDKIKNFD@sip_inv?4c@ 0044b414     pjsip-ua-i386-win32-vc14-release:sip_inv.obj
 0002:00000420       ??_C@_04JBGCGIBB@sips@     0044b420     pjsip-ua-i386-win32-vc14-release:sip_inv.obj
 0002:00000428       ??_C@_03MPAIKGMI@sip@      0044b428     pjsip-ua-i386-win32-vc14-release:sip_inv.obj
 0002:0000042c       ??_C@_03HPDJAPFJ@tls@      0044b42c     pjsip-ua-i386-win32-vc14-release:sip_inv.obj
 0002:00000430       ??_C@_0O@BCIKELEF@SIPS?5Required@ 0044b430     pjsip-ua-i386-win32-vc14-release:sip_inv.obj
 0002:00000440       ??_C@_05MMFAAGKE@early@    0044b440     pjsip-ua-i386-win32-vc14-release:sip_inv.obj
 0002:00000448       ??_C@_05FPBGKCKL@final@    0044b448     pjsip-ua-i386-win32-vc14-release:sip_inv.obj
 0002:00000450       ??_C@_0FN@JNKNAMO@Received?5?$CFs?5response?5after?5SDP?5@ 0044b450     pjsip-ua-i386-win32-vc14-release:sip_inv.obj
 0002:000004b0       ??_C@_0EA@DMMNFDGN@Error?5updating?5local?5offer?5for?5@ 0044b4b0     pjsip-ua-i386-win32-vc14-release:sip_inv.obj
 0002:000004f0       ??_C@_0CO@JFCENHLK@SDP?5negotiation?5done?0?5message?5b@ 0044b4f0     pjsip-ua-i386-win32-vc14-release:sip_inv.obj
 0002:00000520       ??_C@_0BI@BGFFELKE@Error?5parsing?5SDP?5in?5?$CFs@ 0044b520     pjsip-ua-i386-win32-vc14-release:sip_inv.obj
 0002:00000538       ??_C@_0BE@EPLINLEA@Got?5SDP?5offer?5in?5?$CFs@ 0044b538     pjsip-ua-i386-win32-vc14-release:sip_inv.obj
 0002:0000054c       ??_C@_0CA@NKIPLGEL@Error?5processing?5SDP?5offer?5in?5?$CF@ 0044b54c     pjsip-ua-i386-win32-vc14-release:sip_inv.obj
 0002:00000570       ??_C@_0EG@MIAPKNNJ@Ignoring?5on_rx_offer?$CI?$CJ?5status?5b@ 0044b570     pjsip-ua-i386-win32-vc14-release:sip_inv.obj
 0002:000005b8       ??_C@_0BF@NJIJAPGF@Got?5SDP?5answer?5in?5?$CFs@ 0044b5b8     pjsip-ua-i386-win32-vc14-release:sip_inv.obj
 0002:000005d0       ??_C@_0CC@MICCHKNP@Error?5processing?5SDP?5answer?5in?5@ 0044b5d0     pjsip-ua-i386-win32-vc14-release:sip_inv.obj
 0002:000005f4       ??_C@_0CK@CNMHAOHC@Ignored?5SDP?5in?5?$CFs?3?5negotiator?5s@ 0044b5f4     pjsip-ua-i386-win32-vc14-release:sip_inv.obj
 0002:00000620       ??_C@_0DG@BKONCIHK@Ignored?5message?5body?5in?5?$CFs?5as?5n@ 0044b620     pjsip-ua-i386-win32-vc14-release:sip_inv.obj
 0002:00000658       ??_C@_0FL@EKGBDOF@Secure?5dialog?5requires?5SIPS?5sch@ 0044b658     pjsip-ua-i386-win32-vc14-release:sip_inv.obj
 0002:000006b8       ??_C@_0FH@KHNGIOMA@Secure?5dialog?5requires?5SIPS?5sch@ 0044b6b8     pjsip-ua-i386-win32-vc14-release:sip_inv.obj
 0002:00000710       ??_C@_0CH@BBKLGGDE@Another?5INVITE?5transaction?5in?5p@ 0044b710     pjsip-ua-i386-win32-vc14-release:sip_inv.obj
 0002:00000738       ??_C@_0BM@KEOGGKDD@on_rx_reinvite?$CI?$CJ?5returns?5?$CFd@ 0044b738     pjsip-ua-i386-win32-vc14-release:sip_inv.obj
 0002:00000754       ??_C@_0BH@GJLJMANH@SDP?5negotiation?5failed@ 0044b754     pjsip-ua-i386-win32-vc14-release:sip_inv.obj
 0002:0000076c       ??_C@_0DA@CNKPLCJK@SDP?5offer?1answer?5incomplete?0?5en@ 0044b76c     pjsip-ua-i386-win32-vc14-release:sip_inv.obj
 0002:0000079c       ??_C@_0BF@HOOGIPCC@Normal?5call?5clearing@ 0044b79c     pjsip-ua-i386-win32-vc14-release:sip_inv.obj
 0002:000007b4       ??_C@_03MHNADFJL@sdp@      0044b7b4     pjsip-ua-i386-win32-vc14-release:sip_inv.obj
 0002:000007b8       ??_C@_0M@MBDKLJIJ@application@ 0044b7b8     pjsip-ua-i386-win32-vc14-release:sip_inv.obj
 0002:000007c4       ??_C@_09FEKOPBOI@multipart@ 0044b7c4     pjsip-ua-i386-win32-vc14-release:sip_inv.obj
 0002:000007d0       ??_C@_05IPHDHIPP@mixed@    0044b7d0     pjsip-ua-i386-win32-vc14-release:sip_inv.obj
 0002:000007d8       ??_C@_0M@HAJLPECN@alternative@ 0044b7d8     pjsip-ua-i386-win32-vc14-release:sip_inv.obj
 0002:000007e4       ??_C@_02HHFHKOHM@?$DP?$DP@ 0044b7e4     pjsip-ua-i386-win32-vc14-release:sip_inv.obj
 0002:000007e8       ??_C@_05BICJMLFP@inv?$CFp@ 0044b7e8     pjsip-ua-i386-win32-vc14-release:sip_inv.obj
 0002:000007f0       ??_C@_0CJ@HLKGBANI@UAC?5invite?5session?5created?5for?5@ 0044b7f0     pjsip-ua-i386-win32-vc14-release:sip_inv.obj
 0002:0000081c       ??_C@_0CC@MAIPFFMN@Error?5parsing?1validating?5SDP?5bo@ 0044b81c     pjsip-ua-i386-win32-vc14-release:sip_inv.obj
 0002:00000840       ??_C@_0BL@BJMNFGKN@Bad?1missing?5Contact?5header@ 0044b840     pjsip-ua-i386-win32-vc14-release:sip_inv.obj
 0002:0000085c       ??_C@_06IPLOHEDL@100rel@   0044b85c     pjsip-ua-i386-win32-vc14-release:sip_inv.obj
 0002:00000864       ??_C@_05NAPFDJNG@timer@    0044b864     pjsip-ua-i386-win32-vc14-release:sip_inv.obj
 0002:0000086c       ??_C@_03MKIOHCPB@ice@      0044b86c     pjsip-ua-i386-win32-vc14-release:sip_inv.obj
 0002:00000870       ??_C@_08LDJJEDJ@replaces@  0044b870     pjsip-ua-i386-win32-vc14-release:sip_inv.obj
 0002:0000087c       ??_C@_0CJ@EIBALPMO@UAS?5invite?5session?5created?5for?5@ 0044b87c     pjsip-ua-i386-win32-vc14-release:sip_inv.obj
 0002:000008a8       ??_C@_05ECJJFAAP@PRACK@    0044b8a8     pjsip-ua-i386-win32-vc14-release:sip_inv.obj
 0002:000008b0       ??_C@_0BF@KBACJJBP@SDP?5negotiation?5done@ 0044b8b0     pjsip-ua-i386-win32-vc14-release:sip_inv.obj
 0002:000008c8       ??_C@_0BC@DKICHHDF@Initial?5answer?5?$CFs@ 0044b8c8     pjsip-ua-i386-win32-vc14-release:sip_inv.obj
 0002:000008dc       ??_C@_0DO@HEALFLEC@Delaying?5CANCEL?5since?5no?5provis@ 0044b8dc     pjsip-ua-i386-win32-vc14-release:sip_inv.obj
 0002:0000091c       ??_C@_0BI@DIMJOHLK@?$DM?9error?3?5uri?5too?5long?9?$DO@ 0044b91c     pjsip-ua-i386-win32-vc14-release:sip_inv.obj
 0002:00000934       ??_C@_07PMMFKIFM@Contact@  0044b934     pjsip-ua-i386-win32-vc14-release:sip_inv.obj
 0002:0000093c       ??_C@_0CK@INPGLEAA@Invalid?5SDP?5offer?1answer?5state?5@ 0044b93c     pjsip-ua-i386-win32-vc14-release:sip_inv.obj
 0002:00000968       ??_C@_0L@BPIOADDE@Sending?5?$CFs@ 0044b968     pjsip-ua-i386-win32-vc14-release:sip_inv.obj
 0002:00000974       ??_C@_0CL@IIMHLPDD@Delaying?5BYE?5request?5until?5ACK?5@ 0044b974     pjsip-ua-i386-win32-vc14-release:sip_inv.obj
 0002:000009a0       __xmm@00000000000000000000000000000006 0044b9a0     pjsip-ua-i386-win32-vc14-release:sip_inv.obj
 0002:000009c8       _pjsip_prack_method        0044b9c8     pjsip-ua-i386-win32-vc14-release:sip_100rel.obj
 0002:000009d4       ??_C@_04NKIOHFHJ@RSeq@     0044b9d4     pjsip-ua-i386-win32-vc14-release:sip_100rel.obj
 0002:000009dc       ??_C@_04JEDOGMAE@RAck@     0044b9dc     pjsip-ua-i386-win32-vc14-release:sip_100rel.obj
 0002:000009e4       ??_C@_0L@KBAFDJEE@mod?9100rel@ 0044b9e4     pjsip-ua-i386-win32-vc14-release:sip_100rel.obj
 0002:000009f0       ??_C@_0BH@ONPFCEOK@100rel?5module?5attached@ 0044b9f0     pjsip-ua-i386-win32-vc14-release:sip_100rel.obj
 0002:00000a08       ??_C@_0CN@FOEJAHIE@Ignoring?5100rel?5response?5with?5n@ 0044ba08     pjsip-ua-i386-win32-vc14-release:sip_100rel.obj
 0002:00000a38       ??_C@_0EC@BLMHGGJH@Ignoring?5100rel?5response?5becaus@ 0044ba38     pjsip-ua-i386-win32-vc14-release:sip_100rel.obj
 0002:00000a7c       ??_C@_0DL@FCLLNCLO@Ignoring?5100rel?5response?5with?5n@ 0044ba7c     pjsip-ua-i386-win32-vc14-release:sip_100rel.obj
 0002:00000ab8       ??_C@_0L@IBEMKGAL@?$CFu?5?$CFu?5?$CF?4?$CKs@ 0044bab8     pjsip-ua-i386-win32-vc14-release:sip_100rel.obj
 0002:00000ac4       ??_C@_0BB@IEDINMFC@Unexpected?5PRACK@ 0044bac4     pjsip-ua-i386-win32-vc14-release:sip_100rel.obj
 0002:00000ad8       ??_C@_0CE@PLNFEICH@PRACK?5ignored?5?9?5no?5pending?5resp@ 0044bad8     pjsip-ua-i386-win32-vc14-release:sip_100rel.obj
 0002:00000afc       ??_C@_0P@BPOGJPKH@No?5RAck?5header@ 0044bafc     pjsip-ua-i386-win32-vc14-release:sip_100rel.obj
 0002:00000b0c       ??_C@_0CM@DOMMHELC@Rx?5PRACK?5with?5no?5matching?5relia@ 0044bb0c     pjsip-ua-i386-win32-vc14-release:sip_100rel.obj
 0002:00000b38       ??_C@_0BM@HPALGIGM@Reliable?5response?5timed?5out@ 0044bb38     pjsip-ua-i386-win32-vc14-release:sip_100rel.obj
 0002:00000b54       ??_C@_0CG@JIMKEDOL@2xx?5response?5will?5be?5sent?5after@ 0044bb54     pjsip-ua-i386-win32-vc14-release:sip_100rel.obj
 0002:00000b7c       ??_C@_0CE@BEBCMEH@No?5SDP?5sent?5so?5far?0?5sending?52xx@ 0044bb7c     pjsip-ua-i386-win32-vc14-release:sip_100rel.obj
 0002:00000ba0       ??_C@_02GMHACPFF@?$CFu@    0044bba0     pjsip-ua-i386-win32-vc14-release:sip_100rel.obj
 0002:00000ba4       ??_C@_0CL@JLPOAJFO@Reliable?5?$CFd?5response?5enqueued?5?$CI@ 0044bba4     pjsip-ua-i386-win32-vc14-release:sip_100rel.obj
 0002:00000c08       _pjsip_update_method       0044bc08     pjsip-ua-i386-win32-vc14-release:sip_timer.obj
 0002:00000c14       ??_C@_0BA@HCNJNBAB@Session?9Expires@ 0044bc14     pjsip-ua-i386-win32-vc14-release:sip_timer.obj
 0002:00000c24       ??_C@_01FJMABOPO@x@        0044bc24     pjsip-ua-i386-win32-vc14-release:sip_timer.obj
 0002:00000c28       ??_C@_06PPBKPPMM@Min?9SE@  0044bc28     pjsip-ua-i386-win32-vc14-release:sip_timer.obj
 0002:00000c30       ??_C@_09NOICKHFM@refresher@ 0044bc30     pjsip-ua-i386-win32-vc14-release:sip_timer.obj
 0002:00000c3c       ??_C@_03IFJPOJDO@uac@      0044bc3c     pjsip-ua-i386-win32-vc14-release:sip_timer.obj
 0002:00000c40       ??_C@_03MPFNPLGP@uas@      0044bc40     pjsip-ua-i386-win32-vc14-release:sip_timer.obj
 0002:00000c44       ??_C@_0DF@MFNPLMLE@Refreshing?5session?5after?5?$CFds?5?$CIe@ 0044bc44     pjsip-ua-i386-win32-vc14-release:sip_timer.obj
 0002:00000c7c       ??_C@_0BB@FFFNADMG@refresh?5response@ 0044bc7c     pjsip-ua-i386-win32-vc14-release:sip_timer.obj
 0002:00000c90       ??_C@_07HPCLKEG@refresh@   0044bc90     pjsip-ua-i386-win32-vc14-release:sip_timer.obj
 0002:00000c98       ??_C@_0FA@NNHOKPAC@No?5session?5?$CFs?5received?5after?5?$CFd@ 0044bc98     pjsip-ua-i386-win32-vc14-release:sip_timer.obj
 0002:00000ce8       ??_C@_0L@BHFFIHLE@refreshing@ 0044bce8     pjsip-ua-i386-win32-vc14-release:sip_timer.obj
 0002:00000cf4       ??_C@_0M@CIHJDPCM@terminating@ 0044bcf4     pjsip-ua-i386-win32-vc14-release:sip_timer.obj
 0002:00000d00       ??_C@_0BK@JNGKHHHE@Error?5in?5?$CFs?5session?5timer@ 0044bd00     pjsip-ua-i386-win32-vc14-release:sip_timer.obj
 0002:00000d20       ??_C@_0EK@JCMLCMLM@Received?5422?5?$CISession?5Interval?5@ 0044bd20     pjsip-ua-i386-win32-vc14-release:sip_timer.obj
 0002:00000d70       ??_C@_0IG@FLJLCDDH@Peer?5responds?5with?5bad?5Session?9@ 0044bd70     pjsip-ua-i386-win32-vc14-release:sip_timer.obj
 0002:00000df8       ??_C@_0DC@MANPDFEB@Receive?5error?5?$CFd?5for?5refresh?5re@ 0044bdf8     pjsip-ua-i386-win32-vc14-release:sip_timer.obj
 0002:00000e2c       ??_C@_0DH@MMOHCGLD@Scheduling?5to?5retry?5refresh?5req@ 0044be2c     pjsip-ua-i386-win32-vc14-release:sip_timer.obj
 0002:00000e64       ??_C@_0BD@KGAJMAJC@Ending?5session?5now@ 0044be64     pjsip-ua-i386-win32-vc14-release:sip_timer.obj
 0002:00000e78       ??_C@_08BMKPPPGG@SIP?12?40?1@ 0044be78     pjsip-core-i386-win32-vc14-release:sip_msg.obj
 0002:00000e81       ??_C@_00CNPNBAHC@@         0044be81     pjsip-core-i386-win32-vc14-release:sip_msg.obj
 0002:00000e84       ??_C@_05ODKKKCAM@?$DLttl?$DN@ 0044be84     pjsip-core-i386-win32-vc14-release:sip_msg.obj
 0002:00000e8c       ??_C@_06IKMHKLF@?$DLrport@ 0044be8c     pjsip-core-i386-win32-vc14-release:sip_msg.obj
 0002:00000e94       ??_C@_07IONINLDO@?$DLmaddr?$DN@ 0044be94     pjsip-core-i386-win32-vc14-release:sip_msg.obj
 0002:00000e9c       ??_C@_0L@IMDGLAJB@?$DLreceived?$DN@ 0044be9c     pjsip-core-i386-win32-vc14-release:sip_msg.obj
 0002:00000ea8       ??_C@_08LMLOEMIC@?$DLbranch?$DN@ 0044bea8     pjsip-core-i386-win32-vc14-release:sip_msg.obj
 0002:00000eb8       _pjsip_invite_method       0044beb8     pjsip-core-i386-win32-vc14-release:sip_msg.obj
 0002:00000ec4       _pjsip_cancel_method       0044bec4     pjsip-core-i386-win32-vc14-release:sip_msg.obj
 0002:00000ed0       _pjsip_ack_method          0044bed0     pjsip-core-i386-win32-vc14-release:sip_msg.obj
 0002:00000edc       _pjsip_bye_method          0044bedc     pjsip-core-i386-win32-vc14-release:sip_msg.obj
 0002:00000ee8       _pjsip_register_method     0044bee8     pjsip-core-i386-win32-vc14-release:sip_msg.obj
 0002:00000ef4       _pjsip_options_method      0044bef4     pjsip-core-i386-win32-vc14-release:sip_msg.obj
 0002:00000f00       _pjsip_hdr_names           0044bf00     pjsip-core-i386-win32-vc14-release:sip_msg.obj
 0002:0000111c       ??_C@_08EINEADGI@REGISTER@ 0044c11c     pjsip-core-i386-win32-vc14-release:sip_msg.obj
 0002:00001128       ??_C@_07KDKMIPIP@OPTIONS@  0044c128     pjsip-core-i386-win32-vc14-release:sip_msg.obj
 0002:00001130       ??_C@_06MDEHPNLG@Accept@   0044c130     pjsip-core-i386-win32-vc14-release:sip_msg.obj
 0002:00001138       ??_C@_0BA@KDJCHKHJ@Accept?9Encoding@ 0044c138     pjsip-core-i386-win32-vc14-release:sip_msg.obj
 0002:00001148       ??_C@_0BA@POEGPCPD@Accept?9Language@ 0044c148     pjsip-core-i386-win32-vc14-release:sip_msg.obj
 0002:00001158       ??_C@_0L@DDNEKGOG@Alert?9Info@ 0044c158     pjsip-core-i386-win32-vc14-release:sip_msg.obj
 0002:00001164       ??_C@_05IEPODGEO@Allow@    0044c164     pjsip-core-i386-win32-vc14-release:sip_msg.obj
 0002:0000116c       ??_C@_0BE@KPJFGFDH@Authentication?9Info@ 0044c16c     pjsip-core-i386-win32-vc14-release:sip_msg.obj
 0002:00001180       ??_C@_0O@NAFGPKMI@Authorization@ 0044c180     pjsip-core-i386-win32-vc14-release:sip_msg.obj
 0002:00001190       ??_C@_07IKPMLMAJ@Call?9ID@ 0044c190     pjsip-core-i386-win32-vc14-release:sip_msg.obj
 0002:00001198       ??_C@_01KBJDNOO@i@         0044c198     pjsip-core-i386-win32-vc14-release:sip_msg.obj
 0002:0000119c       ??_C@_09HCKFEBLC@Call?9Info@ 0044c19c     pjsip-core-i386-win32-vc14-release:sip_msg.obj
 0002:000011a8       ??_C@_01GOHFPIOK@m@        0044c1a8     pjsip-core-i386-win32-vc14-release:sip_msg.obj
 0002:000011ac       ??_C@_0BE@LMOOGHBG@Content?9Disposition@ 0044c1ac     pjsip-core-i386-win32-vc14-release:sip_msg.obj
 0002:000011c0       ??_C@_0BB@KFPPKJHF@Content?9Encoding@ 0044c1c0     pjsip-core-i386-win32-vc14-release:sip_msg.obj
 0002:000011d4       ??_C@_01KGKMHCOC@e@        0044c1d4     pjsip-core-i386-win32-vc14-release:sip_msg.obj
 0002:000011d8       ??_C@_0BB@PICLCBPP@Content?9Language@ 0044c1d8     pjsip-core-i386-win32-vc14-release:sip_msg.obj
 0002:000011ec       ??_C@_0P@HOJGPHBA@Content?9Length@ 0044c1ec     pjsip-core-i386-win32-vc14-release:sip_msg.obj
 0002:000011fc       ??_C@_01HHGOMJKL@l@        0044c1fc     pjsip-core-i386-win32-vc14-release:sip_msg.obj
 0002:00001200       ??_C@_0N@LAFFMKKA@Content?9Type@ 0044c200     pjsip-core-i386-win32-vc14-release:sip_msg.obj
 0002:00001210       ??_C@_01PAPGNFGE@c@        0044c210     pjsip-core-i386-win32-vc14-release:sip_msg.obj
 0002:00001214       ??_C@_04IHAOMLEL@CSeq@     0044c214     pjsip-core-i386-win32-vc14-release:sip_msg.obj
 0002:0000121c       ??_C@_04FMEGDJGD@Date@     0044c21c     pjsip-core-i386-win32-vc14-release:sip_msg.obj
 0002:00001224       ??_C@_0L@PGKFFKEH@Error?9Info@ 0044c224     pjsip-core-i386-win32-vc14-release:sip_msg.obj
 0002:00001230       ??_C@_07DABPCBEH@Expires@  0044c230     pjsip-core-i386-win32-vc14-release:sip_msg.obj
 0002:00001238       ??_C@_04LMIAFEOL@From@     0044c238     pjsip-core-i386-win32-vc14-release:sip_msg.obj
 0002:00001240       ??_C@_01INIBCBCB@f@        0044c240     pjsip-core-i386-win32-vc14-release:sip_msg.obj
 0002:00001244       ??_C@_0M@OJFKFNND@In?9Reply?9To@ 0044c244     pjsip-core-i386-win32-vc14-release:sip_msg.obj
 0002:00001250       ??_C@_0N@KAKEBINL@Max?9Forwards@ 0044c250     pjsip-core-i386-win32-vc14-release:sip_msg.obj
 0002:00001260       ??_C@_0N@PNJFOFFK@MIME?9Version@ 0044c260     pjsip-core-i386-win32-vc14-release:sip_msg.obj
 0002:00001270       ??_C@_0M@BHCNHHNF@Min?9Expires@ 0044c270     pjsip-core-i386-win32-vc14-release:sip_msg.obj
 0002:0000127c       ??_C@_0N@MHPBIIPD@Organization@ 0044c27c     pjsip-core-i386-win32-vc14-release:sip_msg.obj
 0002:0000128c       ??_C@_08KGEIBGG@Priority@  0044c28c     pjsip-core-i386-win32-vc14-release:sip_msg.obj
 0002:00001298       ??_C@_0BD@GKJFGNG@Proxy?9Authenticate@ 0044c298     pjsip-core-i386-win32-vc14-release:sip_msg.obj
 0002:000012ac       ??_C@_0BE@DCLKKIPG@Proxy?9Authorization@ 0044c2ac     pjsip-core-i386-win32-vc14-release:sip_msg.obj
 0002:000012c0       ??_C@_0O@ICDCLCHE@Proxy?9Require@ 0044c2c0     pjsip-core-i386-win32-vc14-release:sip_msg.obj
 0002:000012d0       ??_C@_0N@KJFPNEHF@Record?9Route@ 0044c2d0     pjsip-core-i386-win32-vc14-release:sip_msg.obj
 0002:000012e0       ??_C@_08GBENDHCN@Reply?9To@ 0044c2e0     pjsip-core-i386-win32-vc14-release:sip_msg.obj
 0002:000012ec       ??_C@_07KMMNJNOB@Require@  0044c2ec     pjsip-core-i386-win32-vc14-release:sip_msg.obj
 0002:000012f4       ??_C@_0M@CMFFKFHP@Retry?9After@ 0044c2f4     pjsip-core-i386-win32-vc14-release:sip_msg.obj
 0002:00001300       ??_C@_05DIKBIPM@Route@     0044c300     pjsip-core-i386-win32-vc14-release:sip_msg.obj
 0002:00001308       ??_C@_06LGMEBDBC@Server@   0044c308     pjsip-core-i386-win32-vc14-release:sip_msg.obj
 0002:00001310       ??_C@_07GEKACEDI@Subject@  0044c310     pjsip-core-i386-win32-vc14-release:sip_msg.obj
 0002:00001318       ??_C@_01LKDEMHDF@s@        0044c318     pjsip-core-i386-win32-vc14-release:sip_msg.obj
 0002:0000131c       ??_C@_09GFDKPDGA@Supported@ 0044c31c     pjsip-core-i386-win32-vc14-release:sip_msg.obj
 0002:00001328       ??_C@_01DICPFPGM@k@        0044c328     pjsip-core-i386-win32-vc14-release:sip_msg.obj
 0002:0000132c       ??_C@_09KDGENIOP@Timestamp@ 0044c32c     pjsip-core-i386-win32-vc14-release:sip_msg.obj
 0002:00001338       ??_C@_02IJGONHOJ@To@       0044c338     pjsip-core-i386-win32-vc14-release:sip_msg.obj
 0002:0000133c       ??_C@_01PFHFFBPC@t@        0044c33c     pjsip-core-i386-win32-vc14-release:sip_msg.obj
 0002:00001340       ??_C@_0M@BEECMOIL@Unsupported@ 0044c340     pjsip-core-i386-win32-vc14-release:sip_msg.obj
 0002:0000134c       ??_C@_0L@DMPACEMJ@User?9Agent@ 0044c34c     pjsip-core-i386-win32-vc14-release:sip_msg.obj
 0002:00001358       ??_C@_03LDNNKNE@Via@       0044c358     pjsip-core-i386-win32-vc14-release:sip_msg.obj
 0002:0000135c       ??_C@_01MHEDDDHA@v@        0044c35c     pjsip-core-i386-win32-vc14-release:sip_msg.obj
 0002:00001360       ??_C@_07KGMMFLDN@Warning@  0044c360     pjsip-core-i386-win32-vc14-release:sip_msg.obj
 0002:00001368       ??_C@_0BB@KEDJJIFI@WWW?9Authenticate@ 0044c368     pjsip-core-i386-win32-vc14-release:sip_msg.obj
 0002:0000137c       ??_C@_0BA@MKEDBJEA@_Unknown?9Header@ 0044c37c     pjsip-core-i386-win32-vc14-release:sip_msg.obj
 0002:0000138c       ??_C@_02KEGNLNML@?0?5@     0044c38c     pjsip-core-i386-win32-vc14-release:sip_msg.obj
 0002:00001390       ??_C@_03MGEKBFJK@?$DLq?$DN@ 0044c390     pjsip-core-i386-win32-vc14-release:sip_msg.obj
 0002:00001394       ??_C@_09JFABAEBI@?$DLexpires?$DN@ 0044c394     pjsip-core-i386-win32-vc14-release:sip_msg.obj
 0002:000013a0       ??_C@_05IIDIOKEA@?$DLtag?$DN@ 0044c3a0     pjsip-core-i386-win32-vc14-release:sip_msg.obj
 0002:000013a8       ??_C@_04IBOFHAPJ@hide@     0044c3a8     pjsip-core-i386-win32-vc14-release:sip_msg.obj
 0002:000013b0       ??_C@_0BH@JEAOBKFE@Default?5status?5message@ 0044c3b0     pjsip-core-i386-win32-vc14-release:sip_msg.obj
 0002:000013c8       ??_C@_06CJPKGAJC@Trying@   0044c3c8     pjsip-core-i386-win32-vc14-release:sip_msg.obj
 0002:000013d0       ??_C@_07KEMHLLKP@Ringing@  0044c3d0     pjsip-core-i386-win32-vc14-release:sip_msg.obj
 0002:000013d8       ??_C@_0BI@HBFDMPGA@Call?5Is?5Being?5Forwarded@ 0044c3d8     pjsip-core-i386-win32-vc14-release:sip_msg.obj
 0002:000013f0       ??_C@_06POGAFBAL@Queued@   0044c3f0     pjsip-core-i386-win32-vc14-release:sip_msg.obj
 0002:000013f8       ??_C@_0BB@FKJCNOGD@Session?5Progress@ 0044c3f8     pjsip-core-i386-win32-vc14-release:sip_msg.obj
 0002:0000140c       ??_C@_02GIPFHKNO@OK@       0044c40c     pjsip-core-i386-win32-vc14-release:sip_msg.obj
 0002:00001410       ??_C@_08DOBOODLA@Accepted@ 0044c410     pjsip-core-i386-win32-vc14-release:sip_msg.obj
 0002:0000141c       ??_C@_0BB@HLFEHKPE@Multiple?5Choices@ 0044c41c     pjsip-core-i386-win32-vc14-release:sip_msg.obj
 0002:00001430       ??_C@_0BC@BPBCNFPI@Moved?5Permanently@ 0044c430     pjsip-core-i386-win32-vc14-release:sip_msg.obj
 0002:00001444       ??_C@_0BC@LODIMCJL@Moved?5Temporarily@ 0044c444     pjsip-core-i386-win32-vc14-release:sip_msg.obj
 0002:00001458       ??_C@_09JFBGBFIM@Use?5Proxy@ 0044c458     pjsip-core-i386-win32-vc14-release:sip_msg.obj
 0002:00001464       ??_C@_0BE@MCFGMBHK@Alternative?5Service@ 0044c464     pjsip-core-i386-win32-vc14-release:sip_msg.obj
 0002:00001478       ??_C@_0M@LNAIDEEG@Bad?5Request@ 0044c478     pjsip-core-i386-win32-vc14-release:sip_msg.obj
 0002:00001484       ??_C@_0N@OOAPMOJA@Unauthorized@ 0044c484     pjsip-core-i386-win32-vc14-release:sip_msg.obj
 0002:00001494       ??_C@_0BB@LMPIHCBH@Payment?5Required@ 0044c494     pjsip-core-i386-win32-vc14-release:sip_msg.obj
 0002:000014a8       ??_C@_09LMDIMFJD@Forbidden@ 0044c4a8     pjsip-core-i386-win32-vc14-release:sip_msg.obj
 0002:000014b4       ??_C@_09CFCBFJND@Not?5Found@ 0044c4b4     pjsip-core-i386-win32-vc14-release:sip_msg.obj
 0002:000014c0       ??_C@_0BD@CCIPIALO@Method?5Not?5Allowed@ 0044c4c0     pjsip-core-i386-win32-vc14-release:sip_msg.obj
 0002:000014d4       ??_C@_0P@HHIDFAOI@Not?5Acceptable@ 0044c4d4     pjsip-core-i386-win32-vc14-release:sip_msg.obj
 0002:000014e4       ??_C@_0BO@ONPAAOGI@Proxy?5Authentication?5Required@ 0044c4e4     pjsip-core-i386-win32-vc14-release:sip_msg.obj
 0002:00001504       ??_C@_0BA@HALFGGF@Request?5Timeout@ 0044c504     pjsip-core-i386-win32-vc14-release:sip_msg.obj
 0002:00001514       ??_C@_04OKIIBCCG@Gone@     0044c514     pjsip-core-i386-win32-vc14-release:sip_msg.obj
 0002:0000151c       ??_C@_0BJ@MMEIEOIG@Request?5Entity?5Too?5Large@ 0044c51c     pjsip-core-i386-win32-vc14-release:sip_msg.obj
 0002:00001538       ??_C@_0BF@LPICFNOC@Request?5URI?5Too?5Long@ 0044c538     pjsip-core-i386-win32-vc14-release:sip_msg.obj
 0002:00001550       ??_C@_0BH@HLJJIAEN@Unsupported?5Media?5Type@ 0044c550     pjsip-core-i386-win32-vc14-release:sip_msg.obj
 0002:00001568       ??_C@_0BH@HMDPMBIK@Unsupported?5URI?5Scheme@ 0044c568     pjsip-core-i386-win32-vc14-release:sip_msg.obj
 0002:00001580       ??_C@_0O@EABFLJJG@Bad?5Extension@ 0044c580     pjsip-core-i386-win32-vc14-release:sip_msg.obj
 0002:00001590       ??_C@_0BD@LEDCNIMD@Extension?5Required@ 0044c590     pjsip-core-i386-win32-vc14-release:sip_msg.obj
 0002:000015a4       ??_C@_0BI@DEDCGMIH@Session?5Timer?5Too?5Small@ 0044c5a4     pjsip-core-i386-win32-vc14-release:sip_msg.obj
 0002:000015bc       ??_C@_0BD@NHGMJMLN@Interval?5Too?5Brief@ 0044c5bc     pjsip-core-i386-win32-vc14-release:sip_msg.obj
 0002:000015d0       ??_C@_0BI@JBJKOKGE@Temporarily?5Unavailable@ 0044c5d0     pjsip-core-i386-win32-vc14-release:sip_msg.obj
 0002:000015e8       ??_C@_0CA@DPKMEAMP@Call?1Transaction?5Does?5Not?5Exist@ 0044c5e8     pjsip-core-i386-win32-vc14-release:sip_msg.obj
 0002:00001608       ??_C@_0O@KJBLEGOO@Loop?5Detected@ 0044c608     pjsip-core-i386-win32-vc14-release:sip_msg.obj
 0002:00001618       ??_C@_0O@CFHODMHD@Too?5Many?5Hops@ 0044c618     pjsip-core-i386-win32-vc14-release:sip_msg.obj
 0002:00001628       ??_C@_0BD@HOIPLGB@Address?5Incomplete@ 0044c628     pjsip-core-i386-win32-vc14-release:sip_msg.obj
 0002:0000163c       ??_C@_09FNGPAEJC@Ambiguous@ 0044c63c     pjsip-core-i386-win32-vc14-release:sip_msg.obj
 0002:00001648       ??_C@_09ELAJPHFG@Busy?5Here@ 0044c648     pjsip-core-i386-win32-vc14-release:sip_msg.obj
 0002:00001654       ??_C@_0BD@IGJOBDDO@Request?5Terminated@ 0044c654     pjsip-core-i386-win32-vc14-release:sip_msg.obj
 0002:00001668       ??_C@_0BE@HMIMPLAH@Not?5Acceptable?5Here@ 0044c668     pjsip-core-i386-win32-vc14-release:sip_msg.obj
 0002:0000167c       ??_C@_09HKNLJBHH@Bad?5Event@ 0044c67c     pjsip-core-i386-win32-vc14-release:sip_msg.obj
 0002:00001688       ??_C@_0BA@DKJEBJFB@Request?5Updated@ 0044c688     pjsip-core-i386-win32-vc14-release:sip_msg.obj
 0002:00001698       ??_C@_0BA@KLOCDLCK@Request?5Pending@ 0044c698     pjsip-core-i386-win32-vc14-release:sip_msg.obj
 0002:000016a8       ??_C@_0P@EIPIHDNL@Undecipherable@ 0044c6a8     pjsip-core-i386-win32-vc14-release:sip_msg.obj
 0002:000016b8       ??_C@_0BG@NJGANGCC@Internal?5Server?5Error@ 0044c6b8     pjsip-core-i386-win32-vc14-release:sip_msg.obj
 0002:000016d0       ??_C@_0BA@JGKGKAME@Not?5Implemented@ 0044c6d0     pjsip-core-i386-win32-vc14-release:sip_msg.obj
 0002:000016e0       ??_C@_0M@BNCNLPGM@Bad?5Gateway@ 0044c6e0     pjsip-core-i386-win32-vc14-release:sip_msg.obj
 0002:000016ec       ??_C@_0BE@NGHLFKBN@Service?5Unavailable@ 0044c6ec     pjsip-core-i386-win32-vc14-release:sip_msg.obj
 0002:00001700       ??_C@_0P@KPHBHCBP@Server?5Timeout@ 0044c700     pjsip-core-i386-win32-vc14-release:sip_msg.obj
 0002:00001710       ??_C@_0BG@DGJHJFEF@Version?5Not?5Supported@ 0044c710     pjsip-core-i386-win32-vc14-release:sip_msg.obj
 0002:00001728       ??_C@_0BC@FOIGPIGF@Message?5Too?5Large@ 0044c728     pjsip-core-i386-win32-vc14-release:sip_msg.obj
 0002:0000173c       ??_C@_0BF@PJIFKKPF@Precondition?5Failure@ 0044c73c     pjsip-core-i386-win32-vc14-release:sip_msg.obj
 0002:00001754       ??_C@_0BA@BNEEJKIK@Busy?5Everywhere@ 0044c754     pjsip-core-i386-win32-vc14-release:sip_msg.obj
 0002:00001764       ??_C@_07CAMLKJDK@Decline@  0044c764     pjsip-core-i386-win32-vc14-release:sip_msg.obj
 0002:0000176c       ??_C@_0BI@JILKKJAA@Does?5Not?5Exist?5Anywhere@ 0044c76c     pjsip-core-i386-win32-vc14-release:sip_msg.obj
 0002:00001784       ??_C@_0CE@LJDLADFN@No?5response?5from?5destination?5se@ 0044c784     pjsip-core-i386-win32-vc14-release:sip_msg.obj
 0002:000017a8       ??_C@_0CF@KIECMFPG@Unable?5to?5resolve?5destination?5s@ 0044c7a8     pjsip-core-i386-win32-vc14-release:sip_msg.obj
 0002:000017d0       ??_C@_0CM@KOHFAKJI@Error?5sending?5message?5to?5destin@ 0044c7d0     pjsip-core-i386-win32-vc14-release:sip_msg.obj
 0002:000017fc       ??_C@_0BB@NFGDEPJM@Content?9Length?3?5@ 0044c7fc     pjsip-core-i386-win32-vc14-release:sip_msg.obj
 0002:00001810       ??_C@_03BDDDCMLM@l?3?5@    0044c810     pjsip-core-i386-win32-vc14-release:sip_msg.obj
 0002:00001814       ??_C@_0L@GLHKEHNL@?5SIP?12?40?$AN?6@ 0044c814     pjsip-core-i386-win32-vc14-release:sip_msg.obj
 0002:00001820       ??_C@_08JLDHODKJ@SIP?12?40?5@ 0044c820     pjsip-core-i386-win32-vc14-release:sip_msg.obj
 0002:0000182c       ??_C@_0DH@DHKJLILJ@Header?5with?5no?5vptr?5encountered@ 0044c82c     pjsip-core-i386-win32-vc14-release:sip_msg.obj
 0002:00001864       ??_C@_07KCAKOOLP@sip_msg@  0044c864     pjsip-core-i386-win32-vc14-release:sip_msg.obj
 0002:0000186c       ??_C@_0P@GJMOGDPG@Content?9Type?3?5@ 0044c86c     pjsip-core-i386-win32-vc14-release:sip_msg.obj
 0002:0000187c       ??_C@_03ELFADMOK@c?3?5@    0044c87c     pjsip-core-i386-win32-vc14-release:sip_msg.obj
 0002:00001880       ??_C@_0P@DNLLBOJA@?$CFu?5?$CF?4?$CKs?5?$CC?$CF?4?$CKs?$CC@ 0044c880     pjsip-core-i386-win32-vc14-release:sip_msg.obj
 0002:00001890       ??_C@_0O@EMLDOJH@mod?9msg?9print@ 0044c890     pjsip-core-i386-win32-vc14-release:sip_transport.obj
 0002:000018a0       ??_C@_0M@NNPCGPMF@Unspecified@ 0044c8a0     pjsip-core-i386-win32-vc14-release:sip_transport.obj
 0002:000018ac       ??_C@_03OPEAKHDL@UDP@      0044c8ac     pjsip-core-i386-win32-vc14-release:sip_transport.obj
 0002:000018b0       ??_C@_0O@KHAHCMDL@UDP?5transport@ 0044c8b0     pjsip-core-i386-win32-vc14-release:sip_transport.obj
 0002:000018c0       ??_C@_03FCLDNGNL@TCP@      0044c8c0     pjsip-core-i386-win32-vc14-release:sip_transport.obj
 0002:000018c4       ??_C@_0O@EHHLMLBF@TCP?5transport@ 0044c8c4     pjsip-core-i386-win32-vc14-release:sip_transport.obj
 0002:000018d4       ??_C@_03HCMCMCCF@TLS@      0044c8d4     pjsip-core-i386-win32-vc14-release:sip_transport.obj
 0002:000018d8       ??_C@_0O@BHJFMMNA@TLS?5transport@ 0044c8d8     pjsip-core-i386-win32-vc14-release:sip_transport.obj
 0002:000018e8       ??_C@_04BOMBJBBC@SCTP@     0044c8e8     pjsip-core-i386-win32-vc14-release:sip_transport.obj
 0002:000018f0       ??_C@_0P@BEPMAJFA@SCTP?5transport@ 0044c8f0     pjsip-core-i386-win32-vc14-release:sip_transport.obj
 0002:00001900       ??_C@_04KGNEGCGI@LOOP@     0044c900     pjsip-core-i386-win32-vc14-release:sip_transport.obj
 0002:00001908       ??_C@_0BD@IJLEDLFM@Loopback?5transport@ 0044c908     pjsip-core-i386-win32-vc14-release:sip_transport.obj
 0002:0000191c       ??_C@_0L@PGGNCDOP@LOOP?9DGRAM@ 0044c91c     pjsip-core-i386-win32-vc14-release:sip_transport.obj
 0002:00001928       ??_C@_0BM@JFHDLEFO@Loopback?5datagram?5transport@ 0044c928     pjsip-core-i386-win32-vc14-release:sip_transport.obj
 0002:00001944       ??_C@_0BD@LIBJHFGK@UDP?5IPv6?5transport@ 0044c944     pjsip-core-i386-win32-vc14-release:sip_transport.obj
 0002:00001958       ??_C@_0BD@IONFPPFG@TCP?5IPv6?5transport@ 0044c958     pjsip-core-i386-win32-vc14-release:sip_transport.obj
 0002:0000196c       ??_C@_0BD@CLDAAALK@TLS?5IPv6?5transport@ 0044c96c     pjsip-core-i386-win32-vc14-release:sip_transport.obj
 0002:00001980       ??_C@_06HHKALCGB@tdta?$CFp@ 0044c980     pjsip-core-i386-win32-vc14-release:sip_transport.obj
 0002:00001988       ??_C@_0BF@FNAOFPOF@Destroying?5txdata?5?$CFs@ 0044c988     pjsip-core-i386-win32-vc14-release:sip_transport.obj
 0002:000019a0       ??_C@_0M@JCCICOOO@INVALID?5MSG@ 0044c9a0     pjsip-core-i386-win32-vc14-release:sip_transport.obj
 0002:000019ac       ??_C@_0BO@FBJFIDDA@Request?5msg?5?$CF?4?$CKs?1cseq?$DN?$CFd?5?$CI?$CFs?$CJ@ 0044c9ac     pjsip-core-i386-win32-vc14-release:sip_transport.obj
 0002:000019cc       ??_C@_0CC@DIPPPFIF@Response?5msg?5?$CFd?1?$CF?4?$CKs?1cseq?$DN?$CFd?5?$CI?$CF@ 0044c9cc     pjsip-core-i386-win32-vc14-release:sip_transport.obj
 0002:000019f0       ??_C@_0BC@NHBNMNGO@Tx?5data?5?$CFs?5cloned@ 0044c9f0     pjsip-core-i386-win32-vc14-release:sip_transport.obj
 0002:00001a04       ??_C@_0BA@BCOMPIDA@sip_transport?4c@ 0044ca04     pjsip-core-i386-win32-vc14-release:sip_transport.obj
 0002:00001a14       ??_C@_05MIOBCJBH@rdata@    0044ca14     pjsip-core-i386-win32-vc14-release:sip_transport.obj
 0002:00001a1c       ??_C@_02BBAHNLBA@?$CFp@    0044ca1c     pjsip-core-i386-win32-vc14-release:sip_transport.obj
 0002:00001a20       ??_C@_05KBHICJDA@rtd?$CFp@ 0044ca20     pjsip-core-i386-win32-vc14-release:sip_transport.obj
 0002:00001a28       ??_C@_0CG@GHPNJCCG@Unable?5to?5send?5?$CFs?3?5message?5is?5p@ 0044ca28     pjsip-core-i386-win32-vc14-release:sip_transport.obj
 0002:00001a50       ??_C@_05LOIBBIEL@tpmgr@    0044ca50     pjsip-core-i386-win32-vc14-release:sip_transport.obj
 0002:00001a58       ??_C@_06DFEDPGIK@tmgr?$CFp@ 0044ca58     pjsip-core-i386-win32-vc14-release:sip_transport.obj
 0002:00001a60       ??_C@_0BL@FCLJOKON@Transport?5manager?5created?4@ 0044ca60     pjsip-core-i386-win32-vc14-release:sip_transport.obj
 0002:00001a7c       ??_C@_0BN@ICLNKKAJ@Destroying?5transport?5manager@ 0044ca7c     pjsip-core-i386-win32-vc14-release:sip_transport.obj
 0002:00001a9c       ??_C@_0CI@HJKHOKAG@Cleaned?5up?5dangling?5transmit?5bu@ 0044ca9c     pjsip-core-i386-win32-vc14-release:sip_transport.obj
 0002:00001ac4       ??_C@_0DM@LJBJFPEI@?3?5?$CFs?5exception?5when?5parsing?5?8?$CF?4@ 0044cac4     pjsip-core-i386-win32-vc14-release:sip_transport.obj
 0002:00001b00       ??_C@_0EM@JMILNFHN@Error?5processing?5?$CFd?5bytes?5packe@ 0044cb00     pjsip-core-i386-win32-vc14-release:sip_transport.obj
 0002:00001b4c       ??_C@_0DG@FPJFHIHG@Specified?5factory?5for?5creating?5@ 0044cb4c     pjsip-core-i386-win32-vc14-release:sip_transport.obj
 0002:00001b84       ??_C@_01LBDDMOBJ@?$FN@     0044cb84     pjsip-core-i386-win32-vc14-release:sip_transport.obj
 0002:00001b88       ??_C@_0BJ@MGECBGBK@Module?5?$CC?$CF?4?$CKs?$CC?5registered@ 0044cb88     pjsip-core-i386-win32-vc14-release:sip_endpoint.obj
 0002:00001ba4       ??_C@_0P@EGLGAFCL@sip_endpoint?4c@ 0044cba4     pjsip-core-i386-win32-vc14-release:sip_endpoint.obj
 0002:00001bb4       ??_C@_0CK@DNCAODEI@Module?5?$CC?$CF?4?$CKs?$CC?5can?5not?5be?5unregi@ 0044cbb4     pjsip-core-i386-win32-vc14-release:sip_endpoint.obj
 0002:00001be0       ??_C@_0BL@HDLPHBNM@Module?5?$CC?$CF?4?$CKs?$CC?5unregistered@ 0044cbe0     pjsip-core-i386-win32-vc14-release:sip_endpoint.obj
 0002:00001bfc       ??_C@_0BO@COOMMINE@Creating?5endpoint?5instance?4?4?4@ 0044cbfc     pjsip-core-i386-win32-vc14-release:sip_endpoint.obj
 0002:00001c1c       ??_C@_06NKPEEELK@pept?$CFp@ 0044cc1c     pjsip-core-i386-win32-vc14-release:sip_endpoint.obj
 0002:00001c24       ??_C@_05BKDCOKEM@ept?$CFp@ 0044cc24     pjsip-core-i386-win32-vc14-release:sip_endpoint.obj
 0002:00001c2c       ??_C@_06CEEOCEHG@edpt?$CFp@ 0044cc2c     pjsip-core-i386-win32-vc14-release:sip_endpoint.obj
 0002:00001c34       ??_C@_0CB@HGCDKNNC@Error?5creating?5resolver?5instanc@ 0044cc34     pjsip-core-i386-win32-vc14-release:sip_endpoint.obj
 0002:00001c58       ??_C@_0BI@MLLMLNGM@Error?5creating?5endpoint@ 0044cc58     pjsip-core-i386-win32-vc14-release:sip_endpoint.obj
 0002:00001c70       ??_C@_0BP@CHMMIAFL@Destroying?5endpoint?5instance?4?4@ 0044cc70     pjsip-core-i386-win32-vc14-release:sip_endpoint.obj
 0002:00001c90       ??_C@_0BG@NIAFLHGE@Endpoint?5?$CFp?5destroyed@ 0044cc90     pjsip-core-i386-win32-vc14-release:sip_endpoint.obj
 0002:00001ca8       ??_C@_0BK@KKFMILKM@Unable?5to?5create?5pool?5?$CFs?$CB@ 0044cca8     pjsip-core-i386-win32-vc14-release:sip_endpoint.obj
 0002:00001cc4       ??_C@_0CC@POJNFGFL@Distributing?5rdata?5to?5modules?3?5@ 0044ccc4     pjsip-core-i386-win32-vc14-release:sip_endpoint.obj
 0002:00001ce8       ??_C@_05MMMMAHGD@?5From@   0044cce8     pjsip-core-i386-win32-vc14-release:sip_endpoint.obj
 0002:00001cf0       ??_C@_03PHFJHONJ@?5To@     0044ccf0     pjsip-core-i386-win32-vc14-release:sip_endpoint.obj
 0002:00001cf4       ??_C@_04CNJKNNNB@?5Via@    0044ccf4     pjsip-core-i386-win32-vc14-release:sip_endpoint.obj
 0002:00001cfc       ??_C@_05PHECJIMD@?5CSeq@   0044ccfc     pjsip-core-i386-win32-vc14-release:sip_endpoint.obj
 0002:00001d08       ??_C@_0EM@MDGMOKGH@Error?5processing?5packet?5from?5?$CFs@ 0044cd08     pjsip-core-i386-win32-vc14-release:sip_endpoint.obj
 0002:00001d54       ??_C@_0CA@HOLDFAO@Processing?5incoming?5message?3?5?$CFs@ 0044cd54     pjsip-core-i386-win32-vc14-release:sip_endpoint.obj
 0002:00001d74       ??_C@_0DD@CJCKLIHE@?$CFs?5from?5?$CFs?3?$CFd?5was?5dropped?1unhan@ 0044cd74     pjsip-core-i386-win32-vc14-release:sip_endpoint.obj
 0002:00001da8       ??_C@_0M@HFADNKMO@?3?5?$FLerr?5?$CFd?$FN?5@ 0044cda8     pjsip-core-i386-win32-vc14-release:sip_endpoint.obj
 0002:00001db4       ??_C@_0N@IDBMKGKC@UNIDENTIFIED@ 0044cdb4     pjsip-core-i386-win32-vc14-release:sip_util.obj
 0002:00001dc4       ??_C@_05BLGDNOJI@TIMER@    0044cdc4     pjsip-core-i386-win32-vc14-release:sip_util.obj
 0002:00001dcc       ??_C@_06FHCLPGGO@TX_MSG@   0044cdcc     pjsip-core-i386-win32-vc14-release:sip_util.obj
 0002:00001dd4       ??_C@_06DEPLMDFE@RX_MSG@   0044cdd4     pjsip-core-i386-win32-vc14-release:sip_util.obj
 0002:00001ddc       ??_C@_0BA@DJFINPGH@TRANSPORT_ERROR@ 0044cddc     pjsip-core-i386-win32-vc14-release:sip_util.obj
 0002:00001dec       ??_C@_09DGJBKMAD@TSX_STATE@ 0044cdec     pjsip-core-i386-win32-vc14-release:sip_util.obj
 0002:00001df8       ??_C@_04OOEKJIOI@USER@     0044cdf8     pjsip-core-i386-win32-vc14-release:sip_util.obj
 0002:00001e00       ??_C@_04CIMGMMMG@text@     0044ce00     pjsip-core-i386-win32-vc14-release:sip_util.obj
 0002:00001e08       ??_C@_05CGDPOPDB@plain@    0044ce08     pjsip-core-i386-win32-vc14-release:sip_util.obj
 0002:00001e10       ??_C@_0M@PJOLBNIF@?$CFs?5created?4@ 0044ce10     pjsip-core-i386-win32-vc14-release:sip_util.obj
 0002:00001e1c       ??_C@_08OKOOPKMJ@endpoint@ 0044ce1c     pjsip-core-i386-win32-vc14-release:sip_util.obj
 0002:00001e28       ??_C@_0L@IOBEOHFD@?$CFs?5created@ 0044ce28     pjsip-core-i386-win32-vc14-release:sip_util.obj
 0002:00001e38       ??_C@_0ED@BNKEGDBC@Automatic?5switch?5to?5TLS?5transpo@ 0044ce38     pjsip-core-i386-win32-vc14-release:sip_util.obj
 0002:00001e7c       ??_C@_07LDFFKCFH@z9hG4bK@  0044ce7c     pjsip-core-i386-win32-vc14-release:sip_util.obj
 0002:00001e84       ??_C@_05NKHOCLEE@alias@    0044ce84     pjsip-core-i386-win32-vc14-release:sip_util.obj
 0002:00001e8c       ??_C@_0DF@HEHPNNHP@?$CFs?5exceeds?5UDP?5size?5threshold?5?$CI@ 0044ce8c     pjsip-core-i386-win32-vc14-release:sip_util.obj
 0002:00001ec4       ??_C@_0DO@JCGKHENM@?$CFs?3?5skipping?5target?5resolution?5@ 0044cec4     pjsip-core-i386-win32-vc14-release:sip_util.obj
 0002:00001f04       ??_C@_0BN@EPNAIMHL@Restarting?5SIP?5UDP?5transport@ 0044cf04     pjsip-core-i386-win32-vc14-release:sip_transport_udp.obj
 0002:00001f24       ??_C@_0CD@IKKKNOLK@Error?5restarting?5SIP?5UDP?5transp@ 0044cf24     pjsip-core-i386-win32-vc14-release:sip_transport_udp.obj
 0002:00001f48       ??_C@_0BE@KOJAAPOH@sip_transport_udp?4c@ 0044cf48     pjsip-core-i386-win32-vc14-release:sip_transport_udp.obj
 0002:00001f5c       ??_C@_0BN@BEFELMIM@Warning?3?5pj_ioqueue_recvfrom@ 0044cf5c     pjsip-core-i386-win32-vc14-release:sip_transport_udp.obj
 0002:00001f80       ??_C@_0EC@ICGMJAB@FATAL?3?5pj_ioqueue_recvfrom?$CI?$CJ?5er@ 0044cf80     pjsip-core-i386-win32-vc14-release:sip_transport_udp.obj
 0002:00001fc4       ??_C@_0BM@INPFFNPD@SIP?5UDP?5transport?5destroyed@ 0044cfc4     pjsip-core-i386-win32-vc14-release:sip_transport_udp.obj
 0002:00001fe0       ??_C@_0BJ@MMFAKBFN@udp?5?$CFs?5?$FLpublished?5as?5?$CFs?$FN@ 0044cfe0     pjsip-core-i386-win32-vc14-release:sip_transport_udp.obj
 0002:00001ffc       ??_C@_07LINNJFLK@udpv6?$CFp@ 0044cffc     pjsip-core-i386-win32-vc14-release:sip_transport_udp.obj
 0002:00002004       ??_C@_01OHGJGJJP@?$FL@     0044d004     pjsip-core-i386-win32-vc14-release:sip_transport_udp.obj
 0002:00002008       ??_C@_05DOGEOMC@udp?$CFp@  0044d008     pjsip-core-i386-win32-vc14-release:sip_transport_udp.obj
 0002:00002010       ??_C@_07OHKHACFK@0?40?40?40@ 0044d010     pjsip-core-i386-win32-vc14-release:sip_transport_udp.obj
 0002:00002018       ??_C@_03LHJHGOJD@?3?30@    0044d018     pjsip-core-i386-win32-vc14-release:sip_transport_udp.obj
 0002:0000201c       ??_C@_0DB@MDELAJDF@SIP?5?$CFs?5started?0?5published?5addre@ 0044d01c     pjsip-core-i386-win32-vc14-release:sip_transport_udp.obj
 0002:00002050       ??_C@_0BC@BDGDHMHI@SIP?5UDP?5transport@ 0044d050     pjsip-core-i386-win32-vc14-release:sip_transport_udp.obj
 0002:00002064       ??_C@_0DF@PEKBCPJC@SIP?5UDP?5transport?5restarted?0?5pu@ 0044d064     pjsip-core-i386-win32-vc14-release:sip_transport_udp.obj
 0002:0000209c       ??_C@_0O@CDKJIHHI@mod?9tsx?9layer@ 0044d09c     pjsip-core-i386-win32-vc14-release:sip_transaction.obj
 0002:000020ac       ??_C@_04KHKKIIL@Null@      0044d0ac     pjsip-core-i386-win32-vc14-release:sip_transaction.obj
 0002:000020b4       ??_C@_07BNCBFEGH@Calling@  0044d0b4     pjsip-core-i386-win32-vc14-release:sip_transaction.obj
 0002:000020bc       ??_C@_0L@BKKAFK@Proceeding@ 0044d0bc     pjsip-core-i386-win32-vc14-release:sip_transaction.obj
 0002:000020c8       ??_C@_09MIJAKHKB@Completed@ 0044d0c8     pjsip-core-i386-win32-vc14-release:sip_transaction.obj
 0002:000020d4       ??_C@_09ONANMLIC@Confirmed@ 0044d0d4     pjsip-core-i386-win32-vc14-release:sip_transaction.obj
 0002:000020e0       ??_C@_0L@NNDINIPK@Terminated@ 0044d0e0     pjsip-core-i386-win32-vc14-release:sip_transaction.obj
 0002:000020ec       ??_C@_09KDBKJCNL@Destroyed@ 0044d0ec     pjsip-core-i386-win32-vc14-release:sip_transaction.obj
 0002:000020f8       ??_C@_03IIGECEEC@UAC@      0044d0f8     pjsip-core-i386-win32-vc14-release:sip_transaction.obj
 0002:000020fc       ??_C@_03MCKGDGBD@UAS@      0044d0fc     pjsip-core-i386-win32-vc14-release:sip_transaction.obj
 0002:00002100       ??_C@_0BC@LHFGMDJJ@sip_transaction?4c@ 0044d100     pjsip-core-i386-win32-vc14-release:sip_transaction.obj
 0002:00002114       ??_C@_0CC@CEIKILH@Stopping?5transaction?5layer?5modu@ 0044d114     pjsip-core-i386-win32-vc14-release:sip_transaction.obj
 0002:00002138       ??_C@_0CB@HOMFNBLL@Stopped?5transaction?5layer?5modul@ 0044d138     pjsip-core-i386-win32-vc14-release:sip_transaction.obj
 0002:0000215c       ??_C@_0CD@MKMHPCL@Transaction?5layer?5module?5destro@ 0044d15c     pjsip-core-i386-win32-vc14-release:sip_transaction.obj
 0002:00002180       ??_C@_0DF@EFJDAPKP@Failed?5to?5register?5transaction?5@ 0044d180     pjsip-core-i386-win32-vc14-release:sip_transaction.obj
 0002:000021b8       ??_C@_0CI@CEFAFFOL@Retransmiting?5?$CFs?0?5count?$DN?$CFd?0?5res@ 0044d1b8     pjsip-core-i386-win32-vc14-release:sip_transaction.obj
 0002:000021e0       ??_C@_0CK@BFJIAGKI@Received?5illegal?5ACK?5for?5?$CF?4?$CKs?5t@ 0044d1e0     pjsip-core-i386-win32-vc14-release:sip_transaction.obj
 0002:0000220c       ??_C@_08NHKHBNMC@tsxlayer@ 0044d20c     pjsip-core-i386-win32-vc14-release:sip_transaction.obj
 0002:00002218       ??_C@_0DB@ELBLLJGF@Unable?5to?5register?5?$CF?4?$CKs?5transac@ 0044d218     pjsip-core-i386-win32-vc14-release:sip_transaction.obj
 0002:0000224c       ??_C@_03ILLHDCNP@tsx@      0044d24c     pjsip-core-i386-win32-vc14-release:sip_transaction.obj
 0002:00002250       ??_C@_05NPMOPOBK@tsx?$CFp@ 0044d250     pjsip-core-i386-win32-vc14-release:sip_transaction.obj
 0002:00002258       ??_C@_0BH@PDBDIMMK@Transaction?5destroyed?$CB@ 0044d258     pjsip-core-i386-win32-vc14-release:sip_transaction.obj
 0002:00002270       ??_C@_0DE@PFNICBJL@Will?5destroy?5later?5because?5tran@ 0044d270     pjsip-core-i386-win32-vc14-release:sip_transaction.obj
 0002:000022a4       ??_C@_0L@KEAKDBBB@Retransmit@ 0044d2a4     pjsip-core-i386-win32-vc14-release:sip_transaction.obj
 0002:000022b0       ??_C@_07MKALMBDJ@Timeout@  0044d2b0     pjsip-core-i386-win32-vc14-release:sip_transaction.obj
 0002:000022b8       ??_C@_0P@ICKHIBGF@?$CFs?5timer?5event@ 0044d2b8     pjsip-core-i386-win32-vc14-release:sip_transaction.obj
 0002:000022c8       ??_C@_0CG@BHDJKKPD@State?5changed?5from?5?$CFs?5to?5?$CFs?0?5ev@ 0044d2c8     pjsip-core-i386-win32-vc14-release:sip_transaction.obj
 0002:000022f0       ??_C@_0BL@NELPIPFA@Transaction?5created?5for?5?$CFs@ 0044d2f0     pjsip-core-i386-win32-vc14-release:sip_transaction.obj
 0002:00002310       ??_C@_0ED@IJNOFMME@Error?3?5CSeq?5header?5contains?5dif@ 0044d310     pjsip-core-i386-win32-vc14-release:sip_transaction.obj
 0002:00002354       ??_C@_0CB@LPCILHMH@Request?5to?5terminate?5transactio@ 0044d354     pjsip-core-i386-win32-vc14-release:sip_transaction.obj
 0002:00002378       ??_C@_0BH@NJDAONCL@Sending?5?$CFs?5in?5state?5?$CFs@ 0044d378     pjsip-core-i386-win32-vc14-release:sip_transaction.obj
 0002:00002390       ??_C@_0BI@PADDBGDM@Incoming?5?$CFs?5in?5state?5?$CFs@ 0044d390     pjsip-core-i386-win32-vc14-release:sip_transaction.obj
 0002:000023a8       ??_C@_0BP@MFDMMFDJ@Failed?5to?5send?5?$CFs?$CB?5err?$DN?$CFd?5?$CI?$CFs?$CJ@ 0044d3a8     pjsip-core-i386-win32-vc14-release:sip_transaction.obj
 0002:000023c8       ??_C@_0DG@HCJJGEJB@Temporary?5failure?5in?5sending?5?$CFs@ 0044d3c8     pjsip-core-i386-win32-vc14-release:sip_transaction.obj
 0002:00002400       ??_C@_0BN@PMBJJBK@Transport?5failed?5to?5send?5?$CFs?$CB@ 0044d400     pjsip-core-i386-win32-vc14-release:sip_transaction.obj
 0002:00002420       ??_C@_0BB@HMFOJBGF@Error?5sending?5?$CFs@ 0044d420     pjsip-core-i386-win32-vc14-release:sip_transaction.obj
 0002:00002434       ??_C@_0DG@EDJHIGCF@Transport?5error?0?5terminating?5tr@ 0044d434     pjsip-core-i386-win32-vc14-release:sip_transaction.obj
 0002:0000246c       ??_C@_06GBGGOGBI@mod?9ua@  0044d46c     pjsip-core-i386-win32-vc14-release:sip_ua_layer.obj
 0002:00002474       ??_C@_04JKMMAKMG@ua?$CFp@  0044d474     pjsip-core-i386-win32-vc14-release:sip_ua_layer.obj
 0002:0000247c       ??_C@_05OKIAFJEO@?5ua?$CFp@ 0044d47c     pjsip-core-i386-win32-vc14-release:sip_ua_layer.obj
 0002:00002484       ??_C@_0DE@OALAGOOG@Unable?5to?5find?5dialogset?5for?5?$CFs@ 0044d484     pjsip-core-i386-win32-vc14-release:sip_ua_layer.obj
 0002:000024b8       ??_C@_0P@JPGJPHAN@sip_ua_layer?4c@ 0044d4b8     pjsip-core-i386-win32-vc14-release:sip_ua_layer.obj
 0002:000024c8       ??_C@_0DB@GAIHGHNL@Unable?5to?5find?5dialog?5for?5?$CFs?0?5a@ 0044d4c8     pjsip-core-i386-win32-vc14-release:sip_ua_layer.obj
 0002:000024fc       ??_C@_0BN@IDPPCIAF@Unable?5to?5find?5dialog?5for?5?$CFs@ 0044d4fc     pjsip-core-i386-win32-vc14-release:sip_ua_layer.obj
 0002:00002520       ??_C@_0EC@DDCMMPIA@Received?5strayed?52xx?5response?5?$CI@ 0044d520     pjsip-core-i386-win32-vc14-release:sip_ua_layer.obj
 0002:00002564       ??_C@_0CK@KFGINAJM@Received?5forked?5?$CFs?5for?5existing@ 0044d564     pjsip-core-i386-win32-vc14-release:sip_ua_layer.obj
 0002:00002590       ??_C@_0FB@ELNGKJEC@Unhandled?5forked?5?$CFs?5from?5?$CFs?3?$CFd?0@ 0044d590     pjsip-core-i386-win32-vc14-release:sip_ua_layer.obj
 0002:000025e4       ??_C@_02DKCKIIND@?$CFs@    0044d5e4     pjsip-core-i386-win32-vc14-release:sip_ua_layer.obj
 0002:000025f0       ??_C@_09NMAFIJHB@SUBSCRIBE@ 0044d5f0     pjsip-core-i386-win32-vc14-release:sip_dialog.obj
 0002:000025fc       ??_C@_05NPMLFHIF@REFER@    0044d5fc     pjsip-core-i386-win32-vc14-release:sip_dialog.obj
 0002:00002604       ??_C@_06LMEIPPMP@NOTIFY@   0044d604     pjsip-core-i386-win32-vc14-release:sip_dialog.obj
 0002:0000260c       ??_C@_05DGNCLLBL@dlg?$CFp@ 0044d60c     pjsip-core-i386-win32-vc14-release:sip_dialog.obj
 0002:00002614       ??_C@_0BD@BNDBFEIG@UAC?5dialog?5created@ 0044d614     pjsip-core-i386-win32-vc14-release:sip_dialog.obj
 0002:00002628       ??_C@_0BD@KGAMNPL@UAS?5dialog?5created@ 0044d628     pjsip-core-i386-win32-vc14-release:sip_dialog.obj
 0002:0000263c       ??_C@_0BB@KCGOEMJG@Dialog?5destroyed@ 0044d63c     pjsip-core-i386-win32-vc14-release:sip_dialog.obj
 0002:00002650       ??_C@_0CA@PEKDEADC@Session?5count?5inc?5to?5?$CFd?5by?5?$CF?4?$CKs@ 0044d650     pjsip-core-i386-win32-vc14-release:sip_dialog.obj
 0002:00002670       ??_C@_0CA@LCICJLMD@Session?5count?5dec?5to?5?$CFd?5by?5?$CF?4?$CKs@ 0044d670     pjsip-core-i386-win32-vc14-release:sip_dialog.obj
 0002:00002690       ??_C@_0CL@CCAGPMOP@Module?5?$CF?4?$CKs?5added?5as?5dialog?5usa@ 0044d690     pjsip-core-i386-win32-vc14-release:sip_dialog.obj
 0002:000026c0       ??_C@_0EF@MJEHGCLG@Module?5?$CF?4?$CKs?5already?5registered?5@ 0044d6c0     pjsip-core-i386-win32-vc14-release:sip_dialog.obj
 0002:00002708       ??_C@_0M@LHPMKMAE@Received?5?$CFs@ 0044d708     pjsip-core-i386-win32-vc14-release:sip_dialog.obj
 0002:00002714       ??_C@_0N@JADHANJP@Invalid?5CSeq@ 0044d714     pjsip-core-i386-win32-vc14-release:sip_dialog.obj
 0002:00002724       ??_C@_0BL@HAJOOCAF@Unhandled?5by?5dialog?5usages@ 0044d724     pjsip-core-i386-win32-vc14-release:sip_dialog.obj
 0002:00002740       ??_C@_0DI@GPBFFFGN@?$CFs?5was?5unhandled?5by?5dialog?5usag@ 0044d740     pjsip-core-i386-win32-vc14-release:sip_dialog.obj
 0002:00002778       ??_C@_0BC@PCHBAKGP@Route?9set?5updated@ 0044d778     pjsip-core-i386-win32-vc14-release:sip_dialog.obj
 0002:0000278c       ??_C@_0BB@EMPDFCEJ@Route?9set?5frozen@ 0044d78c     pjsip-core-i386-win32-vc14-release:sip_dialog.obj
 0002:000027a0       ??_C@_0CD@PIHECLAB@Transaction?5?$CFs?5state?5changed?5to@ 0044d7a0     pjsip-core-i386-win32-vc14-release:sip_dialog.obj
 0002:000027c4       ??_C@_0BB@JCEFLFJE@0123456789abcdef@ 0044d7c4     pjsip-core-i386-win32-vc14-release:sip_auth_client.obj
 0002:000027d8       ??_C@_01JLIPDDHJ@?3@       0044d7d8     pjsip-core-i386-win32-vc14-release:sip_auth_client.obj
 0002:000027dc       ??_C@_09BBOOBJFI@AKAv1?9MD5@ 0044d7dc     pjsip-core-i386-win32-vc14-release:sip_auth_client.obj
 0002:000027e8       ??_C@_0CE@PAGGDDKM@Unsupported?5digest?5algorithm?5?$CC?$CF@ 0044d7e8     pjsip-core-i386-win32-vc14-release:sip_auth_client.obj
 0002:0000280c       ??_C@_0BC@IFICLNCF@sip_auth_client?4c@ 0044d80c     pjsip-core-i386-win32-vc14-release:sip_auth_client.obj
 0002:00002820       ??_C@_04LIOHGJKM@?$CF08u@  0044d820     pjsip-core-i386-win32-vc14-release:sip_auth_client.obj
 0002:00002828       ??_C@_06DKDPJBDF@b39971@   0044d828     pjsip-core-i386-win32-vc14-release:sip_auth_client.obj
 0002:00002830       ??_C@_0BL@DHABBKFJ@Unsupported?5qop?5offer?5?$CF?4?$CKs@ 0044d830     pjsip-core-i386-win32-vc14-release:sip_auth_client.obj
 0002:0000284c       ??_C@_0L@OLKLFLHC@auth_cli?$CFp@ 0044d84c     pjsip-core-i386-win32-vc14-release:sip_auth_client.obj
 0002:00002858       ??_C@_0EF@GMAJJJPM@Authorization?5failed?5for?5?$CF?4?$CKs?$EA?$CF@ 0044d858     pjsip-core-i386-win32-vc14-release:sip_auth_client.obj
 0002:000028a0       ??_C@_0EN@FFFABAE@Authorization?5failed?5for?5?$CF?4?$CKs?$EA?$CF@ 0044d8a0     pjsip-core-i386-win32-vc14-release:sip_auth_client.obj
 0002:000028f0       ??_C@_0EB@PMHMAEL@Unable?5to?5set?5auth?5for?5?$CFs?3?5can?5@ 0044d8f0     pjsip-core-i386-win32-vc14-release:sip_auth_client.obj
 0002:00002934       ??_C@_04CCHAHKJA@user@     0044d934     pjsip-core-i386-win32-vc14-release:sip_parser.obj
 0002:0000293c       ??_C@_06GABBCIBA@method@   0044d93c     pjsip-core-i386-win32-vc14-release:sip_parser.obj
 0002:00002944       ??_C@_09PBENLGJM@transport@ 0044d944     pjsip-core-i386-win32-vc14-release:sip_parser.obj
 0002:00002950       ??_C@_05LIJGAEPJ@maddr@    0044d950     pjsip-core-i386-win32-vc14-release:sip_parser.obj
 0002:00002958       ??_C@_02FMHKAPNN@lr@       0044d958     pjsip-core-i386-win32-vc14-release:sip_parser.obj
 0002:0000295c       ??_C@_03LNLCDKEI@tel@      0044d95c     pjsip-core-i386-win32-vc14-release:sip_parser.obj
 0002:00002960       ??_C@_06KAEOJLJM@branch@   0044d960     pjsip-core-i386-win32-vc14-release:sip_parser.obj
 0002:00002968       ??_C@_03KAFGPDAP@ttl@      0044d968     pjsip-core-i386-win32-vc14-release:sip_parser.obj
 0002:0000296c       ??_C@_08CIDECLFI@received@ 0044d96c     pjsip-core-i386-win32-vc14-release:sip_parser.obj
 0002:00002978       ??_C@_01IIACKFLH@q@        0044d978     pjsip-core-i386-win32-vc14-release:sip_parser.obj
 0002:0000297c       ??_C@_07MJGJEDBB@expires@  0044d97c     pjsip-core-i386-win32-vc14-release:sip_parser.obj
 0002:00002984       ??_C@_03FJEPELFP@tag@      0044d984     pjsip-core-i386-win32-vc14-release:sip_parser.obj
 0002:00002988       ??_C@_05IOGGPFMA@rport@    0044d988     pjsip-core-i386-win32-vc14-release:sip_parser.obj
 0002:00002990       ??_C@_0EG@NDDOOCLK@NULL?5input?5string?0?5invalid?5inpu@ 0044d990     pjsip-core-i386-win32-vc14-release:sip_parser.obj
 0002:000029d8       ??_C@_0DG@PAKEPEOC@String?5value?5was?5less?5than?5the?5@ 0044d9d8     pjsip-core-i386-win32-vc14-release:sip_parser.obj
 0002:00002a10       ??_C@_0DJ@LBDEGIMP@String?5value?5was?5greater?5than?5t@ 0044da10     pjsip-core-i386-win32-vc14-release:sip_parser.obj
 0002:00002a4c       ??_C@_0O@NIPGCINC@Unknown?5error@ 0044da4c     pjsip-core-i386-win32-vc14-release:sip_parser.obj
 0002:00002a5c       ??_C@_0BJ@JCIGOHAI@Error?5parsing?5?8?$CF?4?$CKs?8?3?5?$CFs@ 0044da5c     pjsip-core-i386-win32-vc14-release:sip_parser.obj
 0002:00002a78       ??_C@_0N@CDHGOKB@sip_parser?4c@ 0044da78     pjsip-core-i386-win32-vc14-release:sip_parser.obj
 0002:00002a88       ??_C@_0BN@NMLJIDND@Can?8t?5parse?5input?5string?3?5?$CFs@ 0044da88     pjsip-core-i386-win32-vc14-release:sip_parser.obj
 0002:00002aa8       ??_C@_0BD@IGJCFAAL@PJSIP?5syntax?5error@ 0044daa8     pjsip-core-i386-win32-vc14-release:sip_parser.obj
 0002:00002abc       ??_C@_0BK@PNNGKLIN@PJSIP?5invalid?5value?5error@ 0044dabc     pjsip-core-i386-win32-vc14-release:sip_parser.obj
 0002:00002ad8       ??_C@_02PCIJFNDE@?$AN?6@   0044dad8     pjsip-core-i386-win32-vc14-release:sip_parser.obj
 0002:00002adc       ??_C@_03MGGIELLM@?0?$AN?6@ 0044dadc     pjsip-core-i386-win32-vc14-release:sip_parser.obj
 0002:00002ae0       ??_C@_0L@LGCFMBHL@?9?4?$CB?$CF?$CK_?$GA?8?$HO?$CL@ 0044dae0     pjsip-core-i386-win32-vc14-release:sip_parser.obj
 0002:00002aec       ??_C@_01FGNFDNOH@?$CF@     0044daec     pjsip-core-i386-win32-vc14-release:sip_parser.obj
 0002:00002af0       ??_C@_03HGEHODII@_?9?4@    0044daf0     pjsip-core-i386-win32-vc14-release:sip_parser.obj
 0002:00002af4       ??_C@_0N@INHGOOCE@abcdefABCDEF@ 0044daf4     pjsip-core-i386-win32-vc14-release:sip_parser.obj
 0002:00002b04       ??_C@_0BC@EIHPKHIH@?$FL?$FN?1?3?$CG?$CL$?9_?4?$CB?$HO?$CK?8?$CI?$CJ?$CF@ 0044db04     pjsip-core-i386-win32-vc14-release:sip_parser.obj
 0002:00002b18       ??_C@_0BC@DHLPLEEN@?$FL?$FN?1?$DP?3?$CL$?9_?4?$CB?$HO?$CK?8?$CI?$CJ?$CF@ 0044db18     pjsip-core-i386-win32-vc14-release:sip_parser.obj
 0002:00002b2c       ??_C@_0BD@FAKEDBHK@?9_?4?$CB?$HO?$CK?8?$CI?$CJ?$CF?$CG?$DN?$CL$?0?$DL?$DP?1@ 0044db2c     pjsip-core-i386-win32-vc14-release:sip_parser.obj
 0002:00002b40       ??_C@_01IPJKGB@?$CD@       0044db40     pjsip-core-i386-win32-vc14-release:sip_parser.obj
 0002:00002b44       ??_C@_0BA@GJPAFF@?9_?4?$CB?$HO?$CK?8?$CI?$CJ?$CF?$CG?$DN?$CL$?0@ 0044db44     pjsip-core-i386-win32-vc14-release:sip_parser.obj
 0002:00002b54       ??_C@_04INEOGBDO@?$EA?5?6?$DO@ 0044db54     pjsip-core-i386-win32-vc14-release:sip_parser.obj
 0002:00002b5c       ??_C@_04FOECIMDB@?3?$AN?6?$DM@ 0044db5c     pjsip-core-i386-win32-vc14-release:sip_parser.obj
 0002:00002b64       ??_C@_0BH@KMKLEGFJ@?$CD?$DP?$DL?3?$EA?$CG?$DN?$CL?9_?4?$CB?$HO?$CK?8?$CI?$CJ?$CF$?0?1?$CF@ 0044db64     pjsip-core-i386-win32-vc14-release:sip_parser.obj
 0002:00002b7c       ??_C@_03EDDBLLFO@?6?$AN?6@ 0044db7c     pjsip-core-i386-win32-vc14-release:sip_parser.obj
 0002:00002b80       ??_C@_03MCPDGLLE@SIP@      0044db80     pjsip-core-i386-win32-vc14-release:sip_parser.obj
 0002:00002b84       ??_C@_03GJAMENNA@2?40@     0044db84     pjsip-core-i386-win32-vc14-release:sip_parser.obj
 0002:00002b88       ??_C@_0N@KMCODECP@Request?5Line@ 0044db88     pjsip-core-i386-win32-vc14-release:sip_parser.obj
 0002:00002b98       ??_C@_0M@KNCMEJPH@Status?5Line@ 0044db98     pjsip-core-i386-win32-vc14-release:sip_parser.obj
 0002:00002ba4       ??_C@_01CLKCMJKC@?5@       0044dba4     pjsip-core-i386-win32-vc14-release:sip_parser.obj
 0002:00002ba8       ??_C@_0CM@MBFLJJMP@Error?5parsing?5header?3?5?8?$CF?4?$CKs?8?5li@ 0044dba8     pjsip-core-i386-win32-vc14-release:sip_parser.obj
 0002:00002bd4       ??_C@_08KIKGFOKI@boundary@ 0044dbd4     pjsip-core-i386-win32-vc14-release:sip_multipart.obj
 0002:00002be0       ??_C@_0CI@MEJEAPPA@Warning?3?5error?5parsing?5multipar@ 0044dbe0     pjsip-core-i386-win32-vc14-release:sip_multipart.obj
 0002:00002c08       ??_C@_0BA@LBAHDFBC@sip_multipart?4c@ 0044dc08     pjsip-core-i386-win32-vc14-release:sip_multipart.obj
 0002:00002c18       ??_C@_06IJPNAHC@digest@    0044dc18     pjsip-core-i386-win32-vc14-release:sip_multipart.obj
 0002:00002c20       ??_C@_07ONPBMBOP@message@  0044dc20     pjsip-core-i386-win32-vc14-release:sip_multipart.obj
 0002:00002c28       ??_C@_06OGFLLFJI@rfc822@   0044dc28     pjsip-core-i386-win32-vc14-release:sip_multipart.obj
 0002:00002c30       ??_C@_0FD@FFFCNLOH@Warning?3?5boundary?5parameter?5not@ 0044dc30     pjsip-core-i386-win32-vc14-release:sip_multipart.obj
 0002:00002c88       ??_C@_0EO@HHPEFGCJ@Error?3?5multipart?5boundary?5not?5s@ 0044dc88     pjsip-core-i386-win32-vc14-release:sip_multipart.obj
 0002:00002cd8       ??_C@_06BMAPCEPF@?$DLuser?$DN@ 0044dcd8     pjsip-core-i386-win32-vc14-release:sip_uri.obj
 0002:00002ce0       ??_C@_08FIHANMDK@?$DLmethod?$DN@ 0044dce0     pjsip-core-i386-win32-vc14-release:sip_uri.obj
 0002:00002cec       ??_C@_0M@OGEJDPOO@?$DLtransport?$DN@ 0044dcec     pjsip-core-i386-win32-vc14-release:sip_uri.obj
 0002:00002cf8       ??_C@_03KFFFHGHD@?$DLlr@   0044dcf8     pjsip-core-i386-win32-vc14-release:sip_uri.obj
 0002:00002d00       ??_C@_0FJ@MFGCGKIL@DNS?5resolver?5not?5available?0?5tar@ 0044dd00     pjsip-core-i386-win32-vc14-release:sip_resolve.obj
 0002:00002d5c       ??_C@_0O@DMBGNNMG@sip_resolve?4c@ 0044dd5c     pjsip-core-i386-win32-vc14-release:sip_resolve.obj
 0002:00002d6c       ??_C@_0DH@DPGIKKNN@Target?5?8?$CF?4?$CKs?3?$CFd?8?5type?$DN?$CFs?5resolv@ 0044dd6c     pjsip-core-i386-win32-vc14-release:sip_resolve.obj
 0002:00002da4       ??_C@_0M@EKOGDFHO@_sips?4_tcp?4@ 0044dda4     pjsip-core-i386-win32-vc14-release:sip_resolve.obj
 0002:00002db0       ??_C@_0L@CGLNHIHI@_sip?4_tcp?4@ 0044ddb0     pjsip-core-i386-win32-vc14-release:sip_resolve.obj
 0002:00002dbc       ??_C@_0L@IGAKGJHB@_sip?4_udp?4@ 0044ddbc     pjsip-core-i386-win32-vc14-release:sip_resolve.obj
 0002:00002dc8       ??_C@_0EE@KKBDDFND@Starting?5async?5DNS?5?$CFs?5query?3?5ta@ 0044ddc8     pjsip-core-i386-win32-vc14-release:sip_resolve.obj
 0002:00002e0c       ??_C@_0BJ@LIPABGDO@Failed?5to?5resolve?5?8?$CF?4?$CKs?8@ 0044de0c     pjsip-core-i386-win32-vc14-release:sip_resolve.obj
 0002:00002e28       ??_C@_0BP@NGGNJHPJ@DNS?5A?5record?5resolution?5failed@ 0044de28     pjsip-core-i386-win32-vc14-release:sip_resolve.obj
 0002:00002e48       ??_C@_0CC@PEAOFPBC@DNS?5AAAA?5record?5resolution?5fail@ 0044de48     pjsip-core-i386-win32-vc14-release:sip_resolve.obj
 0002:00002e6c       ??_C@_0CE@PFLKGBGN@DNS?5A?1AAAA?5record?5resolution?5fa@ 0044de6c     pjsip-core-i386-win32-vc14-release:sip_resolve.obj
 0002:000030f8       ??_C@_0BN@NDHPCAAG@Object?5is?5busy?5?$CIPJSIP_EBUSY?$CJ@ 0044e0f8     pjsip-core-i386-win32-vc14-release:sip_errno.obj
 0002:00003118       ??_C@_0DF@LHIGDAHP@Object?5with?5the?5same?5type?5exist@ 0044e118     pjsip-core-i386-win32-vc14-release:sip_errno.obj
 0002:00003150       ??_C@_0CK@JJDNDGNE@SIP?5stack?5shutting?5down?5?$CIPJSIP_@ 0044e150     pjsip-core-i386-win32-vc14-release:sip_errno.obj
 0002:0000317c       ??_C@_0DH@GEJHNFDM@SIP?5object?5is?5not?5initialized?4?5@ 0044e17c     pjsip-core-i386-win32-vc14-release:sip_errno.obj
 0002:000031b4       ??_C@_0DF@DFCKLJD@Missing?5route?5set?5?$CIfor?5tel?3?5URI@ 0044e1b4     pjsip-core-i386-win32-vc14-release:sip_errno.obj
 0002:000031ec       ??_C@_0DB@LNGCHBD@Invalid?5message?1syntax?5error?5?$CIP@ 0044e1ec     pjsip-core-i386-win32-vc14-release:sip_errno.obj
 0002:00003220       ??_C@_0DB@NNKMNMEK@Expecting?5request?5message?5?$CIPJSI@ 0044e220     pjsip-core-i386-win32-vc14-release:sip_errno.obj
 0002:00003254       ??_C@_0DD@MODFKCPK@Expecting?5response?5message?5?$CIPJS@ 0044e254     pjsip-core-i386-win32-vc14-release:sip_errno.obj
 0002:00003288       ??_C@_0CF@NOACODOC@Message?5too?5long?5?$CIPJSIP_EMSGTOO@ 0044e288     pjsip-core-i386-win32-vc14-release:sip_errno.obj
 0002:000032b0       ??_C@_0CE@FONCLLMK@Partial?5message?5?$CIPJSIP_EPARTIAL@ 0044e2b0     pjsip-core-i386-win32-vc14-release:sip_errno.obj
 0002:000032d4       ??_C@_0DK@HMGLEHFD@Invalid?1unexpected?5SIP?5status?5c@ 0044e2d4     pjsip-core-i386-win32-vc14-release:sip_errno.obj
 0002:00003310       ??_C@_0CA@ICJGNPBL@Invalid?5URI?5?$CIPJSIP_EINVALIDURI?$CJ@ 0044e310     pjsip-core-i386-win32-vc14-release:sip_errno.obj
 0002:00003330       ??_C@_0CK@PDIHHAGH@Invalid?5URI?5scheme?5?$CIPJSIP_EINVA@ 0044e330     pjsip-core-i386-win32-vc14-release:sip_errno.obj
 0002:0000335c       ??_C@_0CL@FGPCAKCH@Missing?5Request?9URI?5?$CIPJSIP_EMIS@ 0044e35c     pjsip-core-i386-win32-vc14-release:sip_errno.obj
 0002:00003388       ??_C@_0CL@JOKFDOLI@Invalid?5Request?5URI?5?$CIPJSIP_EINV@ 0044e388     pjsip-core-i386-win32-vc14-release:sip_errno.obj
 0002:000033b4       ??_C@_0CE@NBJPLEOO@URI?5is?5too?5long?5?$CIPJSIP_EURITOOL@ 0044e3b4     pjsip-core-i386-win32-vc14-release:sip_errno.obj
 0002:000033d8       ??_C@_0CP@PNHNBIME@Missing?5required?5header?$CIs?$CJ?5?$CIPJS@ 0044e3d8     pjsip-core-i386-win32-vc14-release:sip_errno.obj
 0002:00003408       ??_C@_0CJ@GFIBJIAO@Invalid?5header?5field?5?$CIPJSIP_EIN@ 0044e408     pjsip-core-i386-win32-vc14-release:sip_errno.obj
 0002:00003434       ??_C@_0CH@NDGOCBBP@Invalid?5Via?5header?5?$CIPJSIP_EINVA@ 0044e434     pjsip-core-i386-win32-vc14-release:sip_errno.obj
 0002:0000345c       ??_C@_0DG@HLMABLPG@Multiple?5Via?5headers?5in?5respons@ 0044e45c     pjsip-core-i386-win32-vc14-release:sip_errno.obj
 0002:00003494       ??_C@_0CK@LJCOFGPN@Missing?5message?5body?5?$CIPJSIP_EMI@ 0044e494     pjsip-core-i386-win32-vc14-release:sip_errno.obj
 0002:000034c0       ??_C@_0DB@NINEONMP@Invalid?1unexpected?5method?5?$CIPJSI@ 0044e4c0     pjsip-core-i386-win32-vc14-release:sip_errno.obj
 0002:000034f4       ??_C@_0CO@MKNJKJDL@Unsupported?5transport?5?$CIPJSIP_EU@ 0044e4f4     pjsip-core-i386-win32-vc14-release:sip_errno.obj
 0002:00003524       ??_C@_0DD@FMJGJHHJ@Transmit?5buffer?5already?5pending@ 0044e524     pjsip-core-i386-win32-vc14-release:sip_errno.obj
 0002:00003558       ??_C@_0CH@FGKEPDFL@Rx?5buffer?5overflow?5?$CIPJSIP_ERXOV@ 0044e558     pjsip-core-i386-win32-vc14-release:sip_errno.obj
 0002:00003580       ??_C@_0CH@IPJBAOPN@Buffer?5destroyed?5?$CIPJSIP_EBUFDES@ 0044e580     pjsip-core-i386-win32-vc14-release:sip_errno.obj
 0002:000035a8       ??_C@_0DF@PBAMDOH@Unsuitable?5transport?5selected?5?$CI@ 0044e5a8     pjsip-core-i386-win32-vc14-release:sip_errno.obj
 0002:000035e0       ??_C@_0DE@NJLNEKOM@Transport?5not?5available?5for?5use@ 0044e5e0     pjsip-core-i386-win32-vc14-release:sip_errno.obj
 0002:00003614       ??_C@_0DF@DPMOHHML@Transaction?5has?5been?5destroyed?5@ 0044e614     pjsip-core-i386-win32-vc14-release:sip_errno.obj
 0002:00003650       ??_C@_0FM@JGDLJGMK@No?5transaction?5is?5associated?5wi@ 0044e650     pjsip-core-i386-win32-vc14-release:sip_errno.obj
 0002:000036ac       ??_C@_0CH@EBPFAGMB@URI?5scheme?5mismatch?5?$CIPJSIP_ECMP@ 0044e6ac     pjsip-core-i386-win32-vc14-release:sip_errno.obj
 0002:000036d4       ??_C@_0CI@DCNDLDIL@URI?5user?5part?5mismatch?5?$CIPJSIP_E@ 0044e6d4     pjsip-core-i386-win32-vc14-release:sip_errno.obj
 0002:000036fc       ??_C@_0CO@NLCBDNGP@URI?5password?5part?5mismatch?5?$CIPJS@ 0044e6fc     pjsip-core-i386-win32-vc14-release:sip_errno.obj
 0002:0000372c       ??_C@_0CI@CAAENIBN@URI?5host?5part?5mismatch?5?$CIPJSIP_E@ 0044e72c     pjsip-core-i386-win32-vc14-release:sip_errno.obj
 0002:00003754       ??_C@_0CD@LGFLCNGN@URI?5port?5mismatch?5?$CIPJSIP_ECMPPO@ 0044e754     pjsip-core-i386-win32-vc14-release:sip_errno.obj
 0002:00003778       ??_C@_0DG@KAIIGJOM@URI?5transport?5param?5mismatch?5?$CIP@ 0044e778     pjsip-core-i386-win32-vc14-release:sip_errno.obj
 0002:000037b0       ??_C@_0CM@PONOAHFI@URI?5ttl?5param?5mismatch?5?$CIPJSIP_E@ 0044e7b0     pjsip-core-i386-win32-vc14-release:sip_errno.obj
 0002:000037dc       ??_C@_0CO@PNILAMMK@URI?5user?5param?5mismatch?5?$CIPJSIP_@ 0044e7dc     pjsip-core-i386-win32-vc14-release:sip_errno.obj
 0002:0000380c       ??_C@_0DC@BPANLPFC@URI?5method?5param?5mismatch?5?$CIPJSI@ 0044e80c     pjsip-core-i386-win32-vc14-release:sip_errno.obj
 0002:00003840       ??_C@_0DA@HIHPGKKA@URI?5maddr?5param?5mismatch?5?$CIPJSIP@ 0044e840     pjsip-core-i386-win32-vc14-release:sip_errno.obj
 0002:00003870       ??_C@_0DA@DADPPELC@URI?5other?5param?5mismatch?5?$CIPJSIP@ 0044e870     pjsip-core-i386-win32-vc14-release:sip_errno.obj
 0002:000038a0       ??_C@_0DG@CFNMFPOM@URI?5header?5parameter?5mismatch?5?$CI@ 0044e8a0     pjsip-core-i386-win32-vc14-release:sip_errno.obj
 0002:000038d8       ??_C@_0DM@LOOBEDNN@Credential?5failed?5to?5authentica@ 0044e8d8     pjsip-core-i386-win32-vc14-release:sip_errno.obj
 0002:00003914       ??_C@_0CN@IIEEILJJ@No?5suitable?5credential?5?$CIPJSIP_E@ 0044e914     pjsip-core-i386-win32-vc14-release:sip_errno.obj
 0002:00003944       ??_C@_0DP@NGPGIDFF@Invalid?1unsupported?5digest?5algo@ 0044e944     pjsip-core-i386-win32-vc14-release:sip_errno.obj
 0002:00003984       ??_C@_0DD@GJOGBLMF@Invalid?1unsupported?5digest?5qop?5@ 0044e984     pjsip-core-i386-win32-vc14-release:sip_errno.obj
 0002:000039b8       ??_C@_0DN@GPEKONDD@Unsupported?5authentication?5sche@ 0044e9b8     pjsip-core-i386-win32-vc14-release:sip_errno.obj
 0002:000039f8       ??_C@_0CO@BMGFFPME@No?5previous?5challenge?5?$CIPJSIP_EA@ 0044e9f8     pjsip-core-i386-win32-vc14-release:sip_errno.obj
 0002:00003a28       ??_C@_0DF@DNNICPPN@No?5suitable?5authorization?5heade@ 0044ea28     pjsip-core-i386-win32-vc14-release:sip_errno.obj
 0002:00003a60       ??_C@_0DJ@LPEDCKOO@Account?5or?5credential?5not?5found@ 0044ea60     pjsip-core-i386-win32-vc14-release:sip_errno.obj
 0002:00003a9c       ??_C@_0DL@CMLHLLPG@Account?5or?5credential?5is?5disabl@ 0044ea9c     pjsip-core-i386-win32-vc14-release:sip_errno.obj
 0002:00003ad8       ??_C@_0DG@HIIKPIBJ@Invalid?5authorization?5realm?5?$CIPJ@ 0044ead8     pjsip-core-i386-win32-vc14-release:sip_errno.obj
 0002:00003b10       ??_C@_0DI@MHHCMF@Invalid?5authorization?5digest?5?$CIP@ 0044eb10     pjsip-core-i386-win32-vc14-release:sip_errno.obj
 0002:00003b48       ??_C@_0EB@JCHOOAEG@Maximum?5number?5of?5stale?5retries@ 0044eb48     pjsip-core-i386-win32-vc14-release:sip_errno.obj
 0002:00003b90       ??_C@_0EF@LIONEPAL@Invalid?5nonce?5value?5in?5authenti@ 0044eb90     pjsip-core-i386-win32-vc14-release:sip_errno.obj
 0002:00003bd8       ??_C@_0CO@PNJFNJKN@Invalid?5AKA?5credential?5?$CIPJSIP_E@ 0044ebd8     pjsip-core-i386-win32-vc14-release:sip_errno.obj
 0002:00003c08       ??_C@_0CK@IIJPHHCN@No?5challenge?5is?5found?5?$CIPJSIP_EA@ 0044ec08     pjsip-core-i386-win32-vc14-release:sip_errno.obj
 0002:00003c34       ??_C@_0DC@HLPJEBKI@Missing?5From?1To?5tag?5parameter?5?$CI@ 0044ec34     pjsip-core-i386-win32-vc14-release:sip_errno.obj
 0002:00003c68       ??_C@_0CK@NLEHMEII@Expecting?5REFER?5request?5?$CIPJSIP_@ 0044ec68     pjsip-core-i386-win32-vc14-release:sip_errno.obj
 0002:00003c94       ??_C@_0DP@GMKFENNH@Not?5associated?5with?5REFER?5subsc@ 0044ec94     pjsip-core-i386-win32-vc14-release:sip_errno.obj
 0002:00003cd4       ??_C@_0DN@EOKOKJCK@INVITE?5session?5already?5terminat@ 0044ecd4     pjsip-core-i386-win32-vc14-release:sip_errno.obj
 0002:00003d14       ??_C@_0DD@DMBFAKPC@Invalid?5INVITE?5session?5state?5?$CIP@ 0044ed14     pjsip-core-i386-win32-vc14-release:sip_errno.obj
 0002:00003d48       ??_C@_0DK@CJAGEDOD@Require?5secure?5session?1transpor@ 0044ed48     pjsip-core-i386-win32-vc14-release:sip_errno.obj
 0002:00003d84       ??_C@_0CH@HBADBAEP@Unknown?5TLS?5error?5?$CIPJSIP_TLS_EU@ 0044ed84     pjsip-core-i386-win32-vc14-release:sip_errno.obj
 0002:00003dac       ??_C@_0DD@NFLPGFPJ@Invalid?5SSL?5protocol?5method?5?$CIPJ@ 0044edac     pjsip-core-i386-win32-vc14-release:sip_errno.obj
 0002:00003de0       ??_C@_0DN@LHDHPIOK@Error?5loading?1verifying?5SSL?5CA?5@ 0044ede0     pjsip-core-i386-win32-vc14-release:sip_errno.obj
 0002:00003e20       ??_C@_0DP@NPMNFNID@Error?5loading?5SSL?5certificate?5c@ 0044ee20     pjsip-core-i386-win32-vc14-release:sip_errno.obj
 0002:00003e60       ??_C@_0EI@PNDINLEB@Error?5adding?5private?5key?5from?5S@ 0044ee60     pjsip-core-i386-win32-vc14-release:sip_errno.obj
 0002:00003ea8       ??_C@_0DC@HMDIEPNK@Error?5setting?5SSL?5cipher?5list?5?$CI@ 0044eea8     pjsip-core-i386-win32-vc14-release:sip_errno.obj
 0002:00003edc       ??_C@_0CM@KJHKFFIL@Error?5creating?5SSL?5context?5?$CIPJS@ 0044eedc     pjsip-core-i386-win32-vc14-release:sip_errno.obj
 0002:00003f08       ??_C@_0DK@GBGOJKMK@Error?5creating?5SSL?5connection?5o@ 0044ef08     pjsip-core-i386-win32-vc14-release:sip_errno.obj
 0002:00003f48       ??_C@_0EB@LOJLDGBN@Unknown?5error?5when?5performing?5S@ 0044ef48     pjsip-core-i386-win32-vc14-release:sip_errno.obj
 0002:00003f8c       ??_C@_0DP@CGFDGHCM@Unknown?5error?5when?5performing?5S@ 0044ef8c     pjsip-core-i386-win32-vc14-release:sip_errno.obj
 0002:00003fcc       ??_C@_0DG@LGELLHGA@Unknown?5error?5when?5sending?5SSL?5@ 0044efcc     pjsip-core-i386-win32-vc14-release:sip_errno.obj
 0002:00004004       ??_C@_0DG@GNCBAFL@Unknown?5error?5when?5reading?5SSL?5@ 0044f004     pjsip-core-i386-win32-vc14-release:sip_errno.obj
 0002:0000403c       ??_C@_0DE@NMMHGAJD@SSL?5negotiation?5has?5timed?5out?5?$CI@ 0044f03c     pjsip-core-i386-win32-vc14-release:sip_errno.obj
 0002:00004070       ??_C@_0DK@PDMPPIHB@SSL?5certificate?5verification?5er@ 0044f070     pjsip-core-i386-win32-vc14-release:sip_errno.obj
 0002:000040ac       ??_C@_0BH@IINGFMKF@Unknown?5pjsip?5error?5?$CFd@ 0044f0ac     pjsip-core-i386-win32-vc14-release:sip_errno.obj
 0002:000040c4       ??_C@_04NBIELBDC@isub@     0044f0c4     pjsip-core-i386-win32-vc14-release:sip_tel_uri.obj
 0002:000040cc       ??_C@_03MDPCKCMI@ext@      0044f0cc     pjsip-core-i386-win32-vc14-release:sip_tel_uri.obj
 0002:000040d0       ??_C@_0O@IMLAOJJD@phone?9context@ 0044f0d0     pjsip-core-i386-win32-vc14-release:sip_tel_uri.obj
 0002:000040e0       ??_C@_05OGMJFBEO@?$DLext?$DN@ 0044f0e0     pjsip-core-i386-win32-vc14-release:sip_tel_uri.obj
 0002:000040e8       ??_C@_06CECEBCPK@?$DLisub?$DN@ 0044f0e8     pjsip-core-i386-win32-vc14-release:sip_tel_uri.obj
 0002:000040f0       ??_C@_0BA@JDMJBMEF@?$DLphone?9context?$DN@ 0044f0f0     pjsip-core-i386-win32-vc14-release:sip_tel_uri.obj
 0002:00004100       ??_C@_0P@KBNHNABO@0123456789?9?4?$CI?$CJ@ 0044f100     pjsip-core-i386-win32-vc14-release:sip_tel_uri.obj
 0002:00004110       ??_C@_0CM@MMELMJHM@0123456789aAbBcCdDeEfF?$CK?$CD?9?4?$CI?$CJ?$CL01@ 0044f110     pjsip-core-i386-win32-vc14-release:sip_tel_uri.obj
 0002:0000413c       ??_C@_04DCHJLDOJ@?9?4?$CI?$CJ@ 0044f13c     pjsip-core-i386-win32-vc14-release:sip_tel_uri.obj
 0002:00004144       ??_C@_0BA@NHFLMIGM@?$CL0123456789?9?4?$CI?$CJ@ 0044f144     pjsip-core-i386-win32-vc14-release:sip_tel_uri.obj
 0002:00004154       ??_C@_0BP@LJHGJILO@?1?3?$EA?$CG$?0?$CL0123456789?9_?4?$CB?$HO?$CK?8?$CI?$CJ?$CF?$FL?$FN?$CL@ 0044f154     pjsip-core-i386-win32-vc14-release:sip_tel_uri.obj
 0002:00004174       ??_C@_01JOAMLHOP@?9@       0044f174     pjsip-core-i386-win32-vc14-release:sip_tel_uri.obj
 0002:00004178       ??_C@_0BM@IILGPONN@?$FL?$FN?1?3?$CG?$CL$0123456789?9_?4?$CB?$HO?$CK?8?$CI?$CJ?$CF@ 0044f178     pjsip-core-i386-win32-vc14-release:sip_tel_uri.obj
 0002:00004194       ??_C@_01NEMOKFLO@?$DN@     0044f194     pjsip-core-i386-win32-vc14-release:sip_tel_uri.obj
 0002:00004198       ??_C@_0BC@OBBFELDN@mod?9stateful?9util@ 0044f198     pjsip-core-i386-win32-vc14-release:sip_util_statefull.obj
 0002:000041ac       ??_C@_09FNNDBHOE@username?$DN@ 0044f1ac     pjsip-core-i386-win32-vc14-release:sip_auth_msg.obj
 0002:000041b8       ??_C@_08FIMOKBNA@?0?5realm?$DN@ 0044f1b8     pjsip-core-i386-win32-vc14-release:sip_auth_msg.obj
 0002:000041c4       ??_C@_08INALKCDD@?0?5nonce?$DN@ 0044f1c4     pjsip-core-i386-win32-vc14-release:sip_auth_msg.obj
 0002:000041d0       ??_C@_06LAMIMJOG@?0?5uri?$DN@ 0044f1d0     pjsip-core-i386-win32-vc14-release:sip_auth_msg.obj
 0002:000041d8       ??_C@_0M@LHKMMNIM@?0?5response?$DN@ 0044f1d8     pjsip-core-i386-win32-vc14-release:sip_auth_msg.obj
 0002:000041e4       ??_C@_0N@CGBNHFEJ@?0?5algorithm?$DN@ 0044f1e4     pjsip-core-i386-win32-vc14-release:sip_auth_msg.obj
 0002:000041f4       ??_C@_09JMMPALKP@?0?5cnonce?$DN@ 0044f1f4     pjsip-core-i386-win32-vc14-release:sip_auth_msg.obj
 0002:00004200       ??_C@_09FBEJJABD@?0?5opaque?$DN@ 0044f200     pjsip-core-i386-win32-vc14-release:sip_auth_msg.obj
 0002:0000420c       ??_C@_06PEMMHIJL@?0?5qop?$DN@ 0044f20c     pjsip-core-i386-win32-vc14-release:sip_auth_msg.obj
 0002:00004214       ??_C@_05EBCAJOC@?0?5nc?$DN@ 0044f214     pjsip-core-i386-win32-vc14-release:sip_auth_msg.obj
 0002:0000421c       ??_C@_06EJKNIGMP@token?$DN@ 0044f21c     pjsip-core-i386-win32-vc14-release:sip_auth_msg.obj
 0002:00004224       ??_C@_0M@FOCLKAFD@?0?5username?$DN@ 0044f224     pjsip-core-i386-win32-vc14-release:sip_auth_msg.obj
 0002:00004230       ??_C@_03NHCDCECM@pgp@      0044f230     pjsip-core-i386-win32-vc14-release:sip_auth_msg.obj
 0002:00004234       ??_C@_06LOBIHJOB@realm?$DN@ 0044f234     pjsip-core-i386-win32-vc14-release:sip_auth_msg.obj
 0002:0000423c       ??_C@_08CKNLFMMP@?0domain?$DN@ 0044f23c     pjsip-core-i386-win32-vc14-release:sip_auth_msg.obj
 0002:00004248       ??_C@_07DNEKANAM@?0nonce?$DN@ 0044f248     pjsip-core-i386-win32-vc14-release:sip_auth_msg.obj
 0002:00004250       ??_C@_08OHJPPMIB@?0opaque?$DN@ 0044f250     pjsip-core-i386-win32-vc14-release:sip_auth_msg.obj
 0002:0000425c       ??_C@_04LOAJBDKD@true@     0044f25c     pjsip-core-i386-win32-vc14-release:sip_auth_msg.obj
 0002:00004264       ??_C@_07IIGBIFNN@?0stale?$DN@ 0044f264     pjsip-core-i386-win32-vc14-release:sip_auth_msg.obj
 0002:0000426c       ??_C@_0M@HOHCEKCL@?0algorithm?$DN@ 0044f26c     pjsip-core-i386-win32-vc14-release:sip_auth_msg.obj
 0002:00004278       ??_C@_05KHLNJFNF@?0qop?$DN@ 0044f278     pjsip-core-i386-win32-vc14-release:sip_auth_msg.obj
 0002:00004280       _pjsip_USERNAME_STR        0044f280     pjsip-core-i386-win32-vc14-release:sip_auth_parser.obj
 0002:00004288       _pjsip_REALM_STR           0044f288     pjsip-core-i386-win32-vc14-release:sip_auth_parser.obj
 0002:00004290       _pjsip_NONCE_STR           0044f290     pjsip-core-i386-win32-vc14-release:sip_auth_parser.obj
 0002:00004298       _pjsip_URI_STR             0044f298     pjsip-core-i386-win32-vc14-release:sip_auth_parser.obj
 0002:000042a0       _pjsip_RESPONSE_STR        0044f2a0     pjsip-core-i386-win32-vc14-release:sip_auth_parser.obj
 0002:000042a8       _pjsip_ALGORITHM_STR       0044f2a8     pjsip-core-i386-win32-vc14-release:sip_auth_parser.obj
 0002:000042b0       _pjsip_DOMAIN_STR          0044f2b0     pjsip-core-i386-win32-vc14-release:sip_auth_parser.obj
 0002:000042b8       _pjsip_STALE_STR           0044f2b8     pjsip-core-i386-win32-vc14-release:sip_auth_parser.obj
 0002:000042c0       _pjsip_QOP_STR             0044f2c0     pjsip-core-i386-win32-vc14-release:sip_auth_parser.obj
 0002:000042c8       _pjsip_CNONCE_STR          0044f2c8     pjsip-core-i386-win32-vc14-release:sip_auth_parser.obj
 0002:000042d0       _pjsip_OPAQUE_STR          0044f2d0     pjsip-core-i386-win32-vc14-release:sip_auth_parser.obj
 0002:000042d8       _pjsip_NC_STR              0044f2d8     pjsip-core-i386-win32-vc14-release:sip_auth_parser.obj
 0002:000042e0       _pjsip_TRUE_STR            0044f2e0     pjsip-core-i386-win32-vc14-release:sip_auth_parser.obj
 0002:000042e8       _pjsip_FALSE_STR           0044f2e8     pjsip-core-i386-win32-vc14-release:sip_auth_parser.obj
 0002:000042f0       _pjsip_DIGEST_STR          0044f2f0     pjsip-core-i386-win32-vc14-release:sip_auth_parser.obj
 0002:000042f8       _pjsip_PGP_STR             0044f2f8     pjsip-core-i386-win32-vc14-release:sip_auth_parser.obj
 0002:00004300       _pjsip_BEARER_STR          0044f300     pjsip-core-i386-win32-vc14-release:sip_auth_parser.obj
 0002:00004308       _pjsip_MD5_STR             0044f308     pjsip-core-i386-win32-vc14-release:sip_auth_parser.obj
 0002:00004310       _pjsip_AUTH_STR            0044f310     pjsip-core-i386-win32-vc14-release:sip_auth_parser.obj
 0002:00004318       _pjsip_QUOTED_TRUE_STR     0044f318     pjsip-core-i386-win32-vc14-release:sip_auth_parser.obj
 0002:00004320       _pjsip_QUOTED_FALSE_STR    0044f320     pjsip-core-i386-win32-vc14-release:sip_auth_parser.obj
 0002:00004328       _pjsip_QUOTED_DIGEST_STR   0044f328     pjsip-core-i386-win32-vc14-release:sip_auth_parser.obj
 0002:00004330       _pjsip_QUOTED_PGP_STR      0044f330     pjsip-core-i386-win32-vc14-release:sip_auth_parser.obj
 0002:00004338       _pjsip_QUOTED_MD5_STR      0044f338     pjsip-core-i386-win32-vc14-release:sip_auth_parser.obj
 0002:00004340       _pjsip_QUOTED_AUTH_STR     0044f340     pjsip-core-i386-win32-vc14-release:sip_auth_parser.obj
 0002:00004348       ??_C@_08ODGEKKOL@username@ 0044f348     pjsip-core-i386-win32-vc14-release:sip_auth_parser.obj
 0002:00004354       ??_C@_05ELABLNGD@realm@    0044f354     pjsip-core-i386-win32-vc14-release:sip_auth_parser.obj
 0002:0000435c       ??_C@_05OOEDLKEB@nonce@    0044f35c     pjsip-core-i386-win32-vc14-release:sip_auth_parser.obj
 0002:00004364       ??_C@_03GBBABMJN@uri@      0044f364     pjsip-core-i386-win32-vc14-release:sip_auth_parser.obj
 0002:00004368       ??_C@_08HKMEAON@response@  0044f368     pjsip-core-i386-win32-vc14-release:sip_auth_parser.obj
 0002:00004374       ??_C@_09JPNFBOJG@algorithm@ 0044f374     pjsip-core-i386-win32-vc14-release:sip_auth_parser.obj
 0002:00004380       ??_C@_06LKIIGAOE@domain@   0044f380     pjsip-core-i386-win32-vc14-release:sip_auth_parser.obj
 0002:00004388       ??_C@_05BFAEFKPM@stale@    0044f388     pjsip-core-i386-win32-vc14-release:sip_auth_parser.obj
 0002:00004390       ??_C@_03GBIMBCPB@qop@      0044f390     pjsip-core-i386-win32-vc14-release:sip_auth_parser.obj
 0002:00004394       ??_C@_06HILDJCOE@cnonce@   0044f394     pjsip-core-i386-win32-vc14-release:sip_auth_parser.obj
 0002:0000439c       ??_C@_06CJCOLNBB@opaque@   0044f39c     pjsip-core-i386-win32-vc14-release:sip_auth_parser.obj
 0002:000043a4       ??_C@_02MCHPIKD@nc@        0044f3a4     pjsip-core-i386-win32-vc14-release:sip_auth_parser.obj
 0002:000043a8       ??_C@_06JMFPOLAJ@?$CCtrue?$CC@ 0044f3a8     pjsip-core-i386-win32-vc14-release:sip_auth_parser.obj
 0002:000043b0       ??_C@_05LAPONLG@false@     0044f3b0     pjsip-core-i386-win32-vc14-release:sip_auth_parser.obj
 0002:000043b8       ??_C@_07MGKGDKEI@?$CCfalse?$CC@ 0044f3b8     pjsip-core-i386-win32-vc14-release:sip_auth_parser.obj
 0002:000043c0       ??_C@_06MHCCOJOO@Digest@   0044f3c0     pjsip-core-i386-win32-vc14-release:sip_auth_parser.obj
 0002:000043c8       ??_C@_08MPOLMKFE@?$CCDigest?$CC@ 0044f3c8     pjsip-core-i386-win32-vc14-release:sip_auth_parser.obj
 0002:000043d4       ??_C@_03NKNIOJFA@PGP@      0044f3d4     pjsip-core-i386-win32-vc14-release:sip_auth_parser.obj
 0002:000043d8       ??_C@_05PBIHDNLO@?$CCPGP?$CC@ 0044f3d8     pjsip-core-i386-win32-vc14-release:sip_auth_parser.obj
 0002:000043e0       ??_C@_06NPEPPOGN@Bearer@   0044f3e0     pjsip-core-i386-win32-vc14-release:sip_auth_parser.obj
 0002:000043e8       ??_C@_03PKBIKOHH@md5@      0044f3e8     pjsip-core-i386-win32-vc14-release:sip_auth_parser.obj
 0002:000043ec       ??_C@_05FEKNEIJC@?$CCmd5?$CC@ 0044f3ec     pjsip-core-i386-win32-vc14-release:sip_auth_parser.obj
 0002:000043f4       ??_C@_04DPLCCHJC@auth@     0044f3f4     pjsip-core-i386-win32-vc14-release:sip_auth_parser.obj
 0002:000043fc       ??_C@_06MNAAFAAH@?$CCauth?$CC@ 0044f3fc     pjsip-core-i386-win32-vc14-release:sip_auth_parser.obj
 0002:00004468       ??_C@_0DC@MHBBCDGM@Unspecified?5audio?5device?5error?5@ 0044f468     pjmedia-audiodev-i386-win32-vc14-release:errno.obj
 0002:0000449c       ??_C@_0DG@FEDKLOFB@Unknown?5error?5from?5audio?5driver@ 0044f49c     pjmedia-audiodev-i386-win32-vc14-release:errno.obj
 0002:000044d4       ??_C@_0DE@DOHCBKFK@Audio?5subsystem?5not?5initialized@ 0044f4d4     pjmedia-audiodev-i386-win32-vc14-release:errno.obj
 0002:00004508       ??_C@_0CL@NCBJPCNF@Invalid?5audio?5device?5?$CIPJMEDIA_E@ 0044f508     pjmedia-audiodev-i386-win32-vc14-release:errno.obj
 0002:00004534       ??_C@_0CM@LOPLLMHO@Found?5no?5audio?5devices?5?$CIPJMEDIA@ 0044f534     pjmedia-audiodev-i386-win32-vc14-release:errno.obj
 0002:00004560       ??_C@_0DM@DPDKGMIE@Unable?5to?5find?5default?5audio?5de@ 0044f560     pjmedia-audiodev-i386-win32-vc14-release:errno.obj
 0002:0000459c       ??_C@_0CP@JIPJOIMB@Audio?5device?5not?5ready?5?$CIPJMEDIA@ 0044f59c     pjmedia-audiodev-i386-win32-vc14-release:errno.obj
 0002:000045cc       ??_C@_0DO@NMIGLFFA@Invalid?5or?5unsupported?5audio?5ca@ 0044f5cc     pjmedia-audiodev-i386-win32-vc14-release:errno.obj
 0002:00004610       ??_C@_0ED@PLJALPOA@Invalid?5or?5unsupported?5audio?5de@ 0044f610     pjmedia-audiodev-i386-win32-vc14-release:errno.obj
 0002:00004654       ??_C@_0DM@JKDJGBNG@Bad?5or?5invalid?5audio?5device?5for@ 0044f654     pjmedia-audiodev-i386-win32-vc14-release:errno.obj
 0002:00004690       ??_C@_0DN@BLAJILEA@Invalid?5audio?5device?5sample?5for@ 0044f690     pjmedia-audiodev-i386-win32-vc14-release:errno.obj
 0002:000046d0       ??_C@_0DE@LJJGJIEF@Bad?5audio?5latency?5setting?5?$CIPJME@ 0044f6d0     pjmedia-audiodev-i386-win32-vc14-release:errno.obj
 0002:00004704       ??_C@_0BJ@GMHLEOAL@MMSYSTEM?5native?5error?5?$CFd@ 0044f704     pjmedia-audiodev-i386-win32-vc14-release:errno.obj
 0002:00004720       ??_C@_0CC@MFOJNIAN@Unknown?5pjmedia?9audiodev?5error?5@ 0044f720     pjmedia-audiodev-i386-win32-vc14-release:errno.obj
 0002:00004744       ??_C@_0M@KBHHDDLP@Wave?5mapper@ 0044f744     pjmedia-audiodev-i386-win32-vc14-release:wmme_dev.obj
 0002:00004750       ??_C@_04CPNMDOAK@WMME@     0044f750     pjmedia-audiodev-i386-win32-vc14-release:wmme_dev.obj
 0002:00004758       ??_C@_0BB@EOKKHGLD@WMME?5initialized@ 0044f758     pjmedia-audiodev-i386-win32-vc14-release:wmme_dev.obj
 0002:0000476c       ??_C@_0L@HHCCMOGO@wmme_dev?4c@ 0044f76c     pjmedia-audiodev-i386-win32-vc14-release:wmme_dev.obj
 0002:00004778       ??_C@_0BM@OMJMEAMB@WMME?5found?5no?5sound?5devices@ 0044f778     pjmedia-audiodev-i386-win32-vc14-release:wmme_dev.obj
 0002:00004794       ??_C@_11LOCGONAA@@         0044f794     pjmedia-audiodev-i386-win32-vc14-release:wmme_dev.obj
 0002:00004798       ??_C@_0BH@GEMAAOCL@WMME?5found?5?$CFd?5devices?3@ 0044f798     pjmedia-audiodev-i386-win32-vc14-release:wmme_dev.obj
 0002:000047b0       ??_C@_0CA@NLJGEGOG@?5dev_id?5?$CFd?3?5?$CFs?5?5?$CIin?$DN?$CFd?0?5out?$DN?$CFd?$CJ@ 0044f7b0     pjmedia-audiodev-i386-win32-vc14-release:wmme_dev.obj
 0002:000047d0       ??_C@_03CCLNCNJA@PCM@      0044f7d0     pjmedia-audiodev-i386-win32-vc14-release:wmme_dev.obj
 0002:000047d8       ??_C@_0HB@MKIBCFPJ@?5WaveAPI?5Sound?5player?5?$CC?$CFs?$CC?5init@ 0044f7d8     pjmedia-audiodev-i386-win32-vc14-release:wmme_dev.obj
 0002:00004850       ??_C@_0HD@PIICIPL@?5WaveAPI?5Sound?5recorder?5?$CC?$CFs?$CC?5in@ 0044f850     pjmedia-audiodev-i386-win32-vc14-release:wmme_dev.obj
 0002:000048c4       ??_C@_0CJ@BMOAEONK@Failed?5to?5write?5audio?5frame?5for@ 0044f8c4     pjmedia-audiodev-i386-win32-vc14-release:wmme_dev.obj
 0002:000048f0       ??_C@_0BP@EAOBDJJO@Failed?5to?5add?5recording?5buffer@ 0044f8f0     pjmedia-audiodev-i386-win32-vc14-release:wmme_dev.obj
 0002:00004910       ??_C@_0BI@BEJPJEBJ@WMME?3?5thread?5stopping?4?4@ 0044f910     pjmedia-audiodev-i386-win32-vc14-release:wmme_dev.obj
 0002:00004928       ??_C@_0CB@JKFANBEJ@WMME?5thread?5stopped?5due?5to?5erro@ 0044f928     pjmedia-audiodev-i386-win32-vc14-release:wmme_dev.obj
 0002:0000494c       ??_C@_08MOOOBPLB@wmme?9dev@ 0044f94c     pjmedia-audiodev-i386-win32-vc14-release:wmme_dev.obj
 0002:00004958       ??_C@_04ODOGNMHC@wmme@     0044f958     pjmedia-audiodev-i386-win32-vc14-release:wmme_dev.obj
 0002:00004960       ??_C@_0BN@MNACKNIN@WMME?5playback?5stream?5started@ 0044f960     pjmedia-audiodev-i386-win32-vc14-release:wmme_dev.obj
 0002:00004980       ??_C@_0BM@NKDLICNM@WMME?5capture?5stream?5started@ 0044f980     pjmedia-audiodev-i386-win32-vc14-release:wmme_dev.obj
 0002:0000499c       ??_C@_0BN@FMJNHCPG@Stopped?5WMME?5playback?5stream@ 0044f99c     pjmedia-audiodev-i386-win32-vc14-release:wmme_dev.obj
 0002:000049bc       ??_C@_0BM@KCHDOGNE@Stopped?5WMME?5capture?5stream@ 0044f9bc     pjmedia-audiodev-i386-win32-vc14-release:wmme_dev.obj
 0002:000049d8       ??_C@_09OFDCJLJM@WMME?5base@ 0044f9d8     pjmedia-audiodev-i386-win32-vc14-release:wmme_dev.obj
 0002:000049e4       ??_C@_0BC@KMLOGCBL@?$CB?$CD$?$CF?$CG?8?$CK?$CL?9?4?$FO_?$GA?$HL?$HM?$HN?$HO@ 0044f9e4     pjmedia-i386-win32-vc14-release:sdp.obj
 0002:000049f8       ??_C@_06NPGDLJKE@rtpmap@   0044f9f8     pjmedia-i386-win32-vc14-release:sdp.obj
 0002:00004a00       ??_C@_04JKCEBMKL@fmtp@     0044fa00     pjmedia-i386-win32-vc14-release:sdp.obj
 0002:00004a08       ??_C@_04DLDMIAAJ@rtcp@     0044fa08     pjmedia-i386-win32-vc14-release:sdp.obj
 0002:00004a10       ??_C@_05PGDJPCOI@?1?5?7?$AN?6@ 0044fa10     pjmedia-i386-win32-vc14-release:sdp.obj
 0002:00004a18       ??_C@_0N@PKDMIJBK@?$CFu?5IN?5IP4?5?$CFs@ 0044fa18     pjmedia-i386-win32-vc14-release:sdp.obj
 0002:00004a28       ??_C@_0N@IAPMNKHK@?$CFu?5IN?5IP6?5?$CFs@ 0044fa28     pjmedia-i386-win32-vc14-release:sdp.obj
 0002:00004a38       ??_C@_04OHIABJNF@ssrc@     0044fa38     pjmedia-i386-win32-vc14-release:sdp.obj
 0002:00004a40       ??_C@_05DNEALNHD@cname@    0044fa40     pjmedia-i386-win32-vc14-release:sdp.obj
 0002:00004a48       ??_C@_01KMDKNFGN@?1@       0044fa48     pjmedia-i386-win32-vc14-release:sdp.obj
 0002:00004a4c       ??_C@_0BD@HEFIBNKB@?$CF?4?$CKs?5?$CF?4?$CKs?1?$CFu?$CFs?$CF?4?$CKs@ 0044fa4c     pjmedia-i386-win32-vc14-release:sdp.obj
 0002:00004a60       ??_C@_0BD@NGNJPLJA@c?$DN?$CF?4?$CKs?5?$CF?4?$CKs?5?$CF?4?$CKs?$AN?6@ 0044fa60     pjmedia-i386-win32-vc14-release:sdp.obj
 0002:00004a74       ??_C@_05MIOLEPMP@v?$DN0?$AN?6@ 0044fa74     pjmedia-i386-win32-vc14-release:sdp.obj
 0002:00004a7c       ??_C@_04HHCDBDLF@?5?7?$AN?6@ 0044fa7c     pjmedia-i386-win32-vc14-release:sdp.obj
 0002:00004a84       ??_C@_0DG@FMMLOIKL@Error?5adding?5SDP?5media?5format?5?$CF@ 0044fa84     pjmedia-i386-win32-vc14-release:sdp.obj
 0002:00004abc       ??_C@_05LIAFADKM@sdp?4c@   0044fabc     pjmedia-i386-win32-vc14-release:sdp.obj
 0002:00004ac4       ??_C@_08INHMCBAE@inactive@ 0044fac4     pjmedia-i386-win32-vc14-release:sdp.obj
 0002:00004ad0       ??_C@_08HPJEFADN@sendonly@ 0044fad0     pjmedia-i386-win32-vc14-release:sdp.obj
 0002:00004adc       ??_C@_08EHCGIGCO@recvonly@ 0044fadc     pjmedia-i386-win32-vc14-release:sdp.obj
 0002:00004ae8       ??_C@_08LMCBNPPN@sendrecv@ 0044fae8     pjmedia-i386-win32-vc14-release:sdp.obj
 0002:00004af4       ??_C@_0DD@EJNOLNM@Error?5adding?5media?5attribute?0?5a@ 0044faf4     pjmedia-i386-win32-vc14-release:sdp.obj
 0002:00004b28       ??_C@_0DF@GDECOCN@Error?5adding?5session?5attribute?0@ 0044fb28     pjmedia-i386-win32-vc14-release:sdp.obj
 0002:00004b60       ??_C@_0CF@NCOGEPJF@Error?5adding?5media?0?5media?5is?5ig@ 0044fb60     pjmedia-i386-win32-vc14-release:sdp.obj
 0002:00004b88       ??_C@_0DD@FDBIEIFP@Error?5adding?5media?5bandwidth?5in@ 0044fb88     pjmedia-i386-win32-vc14-release:sdp.obj
 0002:00004bbc       ??_C@_0DF@FBLBINKO@Error?5adding?5session?5bandwidth?5@ 0044fbbc     pjmedia-i386-win32-vc14-release:sdp.obj
 0002:00004bf4       ??_C@_0CE@BFJMCBLI@Error?5parsing?5SDP?5in?5line?5?$CFd?5co@ 0044fbf4     pjmedia-i386-win32-vc14-release:sdp.obj
 0002:00004c18       ??_C@_02BBAPPCCJ@IN@       0044fc18     pjmedia-i386-win32-vc14-release:sdp.obj
 0002:00004c1c       ??_C@_03OPDBOKBD@IP4@      0044fc1c     pjmedia-i386-win32-vc14-release:sdp.obj
 0002:00004c20       ??_C@_03NNAHIIJB@IP6@      0044fc20     pjmedia-i386-win32-vc14-release:sdp.obj
 0002:00004c24       ??_C@_03GOLBDMPC@RTP@      0044fc24     pjmedia-i386-win32-vc14-release:sdp.obj
 0002:00004c28       ??_C@_03CPJJBAON@AVP@      0044fc28     pjmedia-i386-win32-vc14-release:sdp.obj
 0002:00004c2c       ??_C@_04LHEMINPH@SAVP@     0044fc2c     pjmedia-i386-win32-vc14-release:sdp.obj
 0002:00004c34       ??_C@_04HILHOPFG@AVPF@     0044fc34     pjmedia-i386-win32-vc14-release:sdp.obj
 0002:00004c3c       ??_C@_05IFENMDLB@SAVPF@    0044fc3c     pjmedia-i386-win32-vc14-release:sdp.obj
 0002:00004c44       ??_C@_0N@IFKNLCBO@TLS?1RTP?1SAVP@ 0044fc44     pjmedia-i386-win32-vc14-release:sdp.obj
 0002:00004c54       ??_C@_0O@FMKJHIFC@TLS?1RTP?1SAVPF@ 0044fc54     pjmedia-i386-win32-vc14-release:sdp.obj
 0002:00004c94       ??_C@_07OEHJJJKF@RTP?1AVP@ 0044fc94     pjmedia-i386-win32-vc14-release:endpoint.obj
 0002:00004c9c       ??_C@_07HDFHIMAJ@pjmedia@  0044fc9c     pjmedia-i386-win32-vc14-release:endpoint.obj
 0002:00004ca4       ??_C@_07LBNDIDNE@med?9ept@ 0044fca4     pjmedia-i386-win32-vc14-release:endpoint.obj
 0002:00004cb0       ??_C@_0EL@BIFHLACC@Warning?3?5no?5worker?5thread?5is?5cr@ 0044fcb0     pjmedia-i386-win32-vc14-release:endpoint.obj
 0002:00004cfc       ??_C@_0L@DLFDMOGF@endpoint?4c@ 0044fcfc     pjmedia-i386-win32-vc14-release:endpoint.obj
 0002:00004d08       ??_C@_05CECBHAPI@media@    0044fd08     pjmedia-i386-win32-vc14-release:endpoint.obj
 0002:00004d10       ??_C@_05KNIAAKIP@audio@    0044fd10     pjmedia-i386-win32-vc14-release:endpoint.obj
 0002:00004d18       ??_C@_02DPKJAMEF@?$CFd@    0044fd18     pjmedia-i386-win32-vc14-release:endpoint.obj
 0002:00004d1c       ??_C@_04DHOBIHHI@PCMU@     0044fd1c     pjmedia-i386-win32-vc14-release:g711.obj
 0002:00004d24       ??_C@_04BJEPFACN@PCMA@     0044fd24     pjmedia-i386-win32-vc14-release:g711.obj
 0002:00004d2c       ??_C@_04JMMHOLLC@g711@     0044fd2c     pjmedia-i386-win32-vc14-release:g711.obj
 0002:00004d34       ??_C@_04CEHLIMNH@g611@     0044fd34     pjmedia-i386-win32-vc14-release:g711.obj
 0002:00004d3c       ??_C@_0DL@OIPEDDCB@pjmedia_rtp_session_init?3?5ses?$DN?$CF@ 0044fd3c     pjmedia-i386-win32-vc14-release:rtp.obj
 0002:00004d78       ??_C@_05BDLJEHIL@rtp?4c@   0044fd78     pjmedia-i386-win32-vc14-release:rtp.obj
 0002:00004d80       ??_C@_06EAHJFANL@rtcp?4c@  0044fd80     pjmedia-i386-win32-vc14-release:rtcp.obj
 0002:00004d88       ??_C@_0CL@JHAJNKLA@RTT?5value?5?$CFd?5usec?5is?5normalized@ 0044fd88     pjmedia-i386-win32-vc14-release:rtcp.obj
 0002:00004db8       ??_C@_0FE@KPGOGEPL@Internal?5RTCP?5NTP?5clock?5skew?5de@ 0044fdb8     pjmedia-i386-win32-vc14-release:rtcp.obj
 0002:00004e0c       ??_C@_0DD@HBJGFOMH@Unsufficient?5buffer?5to?5save?5RTC@ 0044fe0c     pjmedia-i386-win32-vc14-release:rtcp.obj
 0002:00004e40       ??_C@_0CA@DILGMHIA@Received?5RTCP?5BYE?0?5reason?3?5?$CF?4?$CKs@ 0044fe40     pjmedia-i386-win32-vc14-release:rtcp.obj
 0002:00004e60       __real@3fe0000000000000    0044fe60     pjmedia-i386-win32-vc14-release:rtcp.obj
 0002:00004e68       __real@41efffffffe00000    0044fe68     pjmedia-i386-win32-vc14-release:rtcp.obj
 0002:00004e70       ??_C@_0L@IOJLEJF@STATE_NULL@ 0044fe70     pjmedia-i386-win32-vc14-release:sdp_neg.obj
 0002:00004e7c       ??_C@_0BC@LOEMBHAD@STATE_LOCAL_OFFER@ 0044fe7c     pjmedia-i386-win32-vc14-release:sdp_neg.obj
 0002:00004e90       ??_C@_0BD@EIDNGBFC@STATE_REMOTE_OFFER@ 0044fe90     pjmedia-i386-win32-vc14-release:sdp_neg.obj
 0002:00004ea4       ??_C@_0BA@GHLPEJJC@STATE_WAIT_NEGO@ 0044fea4     pjmedia-i386-win32-vc14-release:sdp_neg.obj
 0002:00004eb4       ??_C@_0L@KPLLHEOI@STATE_DONE@ 0044feb4     pjmedia-i386-win32-vc14-release:sdp_neg.obj
 0002:00004ec0       ??_C@_0M@GGDBIFHF@?$DM?$DPUNKNOWN?$DP?$DO@ 0044fec0     pjmedia-i386-win32-vc14-release:sdp_neg.obj
 0002:00004ecc       ??_C@_09PFCHIMEP@127?40?40?41@ 0044fecc     pjmedia-i386-win32-vc14-release:sdp_neg.obj
 0002:00004ed8       ??_C@_0BA@LLGGBELL@telephone?9event@ 0044fed8     pjmedia-i386-win32-vc14-release:sdp_neg.obj
 0002:00004f18       ??_C@_0BF@BDOEAPGC@sprop?9maxcapturerate@ 0044ff18     pjmedia-i386-win32-vc14-release:stream_info.obj
 0002:00004f30       ??_C@_0N@LGCDEDLG@sprop?9stereo@ 0044ff30     pjmedia-i386-win32-vc14-release:stream_info.obj
 0002:00004f40       ??_C@_0BA@PAFFCOOK@maxplaybackrate@ 0044ff40     pjmedia-i386-win32-vc14-release:stream_info.obj
 0002:00004f50       ??_C@_06BDDNELGJ@stereo@   0044ff50     pjmedia-i386-win32-vc14-release:stream_info.obj
 0002:00004f58       ??_C@_04BPKIMIGM@opus@     0044ff58     pjmedia-i386-win32-vc14-release:stream_info.obj
 0002:00004f60       ??_C@_05FHOGGKIK@ptime@    0044ff60     pjmedia-i386-win32-vc14-release:stream_info.obj
 0002:00004f68       ??_C@_08GOMHIHBN@maxptime@ 0044ff68     pjmedia-i386-win32-vc14-release:stream_info.obj
 0002:00004f74       ??_C@_09FMIECHHF@candidate@ 0044ff74     pjmedia-i386-win32-vc14-release:stream_info.obj
 0002:00004f80       ??_C@_08BLAEFJPP@rtcp?9mux@ 0044ff80     pjmedia-i386-win32-vc14-release:stream_info.obj
 0002:00004f94       ??_C@_0DD@JENKINAB@Failed?5to?5synthesize?5the?5correc@ 0044ff94     pjmedia-i386-win32-vc14-release:transport_udp.obj
 0002:00004fc8       ??_C@_0DE@NDEIKKGG@Failed?5to?5synthesize?5the?5correc@ 0044ffc8     pjmedia-i386-win32-vc14-release:transport_udp.obj
 0002:00004ffc       ??_C@_0DF@MINIEIGK@TX?5RTP?5packet?5dropped?5because?5o@ 0044fffc     pjmedia-i386-win32-vc14-release:transport_udp.obj
 0002:00005034       ??_C@_0DF@BFHKOPKN@RX?5RTP?5packet?5dropped?5because?5o@ 00450034     pjmedia-i386-win32-vc14-release:transport_udp.obj
 0002:0000506c       ??_C@_0CC@MIINFHKB@Remote?5RTP?5address?5switched?5to?5@ 0045006c     pjmedia-i386-win32-vc14-release:transport_udp.obj
 0002:00005090       ??_C@_0DF@CBHGCLPC@Remote?5RTCP?5address?5switched?5to@ 00450090     pjmedia-i386-win32-vc14-release:transport_udp.obj
 0002:000050c8       ??_C@_0CD@KDFPBNLA@Remote?5RTCP?5address?5switched?5to@ 004500c8     pjmedia-i386-win32-vc14-release:transport_udp.obj
 0002:000050ec       ??_C@_04PHAGGCHB@RTCP@     004500ec     pjmedia-i386-win32-vc14-release:transport_udp.obj
 0002:000050f4       ??_C@_0BI@KFOLLKOA@Restarting?5?$CFs?5transport@ 004500f4     pjmedia-i386-win32-vc14-release:transport_udp.obj
 0002:0000510c       ??_C@_0CA@CHIKLPAI@Success?5restarting?5?$CFs?5transport@ 0045010c     pjmedia-i386-win32-vc14-release:transport_udp.obj
 0002:0000512c       ??_C@_0BO@MEJMBPFP@Error?5restarting?5?$CFs?5transport@ 0045012c     pjmedia-i386-win32-vc14-release:transport_udp.obj
 0002:0000514c       ??_C@_07GBKCPIDJ@ext?9fmt@ 0045014c     pjmedia-i386-win32-vc14-release:audiodev.obj
 0002:00005154       ??_C@_0BI@GGHCECPI@Extended?1non?9PCM?5format@ 00450154     pjmedia-i386-win32-vc14-release:audiodev.obj
 0002:0000516c       ??_C@_0L@IKNMBADD@latency?9in@ 0045016c     pjmedia-i386-win32-vc14-release:audiodev.obj
 0002:00005178       ??_C@_0CC@LIGOHOJN@Input?5latency?1buffer?5size?5setti@ 00450178     pjmedia-i386-win32-vc14-release:audiodev.obj
 0002:0000519c       ??_C@_0M@MBBBBCLJ@latency?9out@ 0045019c     pjmedia-i386-win32-vc14-release:audiodev.obj
 0002:000051a8       ??_C@_0CD@GAINMBC@Output?5latency?1buffer?5size?5sett@ 004501a8     pjmedia-i386-win32-vc14-release:audiodev.obj
 0002:000051cc       ??_C@_06KGGLCDDG@vol?9in@  004501cc     pjmedia-i386-win32-vc14-release:audiodev.obj
 0002:000051d4       ??_C@_0BF@CCEKOJAN@Input?5volume?5setting@ 004501d4     pjmedia-i386-win32-vc14-release:audiodev.obj
 0002:000051ec       ??_C@_07LBFHFBAF@vol?9out@ 004501ec     pjmedia-i386-win32-vc14-release:audiodev.obj
 0002:000051f4       ??_C@_0BG@IBEHJHAD@Output?5volume?5setting@ 004501f4     pjmedia-i386-win32-vc14-release:audiodev.obj
 0002:0000520c       ??_C@_08BPNDLGG@meter?9in@ 0045020c     pjmedia-i386-win32-vc14-release:audiodev.obj
 0002:00005218       ??_C@_0M@NCGIGNPG@Input?5meter@ 00450218     pjmedia-i386-win32-vc14-release:audiodev.obj
 0002:00005224       ??_C@_09NKJLJGOJ@meter?9out@ 00450224     pjmedia-i386-win32-vc14-release:audiodev.obj
 0002:00005230       ??_C@_0N@GBEOEOEP@Output?5meter@ 00450230     pjmedia-i386-win32-vc14-release:audiodev.obj
 0002:00005240       ??_C@_08FPHJDLBG@route?9in@ 00450240     pjmedia-i386-win32-vc14-release:audiodev.obj
 0002:0000524c       ??_C@_0O@JDPFDDM@Input?5routing@ 0045024c     pjmedia-i386-win32-vc14-release:audiodev.obj
 0002:0000525c       ??_C@_09IKMAGDNF@route?9out@ 0045025c     pjmedia-i386-win32-vc14-release:audiodev.obj
 0002:00005268       ??_C@_0P@JOFPIEJJ@Output?5routing@ 00450268     pjmedia-i386-win32-vc14-release:audiodev.obj
 0002:00005278       ??_C@_03FNONIBCK@aec@      00450278     pjmedia-i386-win32-vc14-release:audiodev.obj
 0002:0000527c       ??_C@_0BM@HPDLGLFJ@Accoustic?5echo?5cancellation@ 0045027c     pjmedia-i386-win32-vc14-release:audiodev.obj
 0002:00005298       ??_C@_08MKAPJCJE@aec?9tail@ 00450298     pjmedia-i386-win32-vc14-release:audiodev.obj
 0002:000052a4       ??_C@_0BM@PBLLADJD@Tail?5length?5setting?5for?5AEC@ 004502a4     pjmedia-i386-win32-vc14-release:audiodev.obj
 0002:000052c0       ??_C@_03NIGLNABH@vad@      004502c0     pjmedia-i386-win32-vc14-release:audiodev.obj
 0002:000052c4       ??_C@_0BJ@PEELNNPF@Voice?5activity?5detection@ 004502c4     pjmedia-i386-win32-vc14-release:audiodev.obj
 0002:000052e0       ??_C@_03JPNNGDEE@cng@      004502e0     pjmedia-i386-win32-vc14-release:audiodev.obj
 0002:000052e4       ??_C@_0BJ@MNDOFJGN@Comfort?5noise?5generation@ 004502e4     pjmedia-i386-win32-vc14-release:audiodev.obj
 0002:00005300       ??_C@_03NOPFEPFL@plg@      00450300     pjmedia-i386-win32-vc14-release:audiodev.obj
 0002:00005304       ??_C@_0BI@OMEMKBHH@Packet?5loss?5concealment@ 00450304     pjmedia-i386-win32-vc14-release:audiodev.obj
 0002:00005320       ??_C@_0EF@NLCNMHAD@?$CFd?5device?$CIs?$CJ?5cannot?5be?5register@ 00450320     pjmedia-i386-win32-vc14-release:audiodev.obj
 0002:00005368       ??_C@_0L@FGHHAHLM@audiodev?4c@ 00450368     pjmedia-i386-win32-vc14-release:audiodev.obj
 0002:00005374       ??_C@_0DH@LLDEKPNG@Lost?5event?5?$CFs?5from?5publisher?5?$FL0@ 00450374     pjmedia-i386-win32-vc14-release:event.obj
 0002:000053ac       ??_C@_07GLALFINI@event?4c@ 004503ac     pjmedia-i386-win32-vc14-release:event.obj
 0002:000053b4       ??_C@_09GLMNEMC@codec?9mgr@ 004503b4     pjmedia-i386-win32-vc14-release:codec.obj
 0002:000053c0       ??_C@_0L@MMBOMEDE@?$CF?4?$CKs?1?$CFu?1?$CFu@ 004503c0     pjmedia-i386-win32-vc14-release:codec.obj
 0002:00005718       ??_C@_0CK@HBHLALIF@Unspecified?5PJMEDIA?5error?5?$CIPJME@ 00450718     pjmedia-i386-win32-vc14-release:errno.obj
 0002:00005744       ??_C@_0CM@KFAONKNJ@Invalid?5SDP?5descriptor?5?$CIPJMEDIA@ 00450744     pjmedia-i386-win32-vc14-release:errno.obj
 0002:00005770       ??_C@_0CO@ONPCFICA@Invalid?5SDP?5version?5line?5?$CIPJMED@ 00450770     pjmedia-i386-win32-vc14-release:errno.obj
 0002:000057a0       ??_C@_0DA@DIKNJOEJ@Invalid?5SDP?5origin?5line?5?$CIPJMEDI@ 004507a0     pjmedia-i386-win32-vc14-release:errno.obj
 0002:000057d0       ??_C@_0CM@DLEAGODI@Invalid?5SDP?5time?5line?5?$CIPJMEDIA_@ 004507d0     pjmedia-i386-win32-vc14-release:errno.obj
 0002:000057fc       ??_C@_0DF@HNDCDPJF@SDP?5name?1subject?5line?5is?5empty?5@ 004507fc     pjmedia-i386-win32-vc14-release:errno.obj
 0002:00005834       ??_C@_0DC@KNNPDHKA@Invalid?5SDP?5connection?5line?5?$CIPJ@ 00450834     pjmedia-i386-win32-vc14-release:errno.obj
 0002:00005868       ??_C@_0DM@NEDHCJGL@Missing?5SDP?5connection?5info?5lin@ 00450868     pjmedia-i386-win32-vc14-release:errno.obj
 0002:000058a4       ??_C@_0CN@JHLMEODJ@Invalid?5SDP?5attributes?5?$CIPJMEDIA@ 004508a4     pjmedia-i386-win32-vc14-release:errno.obj
 0002:000058d4       ??_C@_0DF@BJAALDOM@Invalid?5SDP?5rtpmap?5attribute?5?$CIP@ 004508d4     pjmedia-i386-win32-vc14-release:errno.obj
 0002:0000590c       ??_C@_0DL@HCOGNPAF@SDP?5rtpmap?5attribute?5too?5long?5?$CI@ 0045090c     pjmedia-i386-win32-vc14-release:errno.obj
 0002:00005948       ??_C@_0EJ@IDNJACOO@Missing?5SDP?5rtpmap?5for?5dynamic?5@ 00450948     pjmedia-i386-win32-vc14-release:errno.obj
 0002:00005994       ??_C@_0CO@DIKFNJOF@Invalid?5SDP?5media?5line?5?$CIPJMEDIA@ 00450994     pjmedia-i386-win32-vc14-release:errno.obj
 0002:000059c4       ??_C@_0DN@GADAENKO@No?5SDP?5payload?5format?5in?5the?5me@ 004509c4     pjmedia-i386-win32-vc14-release:errno.obj
 0002:00005a04       ??_C@_0DL@KAILPDC@Invalid?5SDP?5payload?5type?5in?5med@ 00450a04     pjmedia-i386-win32-vc14-release:errno.obj
 0002:00005a40       ??_C@_0DB@BJCACDID@Invalid?5SDP?5fmtp?5attribute?5?$CIPJM@ 00450a40     pjmedia-i386-win32-vc14-release:errno.obj
 0002:00005a74       ??_C@_0DB@GFBENNMO@Invalid?5SDP?5rtcp?5attribute?5?$CIPJM@ 00450a74     pjmedia-i386-win32-vc14-release:errno.obj
 0002:00005aa8       ??_C@_0DM@JFGCNJLM@Invalid?5SDP?5media?5transport?5pro@ 00450aa8     pjmedia-i386-win32-vc14-release:errno.obj
 0002:00005ae4       ??_C@_0DH@PCNCDMKM@Invalid?5SDP?5bandwidth?5info?5line@ 00450ae4     pjmedia-i386-win32-vc14-release:errno.obj
 0002:00005b1c       ??_C@_0DB@POLJHCKE@Invalid?5SDP?5ssrc?5attribute?5?$CIPJM@ 00450b1c     pjmedia-i386-win32-vc14-release:errno.obj
 0002:00005b50       ??_C@_0EF@CJNFLCEL@Invalid?5SDP?5negotiator?5state?5fo@ 00450b50     pjmedia-i386-win32-vc14-release:errno.obj
 0002:00005b98       ??_C@_0ED@IFOJJHNO@No?5initial?5local?5SDP?5in?5SDP?5neg@ 00450b98     pjmedia-i386-win32-vc14-release:errno.obj
 0002:00005bdc       ??_C@_0DL@MFMHOMBE@No?5active?5SDP?5in?5SDP?5negotiator@ 00450bdc     pjmedia-i386-win32-vc14-release:errno.obj
 0002:00005c18       ??_C@_0DN@JGPGLEOH@No?5current?5local?1remote?5offer?1a@ 00450c18     pjmedia-i386-win32-vc14-release:errno.obj
 0002:00005c58       ??_C@_0EE@BLNHOMNC@SDP?5media?5count?5mismatch?5in?5off@ 00450c58     pjmedia-i386-win32-vc14-release:errno.obj
 0002:00005ca0       ??_C@_0EG@MJOIPNIH@SDP?5media?5type?5mismatch?5in?5offe@ 00450ca0     pjmedia-i386-win32-vc14-release:errno.obj
 0002:00005ce8       ??_C@_0EN@OPFCIOMP@SDP?5media?5transport?5type?5mismat@ 00450ce8     pjmedia-i386-win32-vc14-release:errno.obj
 0002:00005d38       ??_C@_0ED@NGHPALDD@No?5common?5SDP?5media?5payload?5in?5@ 00450d38     pjmedia-i386-win32-vc14-release:errno.obj
 0002:00005d80       ??_C@_0ED@HELGJJGO@No?5active?5media?5stream?5after?5ne@ 00450d80     pjmedia-i386-win32-vc14-release:errno.obj
 0002:00005dc4       ??_C@_0DP@KIMEPBPF@No?5suitable?5codec?5for?5remote?5of@ 00450dc4     pjmedia-i386-win32-vc14-release:errno.obj
 0002:00005e08       ??_C@_0EM@LLMPLGCO@No?5suitable?5telephone?9event?5for@ 00450e08     pjmedia-i386-win32-vc14-release:errno.obj
 0002:00005e58       ??_C@_0EK@LPNBCGHG@No?5suitable?5answer?5for?5unknown?5@ 00450e58     pjmedia-i386-win32-vc14-release:errno.obj
 0002:00005ea4       ??_C@_0DM@JMBBJEKO@SDP?5media?5descriptor?5not?5equal?5@ 00450ea4     pjmedia-i386-win32-vc14-release:errno.obj
 0002:00005ee0       ??_C@_0ED@KAALGBMF@Port?5in?5SDP?5media?5descriptor?5no@ 00450ee0     pjmedia-i386-win32-vc14-release:errno.obj
 0002:00005f28       ??_C@_0EJ@FJOJLJDF@Transport?5in?5SDP?5media?5descript@ 00450f28     pjmedia-i386-win32-vc14-release:errno.obj
 0002:00005f78       ??_C@_0EH@FMIFCFBA@Format?5in?5SDP?5media?5descriptor?5@ 00450f78     pjmedia-i386-win32-vc14-release:errno.obj
 0002:00005fc0       ??_C@_0DK@MAHAOAHF@SDP?5connection?5line?5not?5equal?5?$CI@ 00450fc0     pjmedia-i386-win32-vc14-release:errno.obj
 0002:00005ffc       ??_C@_0DF@HHCJAGLJ@SDP?5attributes?5not?5equal?5?$CIPJMED@ 00450ffc     pjmedia-i386-win32-vc14-release:errno.obj
 0002:00006034       ??_C@_0DJ@GGABIHGL@SDP?5media?5direction?5not?5equal?5?$CI@ 00451034     pjmedia-i386-win32-vc14-release:errno.obj
 0002:00006070       ??_C@_0DJ@FFGHKCEG@SDP?5fmtp?5attribute?5not?5equal?5?$CIP@ 00451070     pjmedia-i386-win32-vc14-release:errno.obj
 0002:000060ac       ??_C@_0DN@HLKACHFN@SDP?5rtpmap?5attribute?5not?5equal?5@ 004510ac     pjmedia-i386-win32-vc14-release:errno.obj
 0002:000060ec       ??_C@_0DN@EALGPLFN@SDP?5session?5descriptor?5not?5equa@ 004510ec     pjmedia-i386-win32-vc14-release:errno.obj
 0002:0000612c       ??_C@_0DI@BLKBMMGO@SDP?5origin?5line?5not?5equal?5?$CIPJME@ 0045112c     pjmedia-i386-win32-vc14-release:errno.obj
 0002:00006164       ??_C@_0DM@HCOBINN@SDP?5name?1subject?5line?5not?5equal@ 00451164     pjmedia-i386-win32-vc14-release:errno.obj
 0002:000061a0       ??_C@_0DE@PFJJJNGL@SDP?5time?5line?5not?5equal?5?$CIPJMEDI@ 004511a0     pjmedia-i386-win32-vc14-release:errno.obj
 0002:000061d4       ??_C@_0CP@ODMIIAEN@Unsupported?5media?5codec?5?$CIPJMEDI@ 004511d4     pjmedia-i386-win32-vc14-release:errno.obj
 0002:00006204       ??_C@_0DG@KJBEJCIE@Codec?5internal?5creation?5error?5?$CI@ 00451204     pjmedia-i386-win32-vc14-release:errno.obj
 0002:0000623c       ??_C@_0DG@FOGENKNL@Codec?5frame?5is?5too?5short?5?$CIPJMED@ 0045123c     pjmedia-i386-win32-vc14-release:errno.obj
 0002:00006274       ??_C@_0DE@OLKJHMCL@PCM?5frame?5is?5too?5short?5?$CIPJMEDIA@ 00451274     pjmedia-i386-win32-vc14-release:errno.obj
 0002:000062a8       ??_C@_0DF@JDAOLAOM@Invalid?5codec?5frame?5length?5?$CIPJM@ 004512a8     pjmedia-i386-win32-vc14-release:errno.obj
 0002:000062e0       ??_C@_0DG@LLBBCNCG@Invalid?5PCM?5frame?5length?5?$CIPJMED@ 004512e0     pjmedia-i386-win32-vc14-release:errno.obj
 0002:00006318       ??_C@_0DG@EKMGLMFL@Invalid?5codec?5mode?5?$CIno?5fmtp?$DP?$CJ?5?$CI@ 00451318     pjmedia-i386-win32-vc14-release:errno.obj
 0002:00006350       ??_C@_0DJ@NJFBGAOC@Bad?5or?5corrupted?5bitstream?5?$CIPJM@ 00451350     pjmedia-i386-win32-vc14-release:errno.obj
 0002:0000638c       ??_C@_0DH@KOBKDDJI@Invalid?5remote?5media?5?$CIIP?$CJ?5addre@ 0045138c     pjmedia-i386-win32-vc14-release:errno.obj
 0002:000063c4       ??_C@_0DM@GBJMMNCF@Asymetric?5media?5codec?5is?5not?5su@ 004513c4     pjmedia-i386-win32-vc14-release:errno.obj
 0002:00006400       ??_C@_0DA@DKJJFGPE@Invalid?5media?5payload?5type?5?$CIPJM@ 00451400     pjmedia-i386-win32-vc14-release:errno.obj
 0002:00006430       ??_C@_0DN@IGGOEBDI@Missing?5rtpmap?5in?5media?5descrip@ 00451430     pjmedia-i386-win32-vc14-release:errno.obj
 0002:00006470       ??_C@_0CO@MJBLNMMI@Invalid?5media?5type?5?$CIPJMEDIA_EIN@ 00451470     pjmedia-i386-win32-vc14-release:errno.obj
 0002:000064a0       ??_C@_0DF@NNKPPHHC@Remote?5does?5not?5support?5DTMF?5?$CIP@ 004514a0     pjmedia-i386-win32-vc14-release:errno.obj
 0002:000064d8       ??_C@_0CJ@ECIKMCPH@Invalid?5DTMF?5digit?5?$CIPJMEDIA_RTP@ 004514d8     pjmedia-i386-win32-vc14-release:errno.obj
 0002:00006504       ??_C@_0DN@EHCPFJJN@Remote?5does?5not?5support?5RFC?5283@ 00451504     pjmedia-i386-win32-vc14-release:errno.obj
 0002:00006544       ??_C@_0BN@LMCOIKH@Bad?5format?5?$CIPJMEDIA_EBADFMT?$CJ@ 00451544     pjmedia-i386-win32-vc14-release:errno.obj
 0002:00006564       ??_C@_0DB@GBKLBGPK@Unsupported?5media?5type?5?$CIPJMEDIA@ 00451564     pjmedia-i386-win32-vc14-release:errno.obj
 0002:00006598       ??_C@_0CI@KDAMKHEL@Invalid?5RTP?5packet?5?$CIPJMEDIA_RTP@ 00451598     pjmedia-i386-win32-vc14-release:errno.obj
 0002:000065c0       ??_C@_0DL@KLDJIJLI@Invalid?5RTP?5packing?5?$CIinternal?5e@ 004515c0     pjmedia-i386-win32-vc14-release:errno.obj
 0002:000065fc       ??_C@_0CJ@NGKNCMFA@Invalid?5RTP?5version?5?$CIPJMEDIA_RT@ 004515fc     pjmedia-i386-win32-vc14-release:errno.obj
 0002:00006628       ??_C@_0DC@PFPAEINL@RTP?5packet?5SSRC?5id?5mismatch?5?$CIPJ@ 00451628     pjmedia-i386-win32-vc14-release:errno.obj
 0002:0000665c       ??_C@_0DF@KDOADJLK@RTP?5packet?5payload?5type?5mismatc@ 0045165c     pjmedia-i386-win32-vc14-release:errno.obj
 0002:00006694       ??_C@_0CP@OBFABIAL@Invalid?5RTP?5packet?5length?5?$CIPJME@ 00451694     pjmedia-i386-win32-vc14-release:errno.obj
 0002:000066c4       ??_C@_0DB@HLHLKEBJ@RTP?5session?5restarted?5?$CIPJMEDIA_@ 004516c4     pjmedia-i386-win32-vc14-release:errno.obj
 0002:000066f8       ??_C@_0DG@OPPFJBGL@RTP?5session?5in?5probation?5?$CIPJMED@ 004516f8     pjmedia-i386-win32-vc14-release:errno.obj
 0002:00006730       ??_C@_0DI@LFLLIJCB@Bad?5sequence?5number?5in?5RTP?5pack@ 00451730     pjmedia-i386-win32-vc14-release:errno.obj
 0002:00006768       ??_C@_0EE@PHAAOPAG@RTP?5media?5port?5destination?5is?5n@ 00451768     pjmedia-i386-win32-vc14-release:errno.obj
 0002:000067ac       ??_C@_0CO@BFKJOFNE@RTP?5is?5not?5configured?5?$CIPJMEDIA_@ 004517ac     pjmedia-i386-win32-vc14-release:errno.obj
 0002:000067dc       ??_C@_0DI@MEKDIPIO@Media?5ports?5are?5not?5compatible?5@ 004517dc     pjmedia-i386-win32-vc14-release:errno.obj
 0002:00006818       ??_C@_0EA@EJPEOGMK@Media?5ports?5have?5incompatible?5c@ 00451818     pjmedia-i386-win32-vc14-release:errno.obj
 0002:00006858       ??_C@_0EL@KOIIKBFP@Media?5ports?5have?5incompatible?5s@ 00451858     pjmedia-i386-win32-vc14-release:errno.obj
 0002:000068a4       ??_C@_0DL@FLCJCEPI@Media?5ports?5have?5incompatible?5m@ 004518a4     pjmedia-i386-win32-vc14-release:errno.obj
 0002:000068e0       ??_C@_0EA@CDICINEI@Media?5ports?5have?5incompatible?5b@ 004518e0     pjmedia-i386-win32-vc14-release:errno.obj
 0002:00006920       ??_C@_0EB@DHIDGGBD@Media?5ports?5have?5incompatible?5b@ 00451920     pjmedia-i386-win32-vc14-release:errno.obj
 0002:00006968       ??_C@_0EG@FBPNENMF@Media?5ports?5have?5incompatible?5n@ 00451968     pjmedia-i386-win32-vc14-release:errno.obj
 0002:000069b0       ??_C@_0CO@CKCFJDML@Not?5a?5valid?5WAVE?5file?5?$CIPJMEDIA_@ 004519b0     pjmedia-i386-win32-vc14-release:errno.obj
 0002:000069e0       ??_C@_0DD@FKNCKLNB@Unsupported?5WAVE?5file?5format?5?$CIP@ 004519e0     pjmedia-i386-win32-vc14-release:errno.obj
 0002:00006a14       ??_C@_0CM@HKHLDPDN@WAVE?5file?5too?5short?5?$CIPJMEDIA_EW@ 00451a14     pjmedia-i386-win32-vc14-release:errno.obj
 0002:00006a40       ??_C@_0DP@HHAKLPGE@Sound?5frame?5too?5large?5for?5file?5@ 00451a40     pjmedia-i386-win32-vc14-release:errno.obj
 0002:00006a80       ??_C@_0CK@EMOCNCPF@Unsupported?5AVI?5file?5?$CIPJMEDIA_E@ 00451a80     pjmedia-i386-win32-vc14-release:errno.obj
 0002:00006aac       ??_C@_0DF@PKIKHNPA@No?5suitable?5sound?5capture?5devic@ 00451aac     pjmedia-i386-win32-vc14-release:errno.obj
 0002:00006ae4       ??_C@_0DH@NACBPKOD@No?5suitable?5sound?5playback?5devi@ 00451ae4     pjmedia-i386-win32-vc14-release:errno.obj
 0002:00006b1c       ??_C@_0CO@FCJGKBG@Invalid?5sound?5device?5ID?5?$CIPJMEDI@ 00451b1c     pjmedia-i386-win32-vc14-release:errno.obj
 0002:00006b50       ??_C@_0EB@GAMOPGD@Invalid?5sample?5format?5for?5sound@ 00451b50     pjmedia-i386-win32-vc14-release:errno.obj
 0002:00006b98       ??_C@_0FA@HAKEALMK@SRTP?5crypto?9suite?5name?5not?5matc@ 00451b98     pjmedia-i386-win32-vc14-release:errno.obj
 0002:00006be8       ??_C@_0EF@DCMAHBDI@Invalid?5SRTP?5key?5length?5for?5spe@ 00451be8     pjmedia-i386-win32-vc14-release:errno.obj
 0002:00006c30       ??_C@_0DL@BINEGGLM@Unsupported?5SRTP?5crypto?9suite?5?$CI@ 00451c30     pjmedia-i386-win32-vc14-release:errno.obj
 0002:00006c6c       ??_C@_0DP@DNDEFJI@SRTP?5SDP?5contains?5ambigue?5answe@ 00451c6c     pjmedia-i386-win32-vc14-release:errno.obj
 0002:00006cac       ??_C@_0DL@PPDCJAFI@Duplicated?5SRTP?5crypto?5tag?5?$CIPJM@ 00451cac     pjmedia-i386-win32-vc14-release:errno.obj
 0002:00006ce8       ??_C@_0DK@EIEPDNB@Invalid?5SRTP?5crypto?5attribute?5?$CI@ 00451ce8     pjmedia-i386-win32-vc14-release:errno.obj
 0002:00006d24       ??_C@_0DH@JABOECDK@Invalid?5SRTP?5crypto?5tag?5?$CIPJMEDI@ 00451d24     pjmedia-i386-win32-vc14-release:errno.obj
 0002:00006d60       ??_C@_0EE@HKDIFKLN@Invalid?5SDP?5media?5transport?5for@ 00451d60     pjmedia-i386-win32-vc14-release:errno.obj
 0002:00006da4       ??_C@_0DM@OPHJDJCK@SRTP?5crypto?5attribute?5required?5@ 00451da4     pjmedia-i386-win32-vc14-release:errno.obj
 0002:00006de0       ??_C@_0EO@MOMMHEEA@Secure?5transport?5required?5in?5SD@ 00451de0     pjmedia-i386-win32-vc14-release:errno.obj
 0002:00006e30       ??_C@_0EK@HIIDIBOJ@SRTP?5parameters?5negotiation?5sti@ 00451e30     pjmedia-i386-win32-vc14-release:errno.obj
 0002:00006e80       ??_C@_0EM@HBHPHIDH@No?5matching?5SRTP?5crypto?9suite?5a@ 00451e80     pjmedia-i386-win32-vc14-release:errno.obj
 0002:00006ed0       ??_C@_0EN@OKMMPCBN@No?5certificate?5supplied?5by?5peer@ 00451ed0     pjmedia-i386-win32-vc14-release:errno.obj
 0002:00006f20       ??_C@_0FM@DHHDFBCG@Fingerprint?5from?5signalling?5not@ 00451f20     pjmedia-i386-win32-vc14-release:errno.obj
 0002:00006f7c       ??_C@_0DE@BIABFNHJ@Fingerprint?5not?5found?5?$CIPJMEDIA_@ 00451f7c     pjmedia-i386-win32-vc14-release:errno.obj
 0002:00006fb0       ??_C@_0BJ@JGEGOKIK@Unknown?5pjmedia?5error?5?$CFd@ 00451fb0     pjmedia-i386-win32-vc14-release:errno.obj
 0002:00006fd0       _pjmedia_linear2ulaw_tab   00451fd0     pjmedia-i386-win32-vc14-release:alaw_ulaw_table.obj
 0002:0000afd0       _pjmedia_linear2alaw_tab   00455fd0     pjmedia-i386-win32-vc14-release:alaw_ulaw_table.obj
 0002:0000efd0       _pjmedia_ulaw2linear_tab   00459fd0     pjmedia-i386-win32-vc14-release:alaw_ulaw_table.obj
 0002:0000f1d0       _pjmedia_alaw2linear_tab   0045a1d0     pjmedia-i386-win32-vc14-release:alaw_ulaw_table.obj
 0002:0000f3d0       ??_C@_04CCFCAPFE@sd?$CFp@  0045a3d0     pjmedia-i386-win32-vc14-release:silencedet.obj
 0002:0000f3d8       ??_C@_0CJ@FEGDIEOD@Re?9adjust?5threshold?5?$CIin?5talk?5bu@ 0045a3d8     pjmedia-i386-win32-vc14-release:silencedet.obj
 0002:0000f404       ??_C@_0N@GGOMHLHN@silencedet?4c@ 0045a404     pjmedia-i386-win32-vc14-release:silencedet.obj
 0002:0000f414       ??_C@_0CM@HFHDPICL@Starting?5talk?5burst?5?$CIlevel?$DN?$CFd?5t@ 0045a414     pjmedia-i386-win32-vc14-release:silencedet.obj
 0002:0000f440       ??_C@_0CG@DGOMOKAK@Re?9adjust?5threshold?5?$CIin?5silence@ 0045a440     pjmedia-i386-win32-vc14-release:silencedet.obj
 0002:0000f468       ??_C@_0CJ@HMFIAFFP@Starting?5silence?5?$CIlevel?$DN?$CFd?5thre@ 0045a468     pjmedia-i386-win32-vc14-release:silencedet.obj
 0002:0000f494       ??_C@_03JBLJHHJA@ack@      0045a494     pjmedia-i386-win32-vc14-release:rtcp_fb.obj
 0002:0000f498       ??_C@_04FANNJGLN@nack@     0045a498     pjmedia-i386-win32-vc14-release:rtcp_fb.obj
 0002:0000f4a0       ??_C@_07PJLPNLNA@trr?9int@ 0045a4a0     pjmedia-i386-win32-vc14-release:rtcp_fb.obj
 0002:0000f4a8       ??_C@_07FCPEBGCM@rtcp?9fb@ 0045a4a8     pjmedia-i386-win32-vc14-release:rtcp_fb.obj
 0002:0000f4b0       ??_C@_0N@MLEOMPJK@?$CF?4?$CKs?1?$CFd?1?$CF?4?$CKs@ 0045a4b0     pjmedia-i386-win32-vc14-release:rtcp_fb.obj
 0002:0000f4c0       ??_C@_09PENHMDKI@?$CF?4?$CKs?1?$CFd?11@ 0045a4c0     pjmedia-i386-win32-vc14-release:rtcp_fb.obj
 0002:0000f4cc       ??_C@_01NBENCBCI@?$CK@     0045a4cc     pjmedia-i386-win32-vc14-release:rtcp_fb.obj
 0002:0000f4d0       ??_C@_02OJDBNLEE@?5?7@     0045a4d0     pjmedia-i386-win32-vc14-release:rtcp_fb.obj
 0002:0000f4d8       ??_C@_0EB@OHKIBEFG@Warning?3?5fmtp?5parameter?5count?5e@ 0045a4d8     pjmedia-i386-win32-vc14-release:stream_common.obj
 0002:0000f51c       ??_C@_0BA@JPAJDJED@stream_common?4c@ 0045a51c     pjmedia-i386-win32-vc14-release:stream_common.obj
 0002:0000f544       ??_C@_08MPIAKENM@RTP?1SAVP@ 0045a544     pjmedia-i386-win32-vc14-release:transport_srtp.obj
 0002:0000f550       ??_C@_06LAEHEPPF@crypto@   0045a550     pjmedia-i386-win32-vc14-release:transport_srtp.obj
 0002:0000f558       ??_C@_0BI@FCCBBIDC@AES_256_CM_HMAC_SHA1_80@ 0045a558     pjmedia-i386-win32-vc14-release:transport_srtp.obj
 0002:0000f570       ??_C@_0BI@GMECJFFB@AES_256_CM_HMAC_SHA1_32@ 0045a570     pjmedia-i386-win32-vc14-release:transport_srtp.obj
 0002:0000f588       ??_C@_0BI@OADHPNHF@AES_CM_128_HMAC_SHA1_80@ 0045a588     pjmedia-i386-win32-vc14-release:transport_srtp.obj
 0002:0000f5a0       ??_C@_0BI@NOFEHABG@AES_CM_128_HMAC_SHA1_32@ 0045a5a0     pjmedia-i386-win32-vc14-release:transport_srtp.obj
 0002:0000f5b8       ??_C@_02MFDMBIJM@ok@       0045a5b8     pjmedia-i386-win32-vc14-release:transport_srtp.obj
 0002:0000f5bc       ??_C@_0BE@KFOIPNMM@unspecified?5failure@ 0045a5bc     pjmedia-i386-win32-vc14-release:transport_srtp.obj
 0002:0000f5d0       ??_C@_0BG@LENPEKHL@unsupported?5parameter@ 0045a5d0     pjmedia-i386-win32-vc14-release:transport_srtp.obj
 0002:0000f5e8       ??_C@_0BJ@DGLNBGGB@couldn?8t?5allocate?5memory@ 0045a5e8     pjmedia-i386-win32-vc14-release:transport_srtp.obj
 0002:0000f604       ??_C@_0BN@LJIJFBAJ@couldn?8t?5deallocate?5properly@ 0045a604     pjmedia-i386-win32-vc14-release:transport_srtp.obj
 0002:0000f624       ??_C@_0BE@KBPICNEA@couldn?8t?5initialize@ 0045a624     pjmedia-i386-win32-vc14-release:transport_srtp.obj
 0002:0000f638       ??_C@_0CI@FEPPFOBO@can?8t?5process?5as?5much?5data?5as?5r@ 0045a638     pjmedia-i386-win32-vc14-release:transport_srtp.obj
 0002:0000f660       ??_C@_0BH@DJJHFLDI@authentication?5failure@ 0045a660     pjmedia-i386-win32-vc14-release:transport_srtp.obj
 0002:0000f678       ??_C@_0P@MHOCHBCE@cipher?5failure@ 0045a678     pjmedia-i386-win32-vc14-release:transport_srtp.obj
 0002:0000f688       ??_C@_0CA@LIFPFHJ@replay?5check?5failed?5?$CIbad?5index?$CJ@ 0045a688     pjmedia-i386-win32-vc14-release:transport_srtp.obj
 0002:0000f6a8       ??_C@_0CE@GCMJOMFK@replay?5check?5failed?5?$CIindex?5too?5@ 0045a6a8     pjmedia-i386-win32-vc14-release:transport_srtp.obj
 0002:0000f6cc       ??_C@_0BO@KLFALCF@algorithm?5failed?5test?5routine@ 0045a6cc     pjmedia-i386-win32-vc14-release:transport_srtp.obj
 0002:0000f6ec       ??_C@_0BG@JKFIFBMN@unsupported?5operation@ 0045a6ec     pjmedia-i386-win32-vc14-release:transport_srtp.obj
 0002:0000f704       ??_C@_0BN@PDJKDLOF@no?5appropriate?5context?5found@ 0045a704     pjmedia-i386-win32-vc14-release:transport_srtp.obj
 0002:0000f724       ??_C@_0CF@DOHHPHGD@unable?5to?5perform?5desired?5valid@ 0045a724     pjmedia-i386-win32-vc14-release:transport_srtp.obj
 0002:0000f74c       ??_C@_0BH@NKHPNDDN@can?8t?5use?5key?5any?5more@ 0045a74c     pjmedia-i386-win32-vc14-release:transport_srtp.obj
 0002:0000f764       ??_C@_0BH@CDHGOGDE@error?5in?5use?5of?5socket@ 0045a764     pjmedia-i386-win32-vc14-release:transport_srtp.obj
 0002:0000f77c       ??_C@_0BL@DJFHEKEC@error?5in?5use?5POSIX?5signals@ 0045a77c     pjmedia-i386-win32-vc14-release:transport_srtp.obj
 0002:0000f798       ??_C@_0BD@HFMCMINA@nonce?5check?5failed@ 0045a798     pjmedia-i386-win32-vc14-release:transport_srtp.obj
 0002:0000f7ac       ??_C@_0BD@FCFDDPHP@couldn?8t?5read?5data@ 0045a7ac     pjmedia-i386-win32-vc14-release:transport_srtp.obj
 0002:0000f7c0       ??_C@_0BE@PIHIJLHG@couldn?8t?5write?5data@ 0045a7c0     pjmedia-i386-win32-vc14-release:transport_srtp.obj
 0002:0000f7d4       ??_C@_0BD@PIIFGNCP@error?5pasring?5data@ 0045a7d4     pjmedia-i386-win32-vc14-release:transport_srtp.obj
 0002:0000f7e8       ??_C@_0BE@FFKLLGEP@error?5encoding?5data@ 0045a7e8     pjmedia-i386-win32-vc14-release:transport_srtp.obj
 0002:0000f7fc       ??_C@_0BN@OEPMNKMP@error?5while?5using?5semaphores@ 0045a7fc     pjmedia-i386-win32-vc14-release:transport_srtp.obj
 0002:0000f81c       ??_C@_0BI@JNCDFEKK@error?5while?5using?5pfkey@ 0045a81c     pjmedia-i386-win32-vc14-release:transport_srtp.obj
 0002:0000f838       ??_C@_0EB@EJGHAKCH@Warning?3?5simple?5random?5generato@ 0045a838     pjmedia-i386-win32-vc14-release:transport_srtp.obj
 0002:0000f87c       ??_C@_0BB@HGEADDBB@transport_srtp?4c@ 0045a87c     pjmedia-i386-win32-vc14-release:transport_srtp.obj
 0002:0000f890       ??_C@_0CE@BAIPFCEP@Failed?5encoding?5plain?5key?5to?5ba@ 0045a890     pjmedia-i386-win32-vc14-release:transport_srtp.obj
 0002:0000f8b4       ??_C@_0BA@OGAKIHAO@?$CFd?5?$CFs?5inline?3?$CFs@ 0045a8b4     pjmedia-i386-win32-vc14-release:transport_srtp.obj
 0002:0000f8c4       ??_C@_0BP@IBJNGPHO@Attribute?5crypto?5expecting?5tag@ 0045a8c4     pjmedia-i386-win32-vc14-release:transport_srtp.obj
 0002:0000f8e4       ??_C@_0CI@IIDGBGP@Attribute?5crypto?5expecting?5cryp@ 0045a8e4     pjmedia-i386-win32-vc14-release:transport_srtp.obj
 0002:0000f90c       ??_C@_02LMMGGCAJ@?3?5@     0045a90c     pjmedia-i386-win32-vc14-release:transport_srtp.obj
 0002:0000f910       ??_C@_0CG@JCJFEHFF@Attribute?5crypto?5expecting?5key?5@ 0045a910     pjmedia-i386-win32-vc14-release:transport_srtp.obj
 0002:0000f938       ??_C@_06OGMBMJA@inline@    0045a938     pjmedia-i386-win32-vc14-release:transport_srtp.obj
 0002:0000f940       ??_C@_0DC@FIGAPMKM@Attribute?5crypto?5key?5method?5?8?$CF?4@ 0045a940     pjmedia-i386-win32-vc14-release:transport_srtp.obj
 0002:0000f974       ??_C@_02MINBJDHL@?$HM?5@   0045a974     pjmedia-i386-win32-vc14-release:transport_srtp.obj
 0002:0000f978       ??_C@_0BP@FKKPLPLE@Attribute?5crypto?5expecting?5key@ 0045a978     pjmedia-i386-win32-vc14-release:transport_srtp.obj
 0002:0000f998       ??_C@_0N@FJKIJMGM@Key?5too?5long@ 0045a998     pjmedia-i386-win32-vc14-release:transport_srtp.obj
 0002:0000f9a8       ??_C@_0CH@PPONEAL@Failed?5decoding?5crypto?5key?5from@ 0045a9a8     pjmedia-i386-win32-vc14-release:transport_srtp.obj
 0002:0000f9d0       ??_C@_0BA@CMIKGIPP@SRTP?5not?5active@ 0045a9d0     pjmedia-i386-win32-vc14-release:transport_srtp.obj
 0002:0000f9e0       ??_C@_04LFNPDDCP@SDES@     0045a9e0     pjmedia-i386-win32-vc14-release:transport_srtp.obj
 0002:0000f9e8       ??_C@_09LMBOLLED@DTLS?9SRTP@ 0045a9e8     pjmedia-i386-win32-vc14-release:transport_srtp.obj
 0002:0000f9f4       ??_C@_0CD@NFEKFFAL@SRTP?5started?0?5keying?$DN?$CFs?0?5crypto@ 0045a9f4     pjmedia-i386-win32-vc14-release:transport_srtp.obj
 0002:0000fa18       ??_C@_0BP@CAGNCNCA@Failed?5to?5restart?5SRTP?0?5err?$DN?$CFs@ 0045aa18     pjmedia-i386-win32-vc14-release:transport_srtp.obj
 0002:0000fa38       ??_C@_0CO@EDHKLEPP@Failed?5to?5unprotect?5SRTP?0?5pkt?5s@ 0045aa38     pjmedia-i386-win32-vc14-release:transport_srtp.obj
 0002:0000fa68       ??_C@_0CP@OAIPELPD@Failed?5to?5unprotect?5SRTCP?0?5pkt?5@ 0045aa68     pjmedia-i386-win32-vc14-release:transport_srtp.obj
 0002:0000fa98       ??_C@_0BL@LHHEAKNJ@SRTP?5uses?5keying?5method?5?$CFs@ 0045aa98     pjmedia-i386-win32-vc14-release:transport_srtp.obj
 0002:0000fab4       ??_C@_0CN@IMPBKLBH@SRTP?5failed?5stop?5underlying?5med@ 0045aab4     pjmedia-i386-win32-vc14-release:transport_srtp.obj
 0002:0000fae4       ??_C@_0BJ@BOBCJFAN@Unknown?5libsrtp?5error?5?$CFd@ 0045aae4     pjmedia-i386-win32-vc14-release:transport_srtp.obj
 0002:0000fb00       ??_C@_0BB@JENPEJDI@?9?9key?5too?5long?9?9@ 0045ab00     pjmedia-i386-win32-vc14-release:transport_srtp.obj
 0002:0000fb14       ??_C@_0O@LPFLKIMI@TX?3?5?$CFs?5key?$DN?$CFs@ 0045ab14     pjmedia-i386-win32-vc14-release:transport_srtp.obj
 0002:0000fb24       ??_C@_05EPPOHEBK@?5auth@   0045ab24     pjmedia-i386-win32-vc14-release:transport_srtp.obj
 0002:0000fb2c       ??_C@_04PIHNPOJJ@?5enc@    0045ab2c     pjmedia-i386-win32-vc14-release:transport_srtp.obj
 0002:0000fb34       ??_C@_0BA@BONGIHBG@TX?3?5disable?$CFs?$CFs@ 0045ab34     pjmedia-i386-win32-vc14-release:transport_srtp.obj
 0002:0000fb44       ??_C@_0O@EHJJODHO@RX?3?5?$CFs?5key?$DN?$CFs@ 0045ab44     pjmedia-i386-win32-vc14-release:transport_srtp.obj
 0002:0000fb54       ??_C@_0BA@ENEHOOPC@RX?3?5disable?$CFs?$CFs@ 0045ab54     pjmedia-i386-win32-vc14-release:transport_srtp.obj
 0002:0000fb64       ??_C@_0CG@KDAPJFOB@Failed?5to?5dealloc?5RX?5SRTP?5conte@ 0045ab64     pjmedia-i386-win32-vc14-release:transport_srtp.obj
 0002:0000fb8c       ??_C@_0CG@CHCMAIDE@Failed?5to?5dealloc?5TX?5SRTP?5conte@ 0045ab8c     pjmedia-i386-win32-vc14-release:transport_srtp.obj
 0002:0000fbb4       __real@3f800000            0045abb4     pjmedia-i386-win32-vc14-release:wsola.obj
 0002:0000fbb8       __real@3ff0000000000000    0045abb8     pjmedia-i386-win32-vc14-release:wsola.obj
 0002:0000fbc0       __real@3ff8000000000000    0045abc0     pjmedia-i386-win32-vc14-release:wsola.obj
 0002:0000fbc8       __real@401921fb54442d18    0045abc8     pjmedia-i386-win32-vc14-release:wsola.obj
 0002:0000fbd0       __xmm@00000003000000020000000100000000 0045abd0     pjmedia-i386-win32-vc14-release:wsola.obj
 0002:0000fbe0       __xmm@3fe00000000000003fe0000000000000 0045abe0     pjmedia-i386-win32-vc14-release:wsola.obj
 0002:0000fbf0       __xmm@401921fb54442d18401921fb54442d18 0045abf0     pjmedia-i386-win32-vc14-release:wsola.obj
 0002:0000fc00       __xmm@41f000000000000041f0000000000000 0045ac00     pjmedia-i386-win32-vc14-release:wsola.obj
 0002:0000fdf0       ??_C@_0DI@FPKNFLPC@Unable?5to?5resolve?5STUN?5server?5?$CI@ 0045adf0     pjlib-util-i386-win32-vc14-release:errno.obj
 0002:0000fe28       ??_C@_0DG@MLIAHJMC@Unknown?5STUN?5message?5type?5?$CIPJLI@ 0045ae28     pjlib-util-i386-win32-vc14-release:errno.obj
 0002:0000fe60       ??_C@_0DH@BGLGMNML@Invalid?5STUN?5message?5length?5?$CIPJ@ 0045ae60     pjlib-util-i386-win32-vc14-release:errno.obj
 0002:0000fe98       ??_C@_0DI@MNKBLDCO@STUN?5attribute?5length?5error?5?$CIPJ@ 0045ae98     pjlib-util-i386-win32-vc14-release:errno.obj
 0002:0000fed0       ??_C@_0DJ@GEFJCPHI@Invalid?5STUN?5attribute?5type?5?$CIPJ@ 0045aed0     pjlib-util-i386-win32-vc14-release:errno.obj
 0002:0000ff0c       ??_C@_0DL@JFEBBJAB@Invalid?5STUN?5server?1socket?5inde@ 0045af0c     pjlib-util-i386-win32-vc14-release:errno.obj
 0002:0000ff48       ??_C@_0EE@OMBAKMPD@No?5STUN?5binding?5response?5in?5the@ 0045af48     pjlib-util-i386-win32-vc14-release:errno.obj
 0002:0000ff8c       ??_C@_0DM@JJJKHKHH@Received?5STUN?5error?5attribute?5?$CI@ 0045af8c     pjlib-util-i386-win32-vc14-release:errno.obj
 0002:0000ffc8       ??_C@_0DJ@BDPKKDEL@No?5STUN?5mapped?5address?5attribut@ 0045afc8     pjlib-util-i386-win32-vc14-release:errno.obj
 0002:00010008       ??_C@_0ED@MIOBPJDH@Received?5no?5response?5from?5STUN?5@ 0045b008     pjlib-util-i386-win32-vc14-release:errno.obj
 0002:0001004c       ??_C@_0DK@OILEGGA@Symetric?5NAT?5detected?5by?5STUN?5?$CI@ 0045b04c     pjlib-util-i386-win32-vc14-release:errno.obj
 0002:00010088       ??_C@_0CI@OKGDIDF@Invalid?5XML?5message?5?$CIPJLIB_UTIL@ 0045b088     pjlib-util-i386-win32-vc14-release:errno.obj
 0002:000100b0       ??_C@_0CL@IPLFEOJE@Invalid?5JSON?5document?5?$CIPJLIB_UT@ 0045b0b0     pjlib-util-i386-win32-vc14-release:errno.obj
 0002:000100e0       ??_C@_0EC@KJLJANIE@DNS?5query?5packet?5buffer?5is?5too?5@ 0045b0e0     pjlib-util-i386-win32-vc14-release:errno.obj
 0002:00010124       ??_C@_0DC@JFKHADAC@Invalid?5DNS?5packet?5length?5?$CIPJLI@ 0045b124     pjlib-util-i386-win32-vc14-release:errno.obj
 0002:00010158       ??_C@_0CL@OCFDFFNM@Invalid?5DNS?5class?5?$CIPJLIB_UTIL_E@ 0045b158     pjlib-util-i386-win32-vc14-release:errno.obj
 0002:00010184       ??_C@_0DE@FIPILDGP@Invalid?5DNS?5name?5pointer?5?$CIPJLIB@ 0045b184     pjlib-util-i386-win32-vc14-release:errno.obj
 0002:000101b8       ??_C@_0DJ@NBOGGJL@Invalid?5DNS?5nameserver?5address?5@ 0045b1b8     pjlib-util-i386-win32-vc14-release:errno.obj
 0002:000101f4       ??_C@_0DH@LFJGDOHB@No?5nameserver?5is?5in?5DNS?5resolve@ 0045b1f4     pjlib-util-i386-win32-vc14-release:errno.obj
 0002:0001022c       ??_C@_0DH@PHJBLCKD@No?5working?5DNS?5nameserver?5?$CIPJLI@ 0045b22c     pjlib-util-i386-win32-vc14-release:errno.obj
 0002:00010268       ??_C@_0EC@HJFBNLFC@No?5answer?5record?5in?5the?5DNS?5res@ 0045b268     pjlib-util-i386-win32-vc14-release:errno.obj
 0002:000102ac       ??_C@_0CN@DEFBDJKF@Invalid?5DNS?5answer?5?$CIPJLIB_UTIL_@ 0045b2ac     pjlib-util-i386-win32-vc14-release:errno.obj
 0002:000102dc       ??_C@_0CN@BCAAPMPM@DNS?5?$CCFormat?5error?$CC?5?$CIPJLIB_UTIL_@ 0045b2dc     pjlib-util-i386-win32-vc14-release:errno.obj
 0002:0001030c       ??_C@_0DA@NBPIIAHM@DNS?5?$CCServer?5failure?$CC?5?$CIPJLIB_UTI@ 0045b30c     pjlib-util-i386-win32-vc14-release:errno.obj
 0002:0001033c       ??_C@_0CM@CNNJNBCA@DNS?5?$CCName?5Error?$CC?5?$CIPJLIB_UTIL_ED@ 0045b33c     pjlib-util-i386-win32-vc14-release:errno.obj
 0002:00010368       ??_C@_0DA@DIMDKHPM@DNS?5?$CCNot?5Implemented?$CC?5?$CIPJLIB_UT@ 0045b368     pjlib-util-i386-win32-vc14-release:errno.obj
 0002:00010398       ??_C@_0CI@LDMKLLKJ@DNS?5?$CCRefused?$CC?5?$CIPJLIB_UTIL_EDNS_@ 0045b398     pjlib-util-i386-win32-vc14-release:errno.obj
 0002:000103c0       ??_C@_0DB@PFAMNHPJ@DNS?5?$CCThe?5name?5exists?$CC?5?$CIPJLIB_UT@ 0045b3c0     pjlib-util-i386-win32-vc14-release:errno.obj
 0002:000103f4       ??_C@_0DO@OIIHMCI@DNS?5?$CCThe?5RRset?5?$CIname?0?5type?$CJ?5exi@ 0045b3f4     pjlib-util-i386-win32-vc14-release:errno.obj
 0002:00010438       ??_C@_0EG@OMHMBNML@DNS?5?$CCThe?5RRset?5?$CIname?0?5type?$CJ?5doe@ 0045b438     pjlib-util-i386-win32-vc14-release:errno.obj
 0002:00010480       ??_C@_0CP@HJODAHHO@DNS?5?$CCNot?5authorized?$CC?5?$CIPJLIB_UTI@ 0045b480     pjlib-util-i386-win32-vc14-release:errno.obj
 0002:000104b0       ??_C@_0EB@GKEHOPAE@DNS?5?$CCThe?5zone?5specified?5is?5not?5@ 0045b4b0     pjlib-util-i386-win32-vc14-release:errno.obj
 0002:000104f4       ??_C@_0DH@EMGNELGL@Too?5many?5STUN?5attributes?5?$CIPJLIB@ 0045b4f4     pjlib-util-i386-win32-vc14-release:errno.obj
 0002:0001052c       ??_C@_0DF@KMIPDCMM@Unknown?5STUN?5attribute?5?$CIPJLIB_U@ 0045b52c     pjlib-util-i386-win32-vc14-release:errno.obj
 0002:00010564       ??_C@_0DP@PDBNFLFH@Invalid?5STUN?5socket?5address?5len@ 0045b564     pjlib-util-i386-win32-vc14-release:errno.obj
 0002:000105a8       ??_C@_0EA@NAKPKGDE@STUN?5IPv6?5attribute?5not?5support@ 0045b5a8     pjlib-util-i386-win32-vc14-release:errno.obj
 0002:000105e8       ??_C@_0DO@LEKPMIHP@Expecting?5STUN?5response?5message@ 0045b5e8     pjlib-util-i386-win32-vc14-release:errno.obj
 0002:00010628       ??_C@_0DJ@DDEJFFIL@STUN?5transaction?5ID?5mismatch?5?$CIP@ 0045b628     pjlib-util-i386-win32-vc14-release:errno.obj
 0002:00010668       ??_C@_0EI@BNLBFIKH@Unable?5to?5find?5STUN?5handler?5for@ 0045b668     pjlib-util-i386-win32-vc14-release:errno.obj
 0002:000106b0       ??_C@_0FA@DIAPLEFD@Found?5non?9FINGERPRINT?5attr?4?5aft@ 0045b6b0     pjlib-util-i386-win32-vc14-release:errno.obj
 0002:00010700       ??_C@_0ED@CNMDGMPD@Found?5STUN?5attribute?5after?5FING@ 0045b700     pjlib-util-i386-win32-vc14-release:errno.obj
 0002:00010744       ??_C@_0DN@JLMAJAKN@Missing?5STUN?5USERNAME?5attribute@ 0045b744     pjlib-util-i386-win32-vc14-release:errno.obj
 0002:00010788       ??_C@_0EK@LMHKLKC@Missing?1invalid?5STUN?5MESSAGE?9IN@ 0045b788     pjlib-util-i386-win32-vc14-release:errno.obj
 0002:000107d4       ??_C@_0DJ@BCFNCGF@Found?5duplicate?5STUN?5attribute?5@ 0045b7d4     pjlib-util-i386-win32-vc14-release:errno.obj
 0002:00010810       ??_C@_0DH@MMHMOPBG@Missing?5STUN?5REALM?5attribute?5?$CIP@ 0045b810     pjlib-util-i386-win32-vc14-release:errno.obj
 0002:00010848       ??_C@_0EB@FGOGNHPO@Missing?1stale?5STUN?5NONCE?5attrib@ 0045b848     pjlib-util-i386-win32-vc14-release:errno.obj
 0002:00010890       ??_C@_0EF@HAPLEMIK@STUN?5transaction?5terminates?5wit@ 0045b890     pjlib-util-i386-win32-vc14-release:errno.obj
 0002:000108d8       ??_C@_0CL@GOOAEBLJ@Invalid?5URL?5format?5?$CIPJLIB_UTIL_@ 0045b8d8     pjlib-util-i386-win32-vc14-release:errno.obj
 0002:00010904       ??_C@_0DB@BDFJPAOA@Invalid?5URL?5port?5number?5?$CIPJLIB_@ 0045b904     pjlib-util-i386-win32-vc14-release:errno.obj
 0002:00010938       ??_C@_0DN@CABCKELB@Incomplete?5response?5header?5rece@ 0045b938     pjlib-util-i386-win32-vc14-release:errno.obj
 0002:00010978       ??_C@_0CN@MKMAKFDH@Insufficient?5buffer?5?$CIPJLIB_UTIL@ 0045b978     pjlib-util-i386-win32-vc14-release:errno.obj
 0002:000109a8       ??_C@_0CH@JNBFBBKA@Connection?5lost?5?$CIPJLIB_UTIL_EHT@ 0045b9a8     pjlib-util-i386-win32-vc14-release:errno.obj
 0002:000109d0       ??_C@_0CE@DHMMOEGP@Exit?5current?5session?5?$CIPJ_CLI_EE@ 0045b9d0     pjlib-util-i386-win32-vc14-release:errno.obj
 0002:000109f4       ??_C@_0CG@LEDMCEME@Missing?5argument?5?$CIPJ_CLI_EMISSI@ 0045b9f4     pjlib-util-i386-win32-vc14-release:errno.obj
 0002:00010a1c       ??_C@_0CJ@ECODGDHL@Too?5many?5arguments?5?$CIPJ_CLI_ETOO@ 0045ba1c     pjlib-util-i386-win32-vc14-release:errno.obj
 0002:00010a48       ??_C@_0CC@NLPGOLED@Invalid?5argument?5?$CIPJ_CLI_EINVAR@ 0045ba48     pjlib-util-i386-win32-vc14-release:errno.obj
 0002:00010a6c       ??_C@_0CO@OOEOBCH@Command?5name?5already?5exists?5?$CIPJ@ 0045ba6c     pjlib-util-i386-win32-vc14-release:errno.obj
 0002:00010a9c       ??_C@_0CK@MKOACJP@Command?5id?5already?5exists?5?$CIPJ_C@ 0045ba9c     pjlib-util-i386-win32-vc14-release:errno.obj
 0002:00010ac8       ??_C@_0CE@LHHCBFML@Invalid?5XML?5format?5?$CIPJ_CLI_EBAD@ 0045bac8     pjlib-util-i386-win32-vc14-release:errno.obj
 0002:00010aec       ??_C@_0CF@CKMLJLLP@Connection?5lost?5?$CIPJ_CLI_ETELNET@ 0045baec     pjlib-util-i386-win32-vc14-release:errno.obj
 0002:00010b14       ??_C@_0BM@LDLEGOFO@Unknown?5pjlib?9util?5error?5?$CFd@ 0045bb14     pjlib-util-i386-win32-vc14-release:errno.obj
 0002:00010b30       ??_C@_02BAABKJLB@?9?9@     0045bb30     pjlib-util-i386-win32-vc14-release:getopt.obj
 0002:00010b38       ??_C@_0HB@IDOGNKML@e?3?2my_ended_projects?2client_ser@ 0045bb38     pjlib-util-i386-win32-vc14-release:scanner.obj
 0002:00010bac       ??_C@_07IAIHCIDD@Probing@  0045bbac     pjlib-util-i386-win32-vc14-release:resolver.obj
 0002:00010bb4       ??_C@_06MAFFGDO@Active@    0045bbb4     pjlib-util-i386-win32-vc14-release:resolver.obj
 0002:00010bbc       ??_C@_03KHCCLPOB@Bad@      0045bbbc     pjlib-util-i386-win32-vc14-release:resolver.obj
 0002:00010bc0       ??_C@_0BH@PPEBBIFJ@?0?5will?5try?5again?5later@ 0045bbc0     pjlib-util-i386-win32-vc14-release:resolver.obj
 0002:00010bd8       ??_C@_0DC@GOFLGJND@Socket?5busy?5in?5transmitting?5DNS@ 0045bbd8     pjlib-util-i386-win32-vc14-release:resolver.obj
 0002:00010c0c       ??_C@_0N@IBGJGPJN@Transmitting@ 0045bc0c     pjlib-util-i386-win32-vc14-release:resolver.obj
 0002:00010c1c       ??_C@_0BA@JFAGDHFD@Re?9transmitting@ 0045bc1c     pjlib-util-i386-win32-vc14-release:resolver.obj
 0002:00010c2c       ??_C@_0DC@PBGKNNLN@?$CFs?5?$CFd?5bytes?5to?5NS?5?$CFd?5?$CI?$CFs?3?$CFd?$CJ?3?5D@ 0045bc2c     pjlib-util-i386-win32-vc14-release:resolver.obj
 0002:00010c60       ??_C@_0DE@LLACOPGB@Picked?5up?5DNS?5?$CFs?5record?5for?5?$CF?4?$CK@ 0045bc60     pjlib-util-i386-win32-vc14-release:resolver.obj
 0002:00010c94       ??_C@_0CJ@MMDCPKPE@Nameserver?5?$CFs?3?$CFd?5state?5changed?5@ 0045bc94     pjlib-util-i386-win32-vc14-release:resolver.obj
 0002:00010cc0       ??_C@_0BL@DBKKFGCL@Error?5transmitting?5request@ 0045bcc0     pjlib-util-i386-win32-vc14-release:resolver.obj
 0002:00010ce0       __xmm@ffffffffffffffffffffffffffffffff 0045bce0     pjlib-util-i386-win32-vc14-release:resolver.obj
 0002:00010cf0       ??_C@_01FHEEJDEE@A@        0045bcf0     pjlib-util-i386-win32-vc14-release:dns.obj
 0002:00010cf4       ??_C@_04OHNMNPPA@AAAA@     0045bcf4     pjlib-util-i386-win32-vc14-release:dns.obj
 0002:00010cfc       ??_C@_03IENKIAKD@SRV@      0045bcfc     pjlib-util-i386-win32-vc14-release:dns.obj
 0002:00010d00       ??_C@_02OLCMIILA@NS@       0045bd00     pjlib-util-i386-win32-vc14-release:dns.obj
 0002:00010d04       ??_C@_05PGNGFKDN@CNAME@    0045bd04     pjlib-util-i386-win32-vc14-release:dns.obj
 0002:00010d0c       ??_C@_03PGIOJGPL@PTR@      0045bd0c     pjlib-util-i386-win32-vc14-release:dns.obj
 0002:00010d10       ??_C@_02KJOOPCC@MX@        0045bd10     pjlib-util-i386-win32-vc14-release:dns.obj
 0002:00010d14       ??_C@_03CGKMFPEO@TXT@      0045bd14     pjlib-util-i386-win32-vc14-release:dns.obj
 0002:00010d18       ??_C@_05DGMJPCKB@NAPTR@    0045bd18     pjlib-util-i386-win32-vc14-release:dns.obj
 0002:00010d20       ??_C@_09ONJBBFFA@?$CIUnknown?$CJ@ 0045bd20     pjlib-util-i386-win32-vc14-release:dns.obj
 0002:00010d2c       ??_C@_01LFCBOECM@?4@       0045bd2c     pjlib-util-i386-win32-vc14-release:srv_resolver.obj
 0002:00010d30       ??_C@_0DA@GGGKMBOI@Starting?5async?5DNS?5?$CFs?5query_job@ 0045bd30     pjlib-util-i386-win32-vc14-release:srv_resolver.obj
 0002:00010d60       ??_C@_0CL@ICCMMEFF@Received?5non?5SRV?5answer?5for?5SRV@ 0045bd60     pjlib-util-i386-win32-vc14-release:srv_resolver.obj
 0002:00010d8c       ??_C@_0BG@OENDJHLB@Hostname?5is?5too?5long?$CB@ 0045bd8c     pjlib-util-i386-win32-vc14-release:srv_resolver.obj
 0002:00010da4       ??_C@_0BD@DHMAIAEI@Hostname?5is?5empty?$CB@ 0045bda4     pjlib-util-i386-win32-vc14-release:srv_resolver.obj
 0002:00010db8       ??_C@_0CJ@IGNPBKGN@Could?5not?5find?5SRV?5record?5in?5DN@ 0045bdb8     pjlib-util-i386-win32-vc14-release:srv_resolver.obj
 0002:00010de8       ??_C@_0EE@LPMFAMKM@SRV?5query_job?5for?5?$CF?4?$CKs?5complete@ 0045bde8     pjlib-util-i386-win32-vc14-release:srv_resolver.obj
 0002:00010e2c       ??_C@_0BM@MJBLDIAG@?5?$CFd?3?5SRV?5?$CFd?5?$CFd?5?$CFd?5?$CF?4?$CKs?5?$CI?$CFs?$CJ@ 0045be2c     pjlib-util-i386-win32-vc14-release:srv_resolver.obj
 0002:00010e48       ??_C@_0CI@IBPJGCBL@Starting?5async?5DNS?5A?5query_job?5@ 0045be48     pjlib-util-i386-win32-vc14-release:srv_resolver.obj
 0002:00010e70       ??_C@_0CM@EKCLKLC@Discard?5truncated?5DNS?5SRV?5respo@ 0045be70     pjlib-util-i386-win32-vc14-release:srv_resolver.obj
 0002:00010e9c       ??_C@_0CH@COCLGFLO@DNS?5SRV?5resolution?5failed?5for?5?$CF@ 0045be9c     pjlib-util-i386-win32-vc14-release:srv_resolver.obj
 0002:00010ec8       ??_C@_0EM@PBBBMOKP@DNS?5SRV?5resolution?5failed?5for?5?$CF@ 0045bec8     pjlib-util-i386-win32-vc14-release:srv_resolver.obj
 0002:00010f14       ??_C@_0CG@JECPCAPF@DNS?5?$CFs?5record?5parse?5error?5for?5?8@ 0045bf14     pjlib-util-i386-win32-vc14-release:srv_resolver.obj
 0002:00010f3c       ??_C@_0CM@GNPJLEOH@Bad?5address?5family?5in?5DNS?5?$CFs?5qu@ 0045bf3c     pjlib-util-i386-win32-vc14-release:srv_resolver.obj
 0002:00010f68       ??_C@_0BE@BLHHGJAP@DNS?5?$CFs?5for?5?$CF?4?$CKs?3?5?$CFs@ 0045bf68     pjlib-util-i386-win32-vc14-release:srv_resolver.obj
 0002:00010f7c       ??_C@_0CA@PGHOBDIK@DNS?5?$CFs?5record?5resolution?5failed@ 0045bf7c     pjlib-util-i386-win32-vc14-release:srv_resolver.obj
 0002:00010f9c       ??_C@_0DF@NMOAKAGH@Server?5resolution?5complete?0?5?$CFd?5@ 0045bf9c     pjlib-util-i386-win32-vc14-release:srv_resolver.obj
 0002:00010fd4       ??_C@_0CL@MGFFFLJG@DNS?5?$CFs?5record?5resolution?5error?5@ 0045bfd4     pjlib-util-i386-win32-vc14-release:srv_resolver.obj
 0002:00011040       ??_C@_04IFCNACLH@pj?$CFp@  0045c040     pjlib-i386-win32-vc14-release:os_core_win32.obj
 0002:00011048       ??_C@_0BA@NGJFHJA@PJLIB?1No?5memory@ 0045c048     pjlib-i386-win32-vc14-release:os_core_win32.obj
 0002:00011058       ??_C@_0BP@NGEKBPIB@pjlib?5?$CFs?5for?5win32?5initialized@ 0045c058     pjlib-i386-win32-vc14-release:os_core_win32.obj
 0002:00011078       ??_C@_0BA@FNCACAIG@os_core_win32?4c@ 0045c078     pjlib-i386-win32-vc14-release:os_core_win32.obj
 0002:00011088       ??_C@_0CI@EAKIIBBA@Main?5thread?5stack?5max?5usage?$DN?$CFu?5@ 0045c088     pjlib-i386-win32-vc14-release:os_core_win32.obj
 0002:000110b0       ??_C@_0GK@OEPMDMLM@e?3?2my_ended_projects?2client_ser@ 0045c0b0     pjlib-i386-win32-vc14-release:os_core_win32.obj
 0002:0001111c       ??_C@_05KHEDLION@thr?$CFp@ 0045c11c     pjlib-i386-win32-vc14-release:os_core_win32.obj
 0002:00011124       ??_C@_0CD@GPHECFNA@Thread?5stack?5max?5usage?$DN?$CFu?5by?5?$CFs@ 0045c124     pjlib-i386-win32-vc14-release:os_core_win32.obj
 0002:00011148       ??_C@_05EJDHHBFJ@mtx?$CFp@ 0045c148     pjlib-i386-win32-vc14-release:os_core_win32.obj
 0002:00011150       ??_C@_05EKKMALCN@sem?$CFp@ 0045c150     pjlib-i386-win32-vc14-release:os_core_win32.obj
 0002:00011158       ??_C@_0GC@NMIBFAJA@e?3?2my_ended_projects?2client_ser@ 0045c158     pjlib-i386-win32-vc14-release:types.obj
 0002:00011280       ??_C@_0BM@FLPPOGAG@Unknown?5Error?5?$CIPJ_EUNKNOWN?$CJ@ 0045c280     pjlib-i386-win32-vc14-release:errno.obj
 0002:0001129c       ??_C@_0CA@DCLOOJGD@Pending?5operation?5?$CIPJ_EPENDING?$CJ@ 0045c29c     pjlib-i386-win32-vc14-release:errno.obj
 0002:000112bc       ??_C@_0CO@GABEOAFF@Too?5many?5connecting?5sockets?5?$CIPJ@ 0045c2bc     pjlib-i386-win32-vc14-release:errno.obj
 0002:000112ec       ??_C@_0CG@CBCJBJGD@Invalid?5value?5or?5argument?5?$CIPJ_E@ 0045c2ec     pjlib-i386-win32-vc14-release:errno.obj
 0002:00011314       ??_C@_0CA@GJABNEKD@Name?5too?5long?5?$CIPJ_ENAMETOOLONG?$CJ@ 0045c314     pjlib-i386-win32-vc14-release:errno.obj
 0002:00011334       ??_C@_0BJ@JNKLPII@Not?5found?5?$CIPJ_ENOTFOUND?$CJ@ 0045c334     pjlib-i386-win32-vc14-release:errno.obj
 0002:00011350       ??_C@_0BO@GOLCMJKK@Not?5enough?5memory?5?$CIPJ_ENOMEM?$CJ@ 0045c350     pjlib-i386-win32-vc14-release:errno.obj
 0002:00011370       ??_C@_0BI@HHGDCAID@BUG?5DETECTED?$CB?5?$CIPJ_EBUG?$CJ@ 0045c370     pjlib-i386-win32-vc14-release:errno.obj
 0002:00011388       ??_C@_0CD@JOGIDHPJ@Operation?5timed?5out?5?$CIPJ_ETIMEDO@ 0045c388     pjlib-i386-win32-vc14-release:errno.obj
 0002:000113ac       ??_C@_0DF@MIFNAIHL@Too?5many?5objects?5of?5the?5specifi@ 0045c3ac     pjlib-i386-win32-vc14-release:errno.obj
 0002:000113e4       ??_C@_0BK@OMPILOH@Object?5is?5busy?5?$CIPJ_EBUSY?$CJ@ 0045c3e4     pjlib-i386-win32-vc14-release:errno.obj
 0002:00011400       ??_C@_0CP@BAIBJOJE@Option?1operation?5is?5not?5support@ 0045c400     pjlib-i386-win32-vc14-release:errno.obj
 0002:00011430       ??_C@_0CC@OEEEEEML@Invalid?5operation?5?$CIPJ_EINVALIDO@ 0045c430     pjlib-i386-win32-vc14-release:errno.obj
 0002:00011454       ??_C@_0CE@KDDMJLGF@Operation?5cancelled?5?$CIPJ_ECANCEL@ 0045c454     pjlib-i386-win32-vc14-release:errno.obj
 0002:00011478       ??_C@_0CD@LODOFNLC@Object?5already?5exists?5?$CIPJ_EEXIS@ 0045c478     pjlib-i386-win32-vc14-release:errno.obj
 0002:0001149c       ??_C@_0BG@GMBDFNLN@End?5of?5file?5?$CIPJ_EEOF?$CJ@ 0045c49c     pjlib-i386-win32-vc14-release:errno.obj
 0002:000114b4       ??_C@_0BN@PCCNBFLN@Size?5is?5too?5big?5?$CIPJ_ETOOBIG?$CJ@ 0045c4b4     pjlib-i386-win32-vc14-release:errno.obj
 0002:000114d4       ??_C@_0DB@FDCHLEID@gethostbyname?$CI?$CJ?5has?5returned?5er@ 0045c4d4     pjlib-i386-win32-vc14-release:errno.obj
 0002:00011508       ??_C@_0CB@MGGLJMNO@Size?5is?5too?5short?5?$CIPJ_ETOOSMALL@ 0045c508     pjlib-i386-win32-vc14-release:errno.obj
 0002:0001152c       ??_C@_0BG@NBDJGAFI@Ignored?5?$CIPJ_EIGNORED?$CJ@ 0045c52c     pjlib-i386-win32-vc14-release:errno.obj
 0002:00011544       ??_C@_0CH@OGOOBJBE@IPv6?5is?5not?5supported?5?$CIPJ_EIPV6@ 0045c544     pjlib-i386-win32-vc14-release:errno.obj
 0002:0001156c       ??_C@_0CK@DJAHHNOI@Unsupported?5address?5family?5?$CIPJ_@ 0045c56c     pjlib-i386-win32-vc14-release:errno.obj
 0002:00011598       ??_C@_0CD@PDGCJOJH@Object?5no?5longer?5exists?5?$CIPJ_EGO@ 0045c598     pjlib-i386-win32-vc14-release:errno.obj
 0002:000115bc       ??_C@_0CI@LBHALONI@Socket?5is?5in?5bad?5state?5?$CIPJ_ESOC@ 0045c5bc     pjlib-i386-win32-vc14-release:errno.obj
 0002:000115e4       ??_C@_0BH@ONDLFCEA@Unknown?5pjlib?5error?5?$CFd@ 0045c5e4     pjlib-i386-win32-vc14-release:errno.obj
 0002:000115fc       ??_C@_07PBILKAFL@Success@  0045c5fc     pjlib-i386-win32-vc14-release:errno.obj
 0002:00011604       ??_C@_0BB@BIKLJNJD@Unknown?5error?5?$CFd@ 0045c604     pjlib-i386-win32-vc14-release:errno.obj
 0002:00011618       ??_C@_05NAOIJFC@Error@     0045c618     pjlib-i386-win32-vc14-release:errno.obj
 0002:00011620       ??_C@_06DJHOIPC@?$CFs?3?5?$CFs@ 0045c620     pjlib-i386-win32-vc14-release:errno.obj
 0002:00011628       _PJ_AF_UNSPEC              0045c628     pjlib-i386-win32-vc14-release:sock_bsd.obj
 0002:0001162c       _PJ_AF_UNIX                0045c62c     pjlib-i386-win32-vc14-release:sock_bsd.obj
 0002:00011630       _PJ_AF_INET                0045c630     pjlib-i386-win32-vc14-release:sock_bsd.obj
 0002:00011634       _PJ_AF_INET6               0045c634     pjlib-i386-win32-vc14-release:sock_bsd.obj
 0002:00011638       _PJ_AF_PACKET              0045c638     pjlib-i386-win32-vc14-release:sock_bsd.obj
 0002:0001163c       _PJ_AF_IRDA                0045c63c     pjlib-i386-win32-vc14-release:sock_bsd.obj
 0002:00011640       _PJ_SOCK_STREAM            0045c640     pjlib-i386-win32-vc14-release:sock_bsd.obj
 0002:00011644       _PJ_SOCK_DGRAM             0045c644     pjlib-i386-win32-vc14-release:sock_bsd.obj
 0002:00011648       _PJ_SOCK_RAW               0045c648     pjlib-i386-win32-vc14-release:sock_bsd.obj
 0002:0001164c       _PJ_SOCK_RDM               0045c64c     pjlib-i386-win32-vc14-release:sock_bsd.obj
 0002:00011650       _PJ_SOL_SOCKET             0045c650     pjlib-i386-win32-vc14-release:sock_bsd.obj
 0002:00011654       _PJ_SOL_IP                 0045c654     pjlib-i386-win32-vc14-release:sock_bsd.obj
 0002:00011658       _PJ_SOL_TCP                0045c658     pjlib-i386-win32-vc14-release:sock_bsd.obj
 0002:0001165c       _PJ_SOL_UDP                0045c65c     pjlib-i386-win32-vc14-release:sock_bsd.obj
 0002:00011660       _PJ_SOL_IPV6               0045c660     pjlib-i386-win32-vc14-release:sock_bsd.obj
 0002:00011664       _PJ_IP_TOS                 0045c664     pjlib-i386-win32-vc14-release:sock_bsd.obj
 0002:00011668       _PJ_IPTOS_LOWDELAY         0045c668     pjlib-i386-win32-vc14-release:sock_bsd.obj
 0002:0001166c       _PJ_IPTOS_THROUGHPUT       0045c66c     pjlib-i386-win32-vc14-release:sock_bsd.obj
 0002:00011670       _PJ_IPTOS_RELIABILITY      0045c670     pjlib-i386-win32-vc14-release:sock_bsd.obj
 0002:00011674       _PJ_IPTOS_MINCOST          0045c674     pjlib-i386-win32-vc14-release:sock_bsd.obj
 0002:00011678       _PJ_IPV6_TCLASS            0045c678     pjlib-i386-win32-vc14-release:sock_bsd.obj
 0002:0001167c       _PJ_SO_TYPE                0045c67c     pjlib-i386-win32-vc14-release:sock_bsd.obj
 0002:00011680       _PJ_SO_RCVBUF              0045c680     pjlib-i386-win32-vc14-release:sock_bsd.obj
 0002:00011684       _PJ_SO_SNDBUF              0045c684     pjlib-i386-win32-vc14-release:sock_bsd.obj
 0002:00011688       _PJ_TCP_NODELAY            0045c688     pjlib-i386-win32-vc14-release:sock_bsd.obj
 0002:0001168c       _PJ_SO_REUSEADDR           0045c68c     pjlib-i386-win32-vc14-release:sock_bsd.obj
 0002:00011690       _PJ_SO_NOSIGPIPE           0045c690     pjlib-i386-win32-vc14-release:sock_bsd.obj
 0002:00011694       _PJ_SO_PRIORITY            0045c694     pjlib-i386-win32-vc14-release:sock_bsd.obj
 0002:00011698       _PJ_IP_MULTICAST_IF        0045c698     pjlib-i386-win32-vc14-release:sock_bsd.obj
 0002:0001169c       _PJ_IP_MULTICAST_TTL       0045c69c     pjlib-i386-win32-vc14-release:sock_bsd.obj
 0002:000116a0       _PJ_IP_MULTICAST_LOOP      0045c6a0     pjlib-i386-win32-vc14-release:sock_bsd.obj
 0002:000116a4       _PJ_IP_ADD_MEMBERSHIP      0045c6a4     pjlib-i386-win32-vc14-release:sock_bsd.obj
 0002:000116a8       _PJ_IP_DROP_MEMBERSHIP     0045c6a8     pjlib-i386-win32-vc14-release:sock_bsd.obj
 0002:000116ac       _PJ_MSG_OOB                0045c6ac     pjlib-i386-win32-vc14-release:sock_bsd.obj
 0002:000116b0       _PJ_MSG_PEEK               0045c6b0     pjlib-i386-win32-vc14-release:sock_bsd.obj
 0002:000116b4       _PJ_MSG_DONTROUTE          0045c6b4     pjlib-i386-win32-vc14-release:sock_bsd.obj
 0002:000116b8       ??_C@_0GF@IGHLODMD@e?3?2my_ended_projects?2client_ser@ 0045c6b8     pjlib-i386-win32-vc14-release:sock_bsd.obj
 0002:00011720       ??_C@_0CE@IJGJDCPP@Warning?3?5error?5applying?5sock?5op@ 0045c720     pjlib-i386-win32-vc14-release:sock_bsd.obj
 0002:00011744       ??_C@_0L@NNKPLKFK@sock_bsd?4c@ 0045c744     pjlib-i386-win32-vc14-release:sock_bsd.obj
 0002:00011750       ??_C@_03HODKBCIO@?3?$CFd@  0045c750     pjlib-i386-win32-vc14-release:sock_common.obj
 0002:00011754       ??_C@_08KJEDNCKC@?$CFs?$CFs?$CFs?$CFs@ 0045c754     pjlib-i386-win32-vc14-release:sock_common.obj
 0002:00011760       ??_C@_0GI@GDFMBDIN@e?3?2my_ended_projects?2client_ser@ 0045c760     pjlib-i386-win32-vc14-release:sock_common.obj
 0002:000117c8       ??_C@_07EBPGIHEF@1?41?41?41@ 0045c7c8     pjlib-i386-win32-vc14-release:sock_common.obj
 0002:000117d0       ??_C@_04NFKLOGOF@1?3?31@   0045c7d0     pjlib-i386-win32-vc14-release:sock_common.obj
 0002:000117d8       ??_C@_0M@HMJLLIPA@?$CFs?$CF?4?$CKs?$CFs?3?$CFd@ 0045c7d8     pjlib-i386-win32-vc14-release:sock_common.obj
 0002:000117e4       ??_C@_08JLADFOFK@?$CFs?$CF?4?$CKs?$CFs@ 0045c7e4     pjlib-i386-win32-vc14-release:sock_common.obj
 0002:000117f0       ??_C@_0GB@BMCNGJCL@e?3?2my_ended_projects?2client_ser@ 0045c7f0     pjlib-i386-win32-vc14-release:pool.obj
 0002:00011858       ??_C@_0GJ@OFJCKNNJ@e?3?2my_ended_projects?2client_ser@ 0045c858     pjlib-i386-win32-vc14-release:pool_caching.obj
 0002:000118c4       ??_C@_0M@IGFPEOLJ@cachingpool@ 0045c8c4     pjlib-i386-win32-vc14-release:pool_caching.obj
 0002:000118d0       ??_C@_0DD@ECGDPCBA@Pool?5is?5not?5released?5by?5applica@ 0045c8d0     pjlib-i386-win32-vc14-release:pool_caching.obj
 0002:00011904       ??_C@_0BH@BBPHJKOA@?5Dumping?5caching?5pool?3@ 0045c904     pjlib-i386-win32-vc14-release:pool_caching.obj
 0002:0001191c       ??_C@_08COPEICHG@cachpool@ 0045c91c     pjlib-i386-win32-vc14-release:pool_caching.obj
 0002:00011928       ??_C@_0CN@DOKPIIOH@?5?5?5Capacity?$DN?$CFu?0?5max_capacity?$DN?$CFu@ 0045c928     pjlib-i386-win32-vc14-release:pool_caching.obj
 0002:00011958       ??_C@_0BM@IDLDGCC@?5?5Dumping?5all?5active?5pools?3@ 0045c958     pjlib-i386-win32-vc14-release:pool_caching.obj
 0002:00011974       ??_C@_0CA@MMLIKIEG@?5?5?5?$CF16s?3?5?$CF8d?5of?5?$CF8d?5?$CI?$CFd?$CF?$CF?$CJ?5used@ 0045c974     pjlib-i386-win32-vc14-release:pool_caching.obj
 0002:00011994       ??_C@_0CB@GKBJPDKG@?5?5Total?5?$CF9d?5of?5?$CF9d?5?$CI?$CFd?5?$CF?$CF?$CJ?5used@ 0045c994     pjlib-i386-win32-vc14-release:pool_caching.obj
 0002:000119b8       ??_C@_0GD@KHBENJCN@e?3?2my_ended_projects?2client_ser@ 0045c9b8     pjlib-i386-win32-vc14-release:string.obj
 0002:00011a20       ??_C@_0GO@PPMBLOMI@e?3?2my_ended_projects?2client_ser@ 0045ca20     pjlib-i386-win32-vc14-release:log_writer_stdout.obj
 0002:00011a90       ??_C@_06DDFOEFIF@FATAL?3@  0045ca90     pjlib-i386-win32-vc14-release:log.obj
 0002:00011a98       ??_C@_06PONDCDME@ERROR?3@  0045ca98     pjlib-i386-win32-vc14-release:log.obj
 0002:00011aa0       ??_C@_06OHJPOJDB@?5WARN?3@ 0045caa0     pjlib-i386-win32-vc14-release:log.obj
 0002:00011aa8       ??_C@_06ICKKLHPE@?5INFO?3@ 0045caa8     pjlib-i386-win32-vc14-release:log.obj
 0002:00011ab0       ??_C@_06DNOFLLB@DEBUG?3@   0045cab0     pjlib-i386-win32-vc14-release:log.obj
 0002:00011ab8       ??_C@_06ELIFFDKB@TRACE?3@  0045cab8     pjlib-i386-win32-vc14-release:log.obj
 0002:00011ac0       ??_C@_06HGKAKJPG@DETRC?3@  0045cac0     pjlib-i386-win32-vc14-release:log.obj
 0002:00011ac8       ??_C@_03KOEHGMDN@Sun@      0045cac8     pjlib-i386-win32-vc14-release:log.obj
 0002:00011acc       ??_C@_03PDAGKDH@Mon@       0045cacc     pjlib-i386-win32-vc14-release:log.obj
 0002:00011ad0       ??_C@_03NAGEINEP@Tue@      0045cad0     pjlib-i386-win32-vc14-release:log.obj
 0002:00011ad4       ??_C@_03MHOMLAJA@Wed@      0045cad4     pjlib-i386-win32-vc14-release:log.obj
 0002:00011ad8       ??_C@_03IOFIKPDN@Thu@      0045cad8     pjlib-i386-win32-vc14-release:log.obj
 0002:00011adc       ??_C@_03IDIOELNC@Fri@      0045cadc     pjlib-i386-win32-vc14-release:log.obj
 0002:00011ae0       ??_C@_03FEFJNEK@Sat@       0045cae0     pjlib-i386-win32-vc14-release:log.obj
 0002:00011ae8       ??_C@_0GA@BCNKPLFK@e?3?2my_ended_projects?2client_ser@ 0045cae8     pjlib-i386-win32-vc14-release:log.obj
 0002:00011b48       ??_C@_0BO@BGMDCDKP@?$DMlogging?5error?3?5msg?5too?5long?$DO@ 0045cb48     pjlib-i386-win32-vc14-release:log.obj
 0002:00011b68       ??_C@_0GB@EJGMBICN@e?3?2my_ended_projects?2client_ser@ 0045cb68     pjlib-i386-win32-vc14-release:rand.obj
 0002:00011bd0       ??_C@_0GP@GCEOBDNL@e?3?2my_ended_projects?2client_ser@ 0045cbd0     pjlib-i386-win32-vc14-release:pool_policy_malloc.obj
 0002:00011c40       ??_C@_06HALIBNKJ@glck?$CFp@ 0045cc40     pjlib-i386-win32-vc14-release:lock.obj
 0002:00011c48       ??_C@_0GC@LMKLLKHO@e?3?2my_ended_projects?2client_ser@ 0045cc48     pjlib-i386-win32-vc14-release:timer.obj
 0002:00011cac       ??_C@_0CJ@PPAMFOOJ@Bug?$CB?5Rescheduling?5outstanding?5e@ 0045ccac     pjlib-i386-win32-vc14-release:timer.obj
 0002:00011cd8       ??_C@_07PEGEGJOK@timer?4c@ 0045ccd8     pjlib-i386-win32-vc14-release:timer.obj
 0002:00011ce0       ??_C@_0GP@DEBEJMPJ@e?3?2my_ended_projects?2client_ser@ 0045cce0     pjlib-i386-win32-vc14-release:ioqueue_select.obj
 0002:00011d50       ??_C@_05LIJONKFG@ioq?$CFp@ 0045cd50     pjlib-i386-win32-vc14-release:ioqueue_select.obj
 0002:00011d58       ??_C@_0CA@IMDCINDN@select?$CI?$CJ?5I?1O?5Queue?5created?5?$CI?$CFp?$CJ@ 0045cd58     pjlib-i386-win32-vc14-release:ioqueue_select.obj
 0002:00011d78       ??_C@_05PHKAINEA@pjlib@    0045cd78     pjlib-i386-win32-vc14-release:ioqueue_select.obj
 0002:00011d80       ??_C@_0CJ@NPMLHLI@Bad?5ioqueue?5count?5in?5key?5unregi@ 0045cd80     pjlib-i386-win32-vc14-release:ioqueue_select.obj
 0002:00011dac       ??_C@_0L@CAJCIPAG@ioq_select@ 0045cdac     pjlib-i386-win32-vc14-release:ioqueue_select.obj
 0002:00011db8       ??_C@_0CD@KFHCCJFN@?$CB?$CB?$CBFATAL?3?5unhandled?5exception?5?$CF@ 0045cdb8     pjlib-i386-win32-vc14-release:except.obj
 0002:00011ddc       ??_C@_08PDFMOJIE@except?4c@ 0045cddc     pjlib-i386-win32-vc14-release:except.obj
 0002:00011de8       ??_C@_0N@GJOLEKJC@?$DMInvalid?5ID?$DO@ 0045cde8     pjlib-i386-win32-vc14-release:except.obj
 0002:00011df8       ??_C@_0N@LJPLLMIL@exception?5?$CFd@ 0045cdf8     pjlib-i386-win32-vc14-release:except.obj
 0002:00011e08       ??_C@_0GB@FIGEDHCG@e?3?2my_ended_projects?2client_ser@ 0045ce08     pjlib-i386-win32-vc14-release:hash.obj
 0002:00012000       ??_C@_0CD@FNMHLHMI@Interrupted?5system?5call?5?$CIWSAEIN@ 0045d000     pjlib-i386-win32-vc14-release:os_error_win32.obj
 0002:00012024       ??_C@_0BL@OKPDNKLH@Bad?5file?5number?5?$CIWSAEBADF?$CJ@ 0045d024     pjlib-i386-win32-vc14-release:os_error_win32.obj
 0002:00012040       ??_C@_0BO@BMBEEPBP@Permission?5denied?5?$CIWSAEACCES?$CJ@ 0045d040     pjlib-i386-win32-vc14-release:os_error_win32.obj
 0002:00012060       ??_C@_0BI@LAKHPJJ@Bad?5address?5?$CIWSAEFAULT?$CJ@ 0045d060     pjlib-i386-win32-vc14-release:os_error_win32.obj
 0002:00012078       ??_C@_0BN@FEIDINKH@Invalid?5argument?5?$CIWSAEINVAL?$CJ@ 0045d078     pjlib-i386-win32-vc14-release:os_error_win32.obj
 0002:00012098       ??_C@_0CC@HMKKNDGL@Too?5many?5open?5sockets?5?$CIWSAEMFIL@ 0045d098     pjlib-i386-win32-vc14-release:os_error_win32.obj
 0002:000120bc       ??_C@_0CH@GCPPFMGM@Operation?5would?5block?5?$CIWSAEWOUL@ 0045d0bc     pjlib-i386-win32-vc14-release:os_error_win32.obj
 0002:000120e4       ??_C@_0CL@DKGHEPCD@Operation?5now?5in?5progress?5?$CIWSAE@ 0045d0e4     pjlib-i386-win32-vc14-release:os_error_win32.obj
 0002:00012110       ??_C@_0CM@BEMCBKDH@Operation?5already?5in?5progress?5?$CI@ 0045d110     pjlib-i386-win32-vc14-release:os_error_win32.obj
 0002:0001213c       ??_C@_0CN@PAFKDEBN@Socket?5operation?5on?5non?9socket?5@ 0045d13c     pjlib-i386-win32-vc14-release:os_error_win32.obj
 0002:0001216c       ??_C@_0CP@HCDICECK@Destination?5address?5required?5?$CIW@ 0045d16c     pjlib-i386-win32-vc14-release:os_error_win32.obj
 0002:0001219c       ??_C@_0BP@LNFPBFEK@Message?5too?5long?5?$CIWSAEMSGSIZE?$CJ@ 0045d19c     pjlib-i386-win32-vc14-release:os_error_win32.obj
 0002:000121bc       ??_C@_0CP@MMIMIEMF@Protocol?5wrong?5type?5for?5socket?5@ 0045d1bc     pjlib-i386-win32-vc14-release:os_error_win32.obj
 0002:000121ec       ??_C@_0CF@HNFLHOHA@Bad?5protocol?5option?5?$CIWSAENOPROT@ 0045d1ec     pjlib-i386-win32-vc14-release:os_error_win32.obj
 0002:00012214       ??_C@_0CM@HPGHEHCE@Protocol?5not?5supported?5?$CIWSAEPRO@ 0045d214     pjlib-i386-win32-vc14-release:os_error_win32.obj
 0002:00012240       ??_C@_0CP@JLBNHCOL@Socket?5type?5not?5supported?5?$CIWSAE@ 0045d240     pjlib-i386-win32-vc14-release:os_error_win32.obj
 0002:00012270       ??_C@_0DC@GJMFANID@Operation?5not?5supported?5on?5sock@ 0045d270     pjlib-i386-win32-vc14-release:os_error_win32.obj
 0002:000122a4       ??_C@_0DA@GFNBENIG@Protocol?5family?5not?5supported?5?$CI@ 0045d2a4     pjlib-i386-win32-vc14-release:os_error_win32.obj
 0002:000122d4       ??_C@_0CP@MMKHGIFC@Address?5family?5not?5supported?5?$CIW@ 0045d2d4     pjlib-i386-win32-vc14-release:os_error_win32.obj
 0002:00012304       ??_C@_0CH@OCKNFBKE@Address?5already?5in?5use?5?$CIWSAEADD@ 0045d304     pjlib-i386-win32-vc14-release:os_error_win32.obj
 0002:0001232c       ??_C@_0DC@FJJPJPOD@Can?8t?5assign?5requested?5address?5@ 0045d32c     pjlib-i386-win32-vc14-release:os_error_win32.obj
 0002:00012360       ??_C@_0BO@IICKDHLJ@Network?5is?5down?5?$CIWSAENETDOWN?$CJ@ 0045d360     pjlib-i386-win32-vc14-release:os_error_win32.obj
 0002:00012380       ??_C@_0CI@NKJAACME@Network?5is?5unreachable?5?$CIWSAENET@ 0045d380     pjlib-i386-win32-vc14-release:os_error_win32.obj
 0002:000123a8       ??_C@_0CE@LJEEEFEC@Net?5connection?5reset?5?$CIWSAENETRE@ 0045d3a8     pjlib-i386-win32-vc14-release:os_error_win32.obj
 0002:000123cc       ??_C@_0DD@PGDIHOBG@Software?5caused?5connection?5abor@ 0045d3cc     pjlib-i386-win32-vc14-release:os_error_win32.obj
 0002:00012400       ??_C@_0CJ@PJHCFAAN@Connection?5reset?5by?5peer?5?$CIWSAEC@ 0045d400     pjlib-i386-win32-vc14-release:os_error_win32.obj
 0002:0001242c       ??_C@_0CH@EKNGIMKN@No?5buffer?5space?5available?5?$CIWSAE@ 0045d42c     pjlib-i386-win32-vc14-release:os_error_win32.obj
 0002:00012454       ??_C@_0CJ@JOPBNNOD@Socket?5is?5already?5connected?5?$CIWS@ 0045d454     pjlib-i386-win32-vc14-release:os_error_win32.obj
 0002:00012480       ??_C@_0CG@CECDMHLL@Socket?5is?5not?5connected?5?$CIWSAENO@ 0045d480     pjlib-i386-win32-vc14-release:os_error_win32.obj
 0002:000124a8       ??_C@_0DA@JGJMJPNM@Can?8t?5send?5after?5socket?5shutdow@ 0045d4a8     pjlib-i386-win32-vc14-release:os_error_win32.obj
 0002:000124d8       ??_C@_0DE@CAILNFFE@Too?5many?5references?0?5can?8t?5spli@ 0045d4d8     pjlib-i386-win32-vc14-release:os_error_win32.obj
 0002:0001250c       ??_C@_0CE@IIKHBGF@Connection?5timed?5out?5?$CIWSAETIMED@ 0045d50c     pjlib-i386-win32-vc14-release:os_error_win32.obj
 0002:00012530       ??_C@_0CF@JMKFBJH@Connection?5refused?5?$CIWSAECONNREF@ 0045d530     pjlib-i386-win32-vc14-release:os_error_win32.obj
 0002:00012558       ??_C@_0CN@FCKBNFMB@Too?5many?5levels?5of?5symbolic?5lin@ 0045d558     pjlib-i386-win32-vc14-release:os_error_win32.obj
 0002:00012588       ??_C@_0CF@MOFKOMBB@File?5name?5too?5long?5?$CIWSAENAMETOO@ 0045d588     pjlib-i386-win32-vc14-release:os_error_win32.obj
 0002:000125b0       ??_C@_0BM@NCJCEEDP@Host?5is?5down?5?$CIWSAEHOSTDOWN?$CJ@ 0045d5b0     pjlib-i386-win32-vc14-release:os_error_win32.obj
 0002:000125cc       ??_C@_0CD@ECJOJHBH@No?5route?5to?5host?5?$CIWSAEHOSTUNREA@ 0045d5cc     pjlib-i386-win32-vc14-release:os_error_win32.obj
 0002:000125f0       ??_C@_0CD@NEFLEHEG@Directory?5not?5empty?5?$CIWSAENOTEMP@ 0045d5f0     pjlib-i386-win32-vc14-release:os_error_win32.obj
 0002:00012614       ??_C@_0CB@GPCGLHOJ@Too?5many?5processes?5?$CIWSAEPROCLIM@ 0045d614     pjlib-i386-win32-vc14-release:os_error_win32.obj
 0002:00012638       ??_C@_0BL@IGHJMJKO@Too?5many?5users?5?$CIWSAEUSERS?$CJ@ 0045d638     pjlib-i386-win32-vc14-release:os_error_win32.obj
 0002:00012654       ??_C@_0CA@MIOFDKMA@Disc?5quota?5exceeded?5?$CIWSAEDQUOT?$CJ@ 0045d654     pjlib-i386-win32-vc14-release:os_error_win32.obj
 0002:00012674       ??_C@_0CC@IMLIDHNH@Stale?5NFS?5file?5handle?5?$CIWSAESTAL@ 0045d674     pjlib-i386-win32-vc14-release:os_error_win32.obj
 0002:00012698       ??_C@_0CP@MLAFGPOA@Too?5many?5levels?5of?5remote?5in?5pa@ 0045d698     pjlib-i386-win32-vc14-release:os_error_win32.obj
 0002:000126c8       ??_C@_0CP@IBAEMKGH@Network?5system?5is?5unavailable?5?$CI@ 0045d6c8     pjlib-i386-win32-vc14-release:os_error_win32.obj
 0002:000126f8       ??_C@_0DC@BLAKHMMJ@Winsock?5version?5out?5of?5range?5?$CIW@ 0045d6f8     pjlib-i386-win32-vc14-release:os_error_win32.obj
 0002:0001272c       ??_C@_0CO@HPDHHDHA@WSAStartup?5not?5yet?5called?5?$CIWSAN@ 0045d72c     pjlib-i386-win32-vc14-release:os_error_win32.obj
 0002:0001275c       ??_C@_0CL@GFDHEKLB@Graceful?5shutdown?5in?5progress?5?$CI@ 0045d75c     pjlib-i386-win32-vc14-release:os_error_win32.obj
 0002:00012788       ??_C@_0CD@OEALOMDH@Host?5not?5found?5?$CIWSAHOST_NOT_FOU@ 0045d788     pjlib-i386-win32-vc14-release:os_error_win32.obj
 0002:000127ac       ??_C@_0DB@KFPHELLI@No?5host?5data?5of?5that?5type?5was?5f@ 0045d7ac     pjlib-i386-win32-vc14-release:os_error_win32.obj
 0002:000127e0       ??_C@_0BE@JPHLLAEM@Win32?5error?5code?5?$CFu@ 0045d7e0     pjlib-i386-win32-vc14-release:os_error_win32.obj
 0002:000127f4       _PJ_GUID_STRING_LENGTH     0045d7f4     pjlib-i386-win32-vc14-release:guid_win32.obj
 0002:000127f8       ??_C@_0GH@JJENMMDP@e?3?2my_ended_projects?2client_ser@ 0045d7f8     pjlib-i386-win32-vc14-release:guid_win32.obj
 0002:00012890       ??_C@_0BC@GPHMAKPK@sock_qos_common?4c@ 0045d890     pjlib-i386-win32-vc14-release:sock_qos_common.obj
 0002:000128a4       ??_C@_06HBELJPBO@socket@   0045d8a4     pjlib-i386-win32-vc14-release:sock_qos_common.obj
 0002:000128ac       ??_C@_0CA@EBJCMLJI@Error?5setting?5QoS?5type?5?$CFd?5to?5?$CFs@ 0045d8ac     pjlib-i386-win32-vc14-release:sock_qos_common.obj
 0002:000128cc       ??_C@_0CK@CGDCCPNL@Error?5setting?5QoS?5params?5?$CIflags@ 0045d8cc     pjlib-i386-win32-vc14-release:sock_qos_common.obj
 0002:000128f8       ??_C@_08DOCHLGNA@config?4c@ 0045d8f8     pjlib-i386-win32-vc14-release:config.obj
 0002:00012904       ??_C@_03LIMOPGJJ@2?49@     0045d904     pjlib-i386-win32-vc14-release:config.obj
 0002:00012908       ??_C@_08PFPBFMIL@IpHlpApi@ 0045d908     pjlib-i386-win32-vc14-release:ip_helper_win32.obj
 0002:00012914       ??_C@_0P@PMIJPFPM@GetIpAddrTable@ 0045d914     pjlib-i386-win32-vc14-release:ip_helper_win32.obj
 0002:00012924       ??_C@_0BF@LHFCIIHE@GetAdaptersAddresses@ 0045d924     pjlib-i386-win32-vc14-release:ip_helper_win32.obj
 0002:0001293c       ??_C@_0L@BLHMKEDC@GetIfEntry@ 0045d93c     pjlib-i386-win32-vc14-release:ip_helper_win32.obj
 0002:00012948       ??_C@_0GI@OOCMJOBH@e?3?2my_ended_projects?2client_ser@ 0045d948     pjlib-i386-win32-vc14-release:sock_select.obj
 0002:000129b0       ??_C@_04DKFOEDJA@srtp@     0045d9b0     libsrtp-i386-win32-vc14-release:srtp.obj
 0002:000129b8       ??_C@_0CD@KFGKPJOG@?$CFs?3?5cloning?5stream?5?$CISSRC?3?50x?$CF08@ 0045d9b8     libsrtp-i386-win32-vc14-release:srtp.obj
 0002:000129dc       ??_C@_0BG@DDGAJBGL@?$CFs?3?5srtp?5key?5len?3?5?$CFd?6@ 0045d9dc     libsrtp-i386-win32-vc14-release:srtp.obj
 0002:000129f4       ??_C@_0BH@DGNFCKJN@?$CFs?3?5srtcp?5key?5len?3?5?$CFd?6@ 0045d9f4     libsrtp-i386-win32-vc14-release:srtp.obj
 0002:00012a0c       ??_C@_0BG@DMEGGANK@?$CFs?3?5base?5key?5len?3?5?$CFd?6@ 0045da0c     libsrtp-i386-win32-vc14-release:srtp.obj
 0002:00012a24       ??_C@_0BF@HLIACONN@?$CFs?3?5kdf?5key?5len?3?5?$CFd?6@ 0045da24     libsrtp-i386-win32-vc14-release:srtp.obj
 0002:00012a3c       ??_C@_0BG@BGKGMHMB@?$CFs?3?5rtp?5salt?5len?3?5?$CFd?6@ 0045da3c     libsrtp-i386-win32-vc14-release:srtp.obj
 0002:00012a54       ??_C@_0BE@PGOGLMMP@?$CFs?3?5cipher?5key?3?5?$CFs?6@ 0045da54     libsrtp-i386-win32-vc14-release:srtp.obj
 0002:00012a68       ??_C@_0CN@BDCDAMHJ@?$CFs?3?5found?5rtp_salt_len?5?$DO?50?0?5gen@ 0045da68     libsrtp-i386-win32-vc14-release:srtp.obj
 0002:00012a98       ??_C@_0BF@GHNDNNEA@?$CFs?3?5cipher?5salt?3?5?$CFs?6@ 0045da98     libsrtp-i386-win32-vc14-release:srtp.obj
 0002:00012ab0       ??_C@_0BP@LJKEDGBP@?$CFs?3?5extensions?5cipher?5key?3?5?$CFs?6@ 0045dab0     libsrtp-i386-win32-vc14-release:srtp.obj
 0002:00012ad0       ??_C@_0DF@NJKDAIDN@?$CFs?3?5found?5rtp_xtn_hdr_salt_len?5@ 0045dad0     libsrtp-i386-win32-vc14-release:srtp.obj
 0002:00012b08       ??_C@_0CA@OBEPENBO@?$CFs?3?5extensions?5cipher?5salt?3?5?$CFs?6@ 0045db08     libsrtp-i386-win32-vc14-release:srtp.obj
 0002:00012b28       ??_C@_0BE@HGKFNAFC@?$CFs?3?5auth?5key?3?5?5?5?$CFs?6@ 0045db28     libsrtp-i386-win32-vc14-release:srtp.obj
 0002:00012b3c       ??_C@_0BH@KOPGGCNO@?$CFs?3?5rtcp?5salt?5len?3?5?$CFd?6@ 0045db3c     libsrtp-i386-win32-vc14-release:srtp.obj
 0002:00012b54       ??_C@_0DD@DNDBGLG@?$CFs?3?5found?5rtcp_salt_len?5?$DO?50?0?5ge@ 0045db54     libsrtp-i386-win32-vc14-release:srtp.obj
 0002:00012b88       ??_C@_0BJ@KAKGCCMO@?$CFs?3?5rtcp?5cipher?5key?3?5?$CFs?6@ 0045db88     libsrtp-i386-win32-vc14-release:srtp.obj
 0002:00012ba4       ??_C@_0BK@BAICKNEI@?$CFs?3?5rtcp?5cipher?5salt?3?5?$CFs?6@ 0045dba4     libsrtp-i386-win32-vc14-release:srtp.obj
 0002:00012bc0       ??_C@_0BJ@CAOFEOFD@?$CFs?3?5rtcp?5auth?5key?3?5?5?5?$CFs?6@ 0045dbc0     libsrtp-i386-win32-vc14-release:srtp.obj
 0002:00012bdc       ??_C@_0CI@PDNDGOMA@?$CFs?3?5initializing?5stream?5?$CISSRC?3?5@ 0045dbdc     libsrtp-i386-win32-vc14-release:srtp.obj
 0002:00012c04       ??_C@_0BH@GAKJJGLB@srtp?3?5in?5stream?50x?$CFx?3?5@ 0045dc04     libsrtp-i386-win32-vc14-release:srtp.obj
 0002:00012c1c       ??_C@_0BB@PPFALDPP@?7SSRC?5collision?6@ 0045dc1c     libsrtp-i386-win32-vc14-release:srtp.obj
 0002:00012c30       ??_C@_0BP@HOEKLBIN@?7key?5usage?5soft?5limit?5reached?6@ 0045dc30     libsrtp-i386-win32-vc14-release:srtp.obj
 0002:00012c50       ??_C@_0BP@KNJIFCF@?7key?5usage?5hard?5limit?5reached?6@ 0045dc50     libsrtp-i386-win32-vc14-release:srtp.obj
 0002:00012c70       ??_C@_0BN@MKCGGAOP@?7packet?5index?5limit?5reached?6@ 0045dc70     libsrtp-i386-win32-vc14-release:srtp.obj
 0002:00012c90       ??_C@_0CE@FFJEPPID@?7unknown?5event?5reported?5to?5hand@ 0045dc90     libsrtp-i386-win32-vc14-release:srtp.obj
 0002:00012cb4       ??_C@_0BN@IJKEFIPG@?$CFs?3?5Pre?9salted?5RTP?5IV?5?$DN?5?$CFs?6?6@ 0045dcb4     libsrtp-i386-win32-vc14-release:srtp.obj
 0002:00012cd4       ??_C@_0BE@MNMIOELF@?$CFs?3?5RTP?5SALT?5?$DN?5?$CFs?6?6@ 0045dcd4     libsrtp-i386-win32-vc14-release:srtp.obj
 0002:00012ce8       ??_C@_0CH@MOHBLIMO@?$CFs?3?5estimated?5u_packet?5index?3?5?$CF@ 0045dce8     libsrtp-i386-win32-vc14-release:srtp.obj
 0002:00012d10       ??_C@_0CA@OMJPHCHL@?$CFs?3?5function?5srtp_protect_aead?6@ 0045dd10     libsrtp-i386-win32-vc14-release:srtp.obj
 0002:00012d30       ??_C@_0CF@PEPHCKJP@?$CFs?3?5estimated?5packet?5index?3?5?$CF01@ 0045dd30     libsrtp-i386-win32-vc14-release:srtp.obj
 0002:00012d58       ??_C@_0CC@KIGABHOG@?$CFs?3?5function?5srtp_unprotect_aea@ 0045dd58     libsrtp-i386-win32-vc14-release:srtp.obj
 0002:00012d7c       ??_C@_0BL@MADNODBC@?$CFs?3?5function?5srtp_protect?6@ 0045dd7c     libsrtp-i386-win32-vc14-release:srtp.obj
 0002:00012d98       ??_C@_0BK@KLBGMJPP@?$CFs?3?5keystream?5prefix?3?5?$CFs?6@ 0045dd98     libsrtp-i386-win32-vc14-release:srtp.obj
 0002:00012db4       ??_C@_0BK@GCKOFNLP@?$CFs?3?5srtp?5auth?5tag?3?5?5?5?5?$CFs?6@ 0045ddb4     libsrtp-i386-win32-vc14-release:srtp.obj
 0002:00012dd0       ??_C@_0BN@LADOAJPP@?$CFs?3?5function?5srtp_unprotect?6@ 0045ddd0     libsrtp-i386-win32-vc14-release:srtp.obj
 0002:00012df0       ??_C@_0CN@PJAKIEAG@?$CFs?3?5using?5provisional?5stream?5?$CIS@ 0045ddf0     libsrtp-i386-win32-vc14-release:srtp.obj
 0002:00012e20       ??_C@_0BO@BONEKIBH@?$CFs?3?5computed?5auth?5tag?3?5?5?5?5?$CFs?6@ 0045de20     libsrtp-i386-win32-vc14-release:srtp.obj
 0002:00012e40       ??_C@_0BO@KMHOFFAA@?$CFs?3?5packet?5auth?5tag?3?5?5?5?5?5?5?$CFs?6@ 0045de40     libsrtp-i386-win32-vc14-release:srtp.obj
 0002:00012e60       ??_C@_0BO@ONKEAFKG@?$CFs?3?5Pre?9salted?5RTCP?5IV?5?$DN?5?$CFs?6?6@ 0045de60     libsrtp-i386-win32-vc14-release:srtp.obj
 0002:00012e80       ??_C@_0BF@FLPIMBMP@?$CFs?3?5RTCP?5SALT?5?$DN?5?$CFs?6?6@ 0045de80     libsrtp-i386-win32-vc14-release:srtp.obj
 0002:00012e98       ??_C@_0BF@JBCKCIAJ@?$CFs?3?5srtcp?5index?3?5?$CFx?6@ 0045de98     libsrtp-i386-win32-vc14-release:srtp.obj
 0002:00012eb0       ??_C@_0BL@OBHAKLEH@?$CFs?3?5srtcp?5auth?5tag?3?5?5?5?5?$CFs?6@ 0045deb0     libsrtp-i386-win32-vc14-release:srtp.obj
 0002:00012ecc       ??_C@_0DD@HHOLLDKC@?$CFs?3?5srtcp?5using?5provisional?5str@ 0045decc     libsrtp-i386-win32-vc14-release:srtp.obj
 0002:00012f00       ??_C@_0CC@IMKDPKDI@?$CFs?3?5srtcp?5computed?5tag?3?5?5?5?5?5?5?5?$CF@ 0045df00     libsrtp-i386-win32-vc14-release:srtp.obj
 0002:00012f24       ??_C@_0CC@GFCANNPL@?$CFs?3?5srtcp?5tag?5from?5packet?3?5?5?5?5?$CF@ 0045df24     libsrtp-i386-win32-vc14-release:srtp.obj
 0002:00012f48       ??_C@_05KNPMOECN@alloc@    0045df48     libsrtp-i386-win32-vc14-release:alloc.obj
 0002:00012f50       ??_C@_0BO@KJOGHNGM@?$CFs?3?5?$CIlocation?3?5?$CFp?$CJ?5allocated?6@ 0045df50     libsrtp-i386-win32-vc14-release:alloc.obj
 0002:00012f70       ??_C@_0CN@JJLNACEJ@?$CFs?3?5allocation?5failed?5?$CIasked?5fo@ 0045df70     libsrtp-i386-win32-vc14-release:alloc.obj
 0002:00012fa0       ??_C@_0BK@BNKOPMHD@?$CFs?3?5?$CIlocation?3?5?$CFp?$CJ?5freed?6@ 0045dfa0     libsrtp-i386-win32-vc14-release:alloc.obj
 0002:00012fc0       __xmm@66656463626139383736353433323130 0045dfc0     libsrtp-i386-win32-vc14-release:datatypes.obj
 0002:00012fd0       ??_C@_07EFAIHJHH@libsrtp@  0045dfd0     libsrtp-i386-win32-vc14-release:srtp_err.obj
 0002:00012fd8       ??_C@_06KDGDAFPH@cipher@   0045dfd8     libsrtp-i386-win32-vc14-release:cipher.obj
 0002:00012fe0       ??_C@_09EJIBOKIO@auth?5func@ 0045dfe0     libsrtp-i386-win32-vc14-release:auth.obj
 0002:00012fec       ??_C@_0O@MIKIJNFL@crypto?5kernel@ 0045dfec     libsrtp-i386-win32-vc14-release:crypto_kernel.obj
 0002:00012ffc       ??_C@_0BE@ICAFLID@?$CFs?3?5EKT?5not?5in?5use?6@ 0045dffc     libsrtp-i386-win32-vc14-release:ekt.obj
 0002:00013010       ??_C@_0BK@CMOOGLJH@?$CFs?3?5writing?5EKT?5EMK?3?5?$CFs?0?6@ 0045e010     libsrtp-i386-win32-vc14-release:ekt.obj
 0002:0001302c       ??_C@_0BK@BEIPMCDF@?$CFs?3?5writing?5EKT?5ROC?3?5?$CFs?0?6@ 0045e02c     libsrtp-i386-win32-vc14-release:ekt.obj
 0002:00013048       ??_C@_0BK@BKDABMJO@?$CFs?3?5writing?5EKT?5ISN?3?5?$CFs?0?6@ 0045e048     libsrtp-i386-win32-vc14-release:ekt.obj
 0002:00013064       ??_C@_0BK@BJPEDIGD@?$CFs?3?5writing?5EKT?5SPI?3?5?$CFs?0?6@ 0045e064     libsrtp-i386-win32-vc14-release:ekt.obj
 0002:00013080       ??_C@_09LCMAEBCF@stat?5test@ 0045e080     libsrtp-i386-win32-vc14-release:stat.obj
 0002:0001308c       ??_C@_0CK@DAFEFAPH@?$CFs?3?5allocating?5cipher?5with?5key?5@ 0045e08c     libsrtp-i386-win32-vc14-release:null_cipher.obj
 0002:000130b8       ??_C@_0BO@HCJFKKEE@?$CFs?3?5initializing?5null?5cipher?6@ 0045e0b8     libsrtp-i386-win32-vc14-release:null_cipher.obj
 0002:00013110       _srtp_null_cipher          0045e110     libsrtp-i386-win32-vc14-release:null_cipher.obj
 0002:0001313c       ??_C@_07MPIJGLIA@aes?5icm@ 0045e13c     libsrtp-i386-win32-vc14-release:aes_icm.obj
 0002:00013144       _srtp_aes_icm_128          0045e144     libsrtp-i386-win32-vc14-release:aes_icm.obj
 0002:00013170       _srtp_aes_icm_256          0045e170     libsrtp-i386-win32-vc14-release:aes_icm.obj
 0002:00013304       ??_C@_0O@GFBJNBAD@?$CFs?3?5key?3?5?5?$CFs?6@ 0045e304     libsrtp-i386-win32-vc14-release:aes_icm.obj
 0002:00013314       ??_C@_0BA@ILFEGDEM@?$CFs?3?5offset?3?5?$CFs?6@ 0045e314     libsrtp-i386-win32-vc14-release:aes_icm.obj
 0002:00013324       ??_C@_0BE@ECIFEEKH@?$CFs?3?5setting?5iv?3?5?$CFs?6@ 0045e324     libsrtp-i386-win32-vc14-release:aes_icm.obj
 0002:00013338       ??_C@_0BF@OAOEHNDM@?$CFs?3?5set_counter?3?5?$CFs?6@ 0045e338     libsrtp-i386-win32-vc14-release:aes_icm.obj
 0002:00013350       ??_C@_0BE@ENJPOLAG@?$CFs?3?5counter?3?5?5?5?5?$CFs?6@ 0045e350     libsrtp-i386-win32-vc14-release:aes_icm.obj
 0002:00013364       ??_C@_0BE@ILCAEFF@?$CFs?3?5ciphertext?3?5?$CFs?6@ 0045e364     libsrtp-i386-win32-vc14-release:aes_icm.obj
 0002:00013378       ??_C@_0BF@BLBMMINO@?$CFs?3?5block?5index?3?5?$CFd?6@ 0045e378     libsrtp-i386-win32-vc14-release:aes_icm.obj
 0002:00013390       ??_C@_0CN@KBEHBKDH@?$CFs?3?5allocating?5auth?5func?5with?5k@ 0045e390     libsrtp-i386-win32-vc14-release:null_auth.obj
 0002:000133c0       ??_C@_0CN@FDNDBNFI@?$CFs?3?5?5?5?5?5?5?5?5?5?5?5?5?5?5?5?5?5?5?5?5?5?5?5?5?5?5?5t@ 0045e3c0     libsrtp-i386-win32-vc14-release:null_auth.obj
 0002:0001342c       _srtp_null_auth            0045e42c     libsrtp-i386-win32-vc14-release:null_auth.obj
 0002:00013450       ??_C@_0L@NBBBLMAJ@hmac?5sha?91@ 0045e450     libsrtp-i386-win32-vc14-release:hmac.obj
 0002:0001345c       ??_C@_0O@PJECJPIJ@?$CFs?3?5ipad?3?5?$CFs?6@ 0045e45c     libsrtp-i386-win32-vc14-release:hmac.obj
 0002:0001346c       ??_C@_0P@JHGAOEEF@?$CFs?3?5input?3?5?$CFs?6@ 0045e46c     libsrtp-i386-win32-vc14-release:hmac.obj
 0002:0001347c       ??_C@_0BM@JABNBLDM@?$CFs?3?5intermediate?5state?3?5?$CFs?6@ 0045e47c     libsrtp-i386-win32-vc14-release:hmac.obj
 0002:00013498       ??_C@_0BA@NKCNJNLN@?$CFs?3?5output?3?5?$CFs?6@ 0045e498     libsrtp-i386-win32-vc14-release:hmac.obj
 0002:00013518       _srtp_hmac                 0045e518     libsrtp-i386-win32-vc14-release:hmac.obj
 0002:00013540       __xmm@36363636363636363636363636363636 0045e540     libsrtp-i386-win32-vc14-release:hmac.obj
 0002:00013550       __xmm@5c5c5c5c5c5c5c5c5c5c5c5c5c5c5c5c 0045e550     libsrtp-i386-win32-vc14-release:hmac.obj
 0002:00015760       ??_C@_05BPJLFPNI@sha?91@   00460760     libsrtp-i386-win32-vc14-release:sha1.obj
 0002:00015768       ??_C@_0CH@CIFCCFOE@?$CFs?3?5?$CIupdate?$CJ?5running?5srtp_sha1_@ 00460768     libsrtp-i386-win32-vc14-release:sha1.obj
 0002:00015790       ??_C@_0CL@FECLBICF@?$CFs?3?5?$CIupdate?$CJ?5not?5running?5srtp_s@ 00460790     libsrtp-i386-win32-vc14-release:sha1.obj
 0002:000157bc       ??_C@_0CG@BBEKCMGE@?$CFs?3?5?$CIfinal?$CJ?5running?5srtp_sha1_c@ 004607bc     libsrtp-i386-win32-vc14-release:sha1.obj
 0002:000157e4       ??_C@_0CM@HEEFBAKO@?$CFs?3?5?$CIfinal?$CJ?5running?5srtp_sha1_c@ 004607e4     libsrtp-i386-win32-vc14-release:sha1.obj
 0002:000158d0       __load_config_used         004608d0     MSVCRT:loadcfg.obj
 0002:00015970       ___safe_se_handler_table   00460970     <linker-defined>
 0002:00015bb0       ___rtc_iaa                 00460bb0     MSVCRT:initsect.obj
 0002:00015bb4       ___rtc_izz                 00460bb4     MSVCRT:initsect.obj
 0002:00015bb8       ___rtc_taa                 00460bb8     MSVCRT:initsect.obj
 0002:00015bbc       ___rtc_tzz                 00460bbc     MSVCRT:initsect.obj
 0002:00015bfc       __IMPORT_DESCRIPTOR_ole32  00460bfc     ole32:ole32.dll
 0002:00015c10       __IMPORT_DESCRIPTOR_WS2_32 00460c10     ws2_32:WS2_32.dll
 0002:00015c24       __IMPORT_DESCRIPTOR_WINMM  00460c24     winmm:WINMM.dll
 0002:00015c38       __IMPORT_DESCRIPTOR_KERNEL32 00460c38     kernel32:KERNEL32.dll
 0002:00015c4c       __IMPORT_DESCRIPTOR_VCRUNTIME140 00460c4c     vcruntime:VCRUNTIME140.dll
 0002:00015c60       __IMPORT_DESCRIPTOR_api-ms-win-crt-stdio-l1-1-0 00460c60     ucrt:api-ms-win-crt-stdio-l1-1-0.dll
 0002:00015c74       __IMPORT_DESCRIPTOR_api-ms-win-crt-convert-l1-1-0 00460c74     ucrt:api-ms-win-crt-convert-l1-1-0.dll
 0002:00015c88       __IMPORT_DESCRIPTOR_api-ms-win-crt-string-l1-1-0 00460c88     ucrt:api-ms-win-crt-string-l1-1-0.dll
 0002:00015c9c       __IMPORT_DESCRIPTOR_api-ms-win-crt-math-l1-1-0 00460c9c     ucrt:api-ms-win-crt-math-l1-1-0.dll
 0002:00015cb0       __IMPORT_DESCRIPTOR_api-ms-win-crt-utility-l1-1-0 00460cb0     ucrt:api-ms-win-crt-utility-l1-1-0.dll
 0002:00015cc4       __IMPORT_DESCRIPTOR_api-ms-win-crt-heap-l1-1-0 00460cc4     ucrt:api-ms-win-crt-heap-l1-1-0.dll
 0002:00015cd8       __IMPORT_DESCRIPTOR_api-ms-win-crt-runtime-l1-1-0 00460cd8     ucrt:api-ms-win-crt-runtime-l1-1-0.dll
 0002:00015cec       __IMPORT_DESCRIPTOR_api-ms-win-crt-locale-l1-1-0 00460cec     ucrt:api-ms-win-crt-locale-l1-1-0.dll
 0002:00015d00       __NULL_IMPORT_DESCRIPTOR   00460d00     ole32:ole32.dll
 0003:00000580       _audio_codecs              00462580     siprtp.obj
 0003:00001bc4       _pjsip_include_allow_hdr_in_dlg 00463bc4     pjsip-core-i386-win32-vc14-release:sip_dialog.obj
 0003:00001bc8       _PJSIP_SYN_ERR_EXCEPTION   00463bc8     pjsip-core-i386-win32-vc14-release:sip_parser.obj
 0003:00001bcc       _PJSIP_EINVAL_ERR_EXCEPTION 00463bcc     pjsip-core-i386-win32-vc14-release:sip_parser.obj
 0003:00001d08       _pjsip_sip_cfg_var         00463d08     pjsip-core-i386-win32-vc14-release:sip_config.obj
 0003:00001de8       _mod_stateful_util         00463de8     pjsip-core-i386-win32-vc14-release:sip_util_statefull.obj
 0003:00001e70       _pjmedia_add_rtpmap_for_static_pt 00463e70     pjmedia-i386-win32-vc14-release:endpoint.obj
 0003:00001e74       _pjmedia_add_bandwidth_tias_in_sdp 00463e74     pjmedia-i386-win32-vc14-release:endpoint.obj
 0003:00001f74       _rtcp_fb_type_name         00463f74     pjmedia-i386-win32-vc14-release:rtcp_fb.obj
 0003:00002138       _pj_optind                 00464138     pjlib-util-i386-win32-vc14-release:getopt.obj
 0003:0000213c       _pj_optopt                 0046413c     pjlib-util-i386-win32-vc14-release:getopt.obj
 0003:000021fc       _pj_pool_factory_default_policy 004641fc     pjlib-i386-win32-vc14-release:pool_policy_malloc.obj
 0003:00002260       _PJ_VERSION                00464260     pjlib-i386-win32-vc14-release:config.obj
 0003:00002268       _mod_srtp                  00464268     libsrtp-i386-win32-vc14-release:srtp.obj
 0003:00002274       _mod_alloc                 00464274     libsrtp-i386-win32-vc14-release:alloc.obj
 0003:00002280       _octet_weight              00464280     libsrtp-i386-win32-vc14-release:datatypes.obj
 0003:00002680       _srtp_mod_cipher           00464680     libsrtp-i386-win32-vc14-release:cipher.obj
 0003:00002688       _srtp_mod_auth             00464688     libsrtp-i386-win32-vc14-release:auth.obj
 0003:00002690       _srtp_mod_crypto_kernel    00464690     libsrtp-i386-win32-vc14-release:crypto_kernel.obj
 0003:00002698       _mod_stat                  00464698     libsrtp-i386-win32-vc14-release:stat.obj
 0003:000026a0       _srtp_mod_aes_icm          004646a0     libsrtp-i386-win32-vc14-release:aes_icm.obj
 0003:000026a8       _srtp_mod_hmac             004646a8     libsrtp-i386-win32-vc14-release:hmac.obj
 0003:000026b0       _srtp_mod_sha1             004646b0     libsrtp-i386-win32-vc14-release:sha1.obj
 0003:000026b8       _SHA_K0                    004646b8     libsrtp-i386-win32-vc14-release:sha1.obj
 0003:000026bc       _SHA_K1                    004646bc     libsrtp-i386-win32-vc14-release:sha1.obj
 0003:000026c0       _SHA_K2                    004646c0     libsrtp-i386-win32-vc14-release:sha1.obj
 0003:000026c4       _SHA_K3                    004646c4     libsrtp-i386-win32-vc14-release:sha1.obj
 0003:000026d0       ___security_cookie_complement 004646d0     MSVCRT:gs_cookie.obj
 0003:000026d4       ___security_cookie         004646d4     MSVCRT:gs_cookie.obj
 0003:000026d8       __fltused                  004646d8     MSVCRT:fltused.obj
 0003:000026e0       ___isa_enabled             004646e0     MSVCRT:cpu_disp.obj
 0003:000026f0       ___scrt_native_dllmain_reason 004646f0     MSVCRT:utility.obj
 0003:000026f4       ___scrt_default_matherr    004646f4     MSVCRT:matherr.obj
 0003:00002700       ___scrt_ucrt_dll_is_in_use 00464700     MSVCRT:ucrt_stubs.obj
 0003:001dccfc       _pj_optarg                 0063ecfc     pjlib-util-i386-win32-vc14-release:getopt.obj
 0003:001dd094       _err_level                 0063f094     libsrtp-i386-win32-vc14-release:srtp_err.obj
 0003:001dd098       _crypto_kernel             0063f098     libsrtp-i386-win32-vc14-release:crypto_kernel.obj
 0003:001dd3e4       ___isa_available           0063f3e4     MSVCRT:cpu_disp.obj
 0003:001dd3e8       ___favor                   0063f3e8     MSVCRT:cpu_disp.obj
 0003:001dd3ec       ___scrt_current_native_startup_state 0063f3ec     MSVCRT:utility.obj
 0003:001dd3f0       ___scrt_native_startup_lock 0063f3f0     MSVCRT:utility.obj
 0003:001dd410       ?__type_info_root_node@@3U__type_info_node@@A 0063f410     MSVCRT:tncleanup.obj
 0003:001dd418       ___scrt_debugger_hook_flag 0063f418     MSVCRT:utility_desktop.obj
 0003:001dd420       ?_OptionsStorage@?1??__local_stdio_printf_options@@9@9 0063f420     <common>
 0003:001dd428       _pjsip_dlg_lock_tls_id     0063f428     <common>
 0003:001dd42c       _PJ_NO_MEMORY_EXCEPTION    0063f42c     <common>
 0003:001dd440       _bit_string                0063f440     <common>
 0003:001dd840       ?_OptionsStorage@?1??__local_stdio_scanf_options@@9@9 0063f840     <common>
 0003:001dd848       ___dyn_tls_dtor_callback   0063f848     <common>
 0003:001dd84c       ___dyn_tls_init_callback   0063f84c     <common>

 entry point at        0001:0004792f

 Static symbols

 0002:fffb5000       .idata$6                   00400000     ucrt:api-ms-win-crt-time-l1-1-0.dll
 0001:00000000       _pj_pool_zalloc            00401000 f   siprtp.obj
 0001:00000020       _pj_bzero                  00401020 f   siprtp.obj
 0001:00000040       _pj_memcpy                 00401040 f   siprtp.obj
 0001:00000050       _pjmedia_transport_info_init 00401050 f   siprtp.obj
 0001:00000080       _pjmedia_transport_get_info 00401080 f   siprtp.obj
 0001:000000b0       _pjmedia_transport_attach  004010b0 f   siprtp.obj
 0001:000001c0       _pjmedia_transport_detach  004011c0 f   siprtp.obj
 0001:000001d0       _pjmedia_transport_send_rtp 004011d0 f   siprtp.obj
 0001:000001e0       _pjmedia_transport_send_rtcp 004011e0 f   siprtp.obj
 0001:000001f0       _pjmedia_transport_media_start 004011f0 f   siprtp.obj
 0001:00000200       _pjmedia_transport_close   00401200 f   siprtp.obj
 0001:00000220       _pjmedia_endpt_create      00401220 f   siprtp.obj
 0001:00000260       _pjmedia_endpt_destroy     00401260 f   siprtp.obj
 0001:00000280       _call_on_media_update      00401280 f   siprtp.obj
 0001:00000660       _call_on_state_changed     00401660 f   siprtp.obj
 0001:00000850       _call_on_forked            00401850 f   siprtp.obj
 0001:00000860       _on_rx_request             00401860 f   siprtp.obj
 0001:000008d0       _sip_worker_thread         004018d0 f   siprtp.obj
 0001:00000910       _create_sdp                00401910 f   siprtp.obj
 0001:00000c80       _hangup_call               00401c80 f   siprtp.obj
 0001:00000cd0       _destroy_call_media        00401cd0 f   siprtp.obj
 0001:00000d40       _destroy_media             00401d40 f   siprtp.obj
 0001:00000db0       _on_rx_rtp                 00401db0 f   siprtp.obj
 0001:00000ed0       _on_rx_rtcp                00401ed0 f   siprtp.obj
 0001:00000f60       _app_perror                00401f60 f   siprtp.obj
 0001:00000fc0       _print_call                00401fc0 f   siprtp.obj
 0001:00001930       _init_sip                  00402930 f   siprtp.obj
 0001:00001bb0       _destroy_sip               00402bb0 f   siprtp.obj
 0001:00001c30       _init_media                00402c30 f   siprtp.obj
 0001:00001d20       _make_call                 00402d20 f   siprtp.obj
 0001:00001e20       _process_incoming_call     00402e20 f   siprtp.obj
 0001:000020c0       _timer_disconnect_call     004030c0 f   siprtp.obj
 0001:00002120       _init_options              00403120 f   siprtp.obj
 0001:0000264c       $LN50                      0040364c     siprtp.obj
 0001:00002694       $LN48                      00403694     siprtp.obj
 0001:00002710       _boost_priority            00403710 f   siprtp.obj
 0001:00002740       _media_thread              00403740 f   siprtp.obj
 0001:00002b50       _call_get_duration         00403b50 f   siprtp.obj
 0001:00002bb0       _good_number               00403bb0 f   siprtp.obj
 0001:00002c60       _print_avg_stat            00403c60 f   siprtp.obj
 0001:00003870       _list_calls                00404870 f   siprtp.obj
 0001:000038c0       _hangup_all_calls          004048c0 f   siprtp.obj
 0001:00003960       _simple_input              00404960 f   siprtp.obj
 0001:000039d0       _console_main              004049d0 f   siprtp.obj
 0001:00003b8c       $LN50                      00404b8c     siprtp.obj
 0001:00003ba4       $LN48                      00404ba4     siprtp.obj
 0001:00003bd0       _logger_on_rx_msg          00404bd0 f   siprtp.obj
 0001:00003c20       _logger_on_tx_msg          00404c20 f   siprtp.obj
 0001:00003c70       _app_log_writer            00404c70 f   siprtp.obj
 0001:00004280       _mod_inv_load              00405280 f   pjsip-ua-i386-win32-vc14-release:sip_inv.obj
 0001:00004330       _g711_close                00405330 f   pjmedia-i386-win32-vc14-release:g711.obj
 0001:00004330       _srtp_null_cipher_set_iv   00405330 f   libsrtp-i386-win32-vc14-release:null_cipher.obj
 0001:00004330       _sdes_media_stop           00405330 f   pjmedia-i386-win32-vc14-release:transport_srtp.obj
 0001:00004330       _mod_inv_unload            00405330 f   pjsip-ua-i386-win32-vc14-release:sip_inv.obj
 0001:00004330       _srtp_null_auth_init       00405330 f   libsrtp-i386-win32-vc14-release:null_auth.obj
 0001:00004330       _srtp_null_auth_compute    00405330 f   libsrtp-i386-win32-vc14-release:null_auth.obj
 0001:00004330       _srtp_null_auth_update     00405330 f   libsrtp-i386-win32-vc14-release:null_auth.obj
 0001:00004330       _srtp_null_auth_start      00405330 f   libsrtp-i386-win32-vc14-release:null_auth.obj
 0001:00004330       _mod_tsx_layer_load        00405330 f   pjsip-core-i386-win32-vc14-release:sip_transaction.obj
 0001:00004330       _mod_tsx_layer_start       00405330 f   pjsip-core-i386-win32-vc14-release:sip_transaction.obj
 0001:00004330       _null_op                   00405330 f   pjlib-i386-win32-vc14-release:lock.obj
 0001:00004330       _g711_init                 00405330 f   pjmedia-i386-win32-vc14-release:g711.obj
 0001:00004330       _srtp_null_cipher_encrypt  00405330 f   libsrtp-i386-win32-vc14-release:null_cipher.obj
 0001:00004340       _mod_inv_on_rx_request     00405340 f   pjsip-ua-i386-win32-vc14-release:sip_inv.obj
 0001:00004470       _mod_inv_on_rx_response    00405470 f   pjsip-ua-i386-win32-vc14-release:sip_inv.obj
 0001:00004510       _mod_inv_on_tsx_state      00405510 f   pjsip-ua-i386-win32-vc14-release:sip_inv.obj
 0001:000045d0       _inv_on_state_null         004055d0 f   pjsip-ua-i386-win32-vc14-release:sip_inv.obj
 0001:00004794       $LN50                      00405794     pjsip-ua-i386-win32-vc14-release:sip_inv.obj
 0001:000047b0       _inv_on_state_calling      004057b0 f   pjsip-ua-i386-win32-vc14-release:sip_inv.obj
 0001:00004a40       $LN53                      00405a40     pjsip-ua-i386-win32-vc14-release:sip_inv.obj
 0001:00004a60       _inv_on_state_incoming     00405a60 f   pjsip-ua-i386-win32-vc14-release:sip_inv.obj
 0001:00004b60       $LN24                      00405b60     pjsip-ua-i386-win32-vc14-release:sip_inv.obj
 0001:00004b80       _inv_on_state_early        00405b80 f   pjsip-ua-i386-win32-vc14-release:sip_inv.obj
 0001:00004e9c       $LN58                      00405e9c     pjsip-ua-i386-win32-vc14-release:sip_inv.obj
 0001:00004eb0       _inv_on_state_connecting   00405eb0 f   pjsip-ua-i386-win32-vc14-release:sip_inv.obj
 0001:00005180       _inv_on_state_confirmed    00406180 f   pjsip-ua-i386-win32-vc14-release:sip_inv.obj
 0001:00005970       _inv_on_state_disconnected 00406970 f   pjsip-ua-i386-win32-vc14-release:sip_inv.obj
 0001:00005a50       _cleanup_allow_sup_hdr     00406a50 f   pjsip-ua-i386-win32-vc14-release:sip_inv.obj
 0001:00005b20       _clone_sdp                 00406b20 f   pjsip-ua-i386-win32-vc14-release:sip_inv.obj
 0001:00005b40       _create_sdp_body           00406b40 f   pjsip-ua-i386-win32-vc14-release:sip_inv.obj
 0001:00005b80       _handle_timer_response     00406b80 f   pjsip-ua-i386-win32-vc14-release:sip_inv.obj
 0001:00005be0       _handle_uac_call_rejection 00406be0 f   pjsip-ua-i386-win32-vc14-release:sip_inv.obj
 0001:00005d30       _handle_uac_tsx_response   00406d30 f   pjsip-ua-i386-win32-vc14-release:sip_inv.obj
 0001:00005e80       _inv_check_sdp_in_incoming_msg 00406e80 f   pjsip-ua-i386-win32-vc14-release:sip_inv.obj
 0001:00006300       _inv_check_secure_dlg      00407300 f   pjsip-ua-i386-win32-vc14-release:sip_inv.obj
 0001:00006580       _inv_handle_bye_response   00407580 f   pjsip-ua-i386-win32-vc14-release:sip_inv.obj
 0001:000066b0       _inv_handle_incoming_reliable_response 004076b0 f   pjsip-ua-i386-win32-vc14-release:sip_inv.obj
 0001:00006730       _inv_handle_update_response 00407730 f   pjsip-ua-i386-win32-vc14-release:sip_inv.obj
 0001:000068d0       _inv_has_pending_answer    004078d0 f   pjsip-ua-i386-win32-vc14-release:sip_inv.obj
 0001:00006960       _inv_negotiate_sdp         00407960 f   pjsip-ua-i386-win32-vc14-release:sip_inv.obj
 0001:000069f0       _inv_perform_pending_bye   004079f0 f   pjsip-ua-i386-win32-vc14-release:sip_inv.obj
 0001:00006a50       _inv_respond_incoming_bye  00407a50 f   pjsip-ua-i386-win32-vc14-release:sip_inv.obj
 0001:00006ad0       _inv_respond_incoming_cancel 00407ad0 f   pjsip-ua-i386-win32-vc14-release:sip_inv.obj
 0001:00006be0       _inv_respond_incoming_prack 00407be0 f   pjsip-ua-i386-win32-vc14-release:sip_inv.obj
 0001:00006c70       _inv_respond_incoming_update 00407c70 f   pjsip-ua-i386-win32-vc14-release:sip_inv.obj
 0001:00006e80       _inv_send_ack              00407e80 f   pjsip-ua-i386-win32-vc14-release:sip_inv.obj
 0001:00007030       _inv_set_cause             00408030 f   pjsip-ua-i386-win32-vc14-release:sip_inv.obj
 0001:000070a0       _inv_set_state             004080a0 f   pjsip-ua-i386-win32-vc14-release:sip_inv.obj
 0001:00007260       _inv_uac_recurse           00408260 f   pjsip-ua-i386-win32-vc14-release:sip_inv.obj
 0001:00007398       $LN31                      00408398     pjsip-ua-i386-win32-vc14-release:sip_inv.obj
 0001:00007ac0       $LN58                      00408ac0     pjsip-ua-i386-win32-vc14-release:sip_inv.obj
 0001:00008194       $LN87                      00409194     pjsip-ua-i386-win32-vc14-release:sip_inv.obj
 0001:00009420       _print_sdp                 0040a420 f   pjsip-ua-i386-win32-vc14-release:sip_inv.obj
 0001:00009440       _process_answer            0040a440 f   pjsip-ua-i386-win32-vc14-release:sip_inv.obj
 0001:000095e0       _remove_val_from_array_hdr 0040a5e0 f   pjsip-ua-i386-win32-vc14-release:sip_inv.obj
 0001:00009630       _mod_100rel_load           0040a630 f   pjsip-ua-i386-win32-vc14-release:sip_100rel.obj
 0001:00009680       _clear_all_responses       0040a680 f   pjsip-ua-i386-win32-vc14-release:sip_100rel.obj
 0001:000096c0       _find_req_hdr              0040a6c0 f   pjsip-ua-i386-win32-vc14-release:sip_100rel.obj
 0001:00009740       _on_retransmit             0040a740 f   pjsip-ua-i386-win32-vc14-release:sip_100rel.obj
 0001:0000a390       _se_hdr_print              0040b390 f   pjsip-ua-i386-win32-vc14-release:sip_timer.obj
 0001:0000a4a0       _se_hdr_clone              0040b4a0 f   pjsip-ua-i386-win32-vc14-release:sip_timer.obj
 0001:0000a4e0       _pjsip_fromto_hdr_shallow_clone 0040b4e0 f   pjsip-core-i386-win32-vc14-release:sip_msg.obj
 0001:0000a4e0       _se_hdr_shallow_clone      0040b4e0 f   pjsip-ua-i386-win32-vc14-release:sip_timer.obj
 0001:0000a520       _min_se_hdr_print          0040b520 f   pjsip-ua-i386-win32-vc14-release:sip_timer.obj
 0001:0000a5c0       _min_se_hdr_clone          0040b5c0 f   pjsip-ua-i386-win32-vc14-release:sip_timer.obj
 0001:0000a620       _min_se_hdr_shallow_clone  0040b620 f   pjsip-ua-i386-win32-vc14-release:sip_timer.obj
 0001:0000a660       _add_timer_headers         0040b660 f   pjsip-ua-i386-win32-vc14-release:sip_timer.obj
 0001:0000b1f0       _start_timer               0040c1f0 f   pjsip-ua-i386-win32-vc14-release:sip_timer.obj
 0001:0000b310       _stop_timer                0040c310 f   pjsip-ua-i386-win32-vc14-release:sip_timer.obj
 0001:0000b370       _timer_cb                  0040c370 f   pjsip-ua-i386-win32-vc14-release:sip_timer.obj
 0001:0000b660       _pjsip_via_hdr_print       0040c660 f   pjsip-core-i386-win32-vc14-release:sip_msg.obj
 0001:0000b9b0       _pjsip_via_hdr_clone       0040c9b0 f   pjsip-core-i386-win32-vc14-release:sip_msg.obj
 0001:0000bab0       _pjsip_via_hdr_shallow_clone 0040cab0 f   pjsip-core-i386-win32-vc14-release:sip_msg.obj
 0001:0000baf0       _pjsip_generic_string_hdr_print 0040caf0 f   pjsip-core-i386-win32-vc14-release:sip_msg.obj
 0001:0000bb60       _pjsip_generic_string_hdr_clone 0040cb60 f   pjsip-core-i386-win32-vc14-release:sip_msg.obj
 0001:0000bba0       _pjsip_generic_string_hdr_shallow_clone 0040cba0 f   pjsip-core-i386-win32-vc14-release:sip_msg.obj
 0001:0000bbd0       _pjsip_generic_int_hdr_print 0040cbd0 f   pjsip-core-i386-win32-vc14-release:sip_msg.obj
 0001:0000bc30       _pjsip_generic_int_hdr_clone 0040cc30 f   pjsip-core-i386-win32-vc14-release:sip_msg.obj
 0001:0000bc30       _pjsip_generic_int_hdr_shallow_clone 0040cc30 f   pjsip-core-i386-win32-vc14-release:sip_msg.obj
 0001:0000bc60       _pjsip_generic_array_hdr_print 0040cc60 f   pjsip-core-i386-win32-vc14-release:sip_msg.obj
 0001:0000bd50       _pjsip_generic_array_hdr_clone 0040cd50 f   pjsip-core-i386-win32-vc14-release:sip_msg.obj
 0001:0000bdc0       _pjsip_generic_array_hdr_shallow_clone 0040cdc0 f   pjsip-core-i386-win32-vc14-release:sip_msg.obj
 0001:0000bdf0       _pjsip_clen_hdr_print      0040cdf0 f   pjsip-core-i386-win32-vc14-release:sip_msg.obj
 0001:0000be60       _pjsip_clen_hdr_clone      0040ce60 f   pjsip-core-i386-win32-vc14-release:sip_msg.obj
 0001:0000bed0       _pjsip_cseq_hdr_print      0040ced0 f   pjsip-core-i386-win32-vc14-release:sip_msg.obj
 0001:0000bf40       _pjsip_cseq_hdr_clone      0040cf40 f   pjsip-core-i386-win32-vc14-release:sip_msg.obj
 0001:0000bfe0       _pjsip_cseq_hdr_shallow_clone 0040cfe0 f   pjsip-core-i386-win32-vc14-release:sip_msg.obj
 0001:0000c010       _pjsip_contact_hdr_print   0040d010 f   pjsip-core-i386-win32-vc14-release:sip_msg.obj
 0001:0000c1f0       _pjsip_contact_hdr_clone   0040d1f0 f   pjsip-core-i386-win32-vc14-release:sip_msg.obj
 0001:0000c2b0       _pjsip_routing_hdr_shallow_clone 0040d2b0 f   pjsip-core-i386-win32-vc14-release:sip_msg.obj
 0001:0000c2b0       _pjsip_contact_hdr_shallow_clone 0040d2b0 f   pjsip-core-i386-win32-vc14-release:sip_msg.obj
 0001:0000c2f0       _pjsip_ctype_hdr_print     0040d2f0 f   pjsip-core-i386-win32-vc14-release:sip_msg.obj
 0001:0000c370       _pjsip_ctype_hdr_clone     0040d370 f   pjsip-core-i386-win32-vc14-release:sip_msg.obj
 0001:0000c420       _pjsip_fromto_hdr_print    0040d420 f   pjsip-core-i386-win32-vc14-release:sip_msg.obj
 0001:0000c530       _pjsip_fromto_hdr_clone    0040d530 f   pjsip-core-i386-win32-vc14-release:sip_msg.obj
 0001:0000c660       _pjsip_routing_hdr_print   0040d660 f   pjsip-core-i386-win32-vc14-release:sip_msg.obj
 0001:0000c790       _pjsip_routing_hdr_clone   0040d790 f   pjsip-core-i386-win32-vc14-release:sip_msg.obj
 0001:0000c7e0       _pjsip_retry_after_hdr_print 0040d7e0 f   pjsip-core-i386-win32-vc14-release:sip_msg.obj
 0001:0000c8c0       _pjsip_retry_after_hdr_clone 0040d8c0 f   pjsip-core-i386-win32-vc14-release:sip_msg.obj
 0001:0000c940       _pjsip_retry_after_hdr_shallow_clone 0040d940 f   pjsip-core-i386-win32-vc14-release:sip_msg.obj
 0001:0000c980       _init_hdr                  0040d980 f   pjsip-core-i386-win32-vc14-release:sip_msg.obj
 0001:0000c9e0       _init_status_phrase        0040d9e0 f   pjsip-core-i386-win32-vc14-release:sip_msg.obj
 0001:0000e270       _print_media_type          0040f270 f   pjsip-core-i386-win32-vc14-release:sip_msg.obj
 0001:0000e2e0       _mod_on_tx_msg             0040f2e0 f   pjsip-core-i386-win32-vc14-release:sip_transport.obj
 0001:0000e2f0       _destroy_transport         0040f2f0 f   pjsip-core-i386-win32-vc14-release:sip_transport.obj
 0001:0000e420       _get_msg_info              0040f420 f   pjsip-core-i386-win32-vc14-release:sip_transport.obj
 0001:0000e4f0       _is_transport_valid        0040f4f0 f   pjsip-core-i386-win32-vc14-release:sip_transport.obj
 0001:0000fea0       _tp_state_callback         00410ea0 f   pjsip-core-i386-win32-vc14-release:sip_transport.obj
 0001:0000ff10       _transport_idle_callback   00410f10 f   pjsip-core-i386-win32-vc14-release:sip_transport.obj
 0001:0000ff80       _transport_send_callback   00410f80 f   pjsip-core-i386-win32-vc14-release:sip_transport.obj
 0001:0000ffd0       _tx_data_destroy           00410fd0 f   pjsip-core-i386-win32-vc14-release:sip_transport.obj
 0001:00010090       _cmp_mod_name              00411090 f   pjsip-core-i386-win32-vc14-release:sip_endpoint.obj
 0001:000100b0       _endpt_on_rx_msg           004110b0 f   pjsip-core-i386-win32-vc14-release:sip_endpoint.obj
 0001:000102a0       _endpt_on_tx_msg           004112a0 f   pjsip-core-i386-win32-vc14-release:sip_endpoint.obj
 0001:00010980       _factory_get_dev_count     00411980 f   pjmedia-audiodev-i386-win32-vc14-release:wmme_dev.obj
 0001:00010fd0       _pool_callback             00411fd0 f   pjsip-core-i386-win32-vc14-release:sip_endpoint.obj
 0001:00010fe0       _unload_module             00411fe0 f   pjsip-core-i386-win32-vc14-release:sip_endpoint.obj
 0001:00011040       _init_request_throw        00412040 f   pjsip-core-i386-win32-vc14-release:sip_util.obj
 0001:000126d0       _send_response_resolver_cb 004136d0 f   pjsip-core-i386-win32-vc14-release:sip_util.obj
 0001:000127d0       _send_response_transport_cb 004137d0 f   pjsip-core-i386-win32-vc14-release:sip_util.obj
 0001:00012810       _stateless_send_resolver_callback 00413810 f   pjsip-core-i386-win32-vc14-release:sip_util.obj
 0001:00012980       _stateless_send_transport_cb 00413980 f   pjsip-core-i386-win32-vc14-release:sip_util.obj
 0001:00012c80       _create_socket             00413c80 f   pjsip-core-i386-win32-vc14-release:sip_transport_udp.obj
 0001:00012d50       _get_published_name        00413d50 f   pjsip-core-i386-win32-vc14-release:sip_transport_udp.obj
 0001:00012ea0       _init_rdata                00413ea0 f   pjsip-core-i386-win32-vc14-release:sip_transport_udp.obj
 0001:00013310       _register_to_ioqueue       00414310 f   pjsip-core-i386-win32-vc14-release:sip_transport_udp.obj
 0001:000133c0       _start_async_read          004143c0 f   pjsip-core-i386-win32-vc14-release:sip_transport_udp.obj
 0001:000136c0       _transport_attach          004146c0 f   pjsip-core-i386-win32-vc14-release:sip_transport_udp.obj
 0001:000139e0       _udp_destroy               004149e0 f   pjsip-core-i386-win32-vc14-release:sip_transport_udp.obj
 0001:00013b40       _udp_on_destroy            00414b40 f   pjsip-core-i386-win32-vc14-release:sip_transport_udp.obj
 0001:00013bc0       _udp_on_read_complete      00414bc0 f   pjsip-core-i386-win32-vc14-release:sip_transport_udp.obj
 0001:00013e10       _udp_on_write_complete     00414e10 f   pjsip-core-i386-win32-vc14-release:sip_transport_udp.obj
 0001:00013ea0       _udp_send_msg              00414ea0 f   pjsip-core-i386-win32-vc14-release:sip_transport_udp.obj
 0001:00013fa0       _udp_set_pub_name          00414fa0 f   pjsip-core-i386-win32-vc14-release:sip_transport_udp.obj
 0001:00014060       _udp_shutdown              00415060 f   pjsip-core-i386-win32-vc14-release:sip_transport_udp.obj
 0001:00014070       _mod_tsx_layer_stop        00415070 f   pjsip-core-i386-win32-vc14-release:sip_transaction.obj
 0001:000141e0       _mod_tsx_layer_unload      004151e0 f   pjsip-core-i386-win32-vc14-release:sip_transaction.obj
 0001:00014270       _mod_tsx_layer_on_rx_request 00415270 f   pjsip-core-i386-win32-vc14-release:sip_transaction.obj
 0001:00014310       _mod_tsx_layer_on_rx_response 00415310 f   pjsip-core-i386-win32-vc14-release:sip_transaction.obj
 0001:000143b0       _tsx_on_state_null         004153b0 f   pjsip-core-i386-win32-vc14-release:sip_transaction.obj
 0001:000145e0       _tsx_on_state_calling      004155e0 f   pjsip-core-i386-win32-vc14-release:sip_transaction.obj
 0001:00014740       _tsx_on_state_trying       00415740 f   pjsip-core-i386-win32-vc14-release:sip_transaction.obj
 0001:00014810       _tsx_on_state_proceeding_uas 00415810 f   pjsip-core-i386-win32-vc14-release:sip_transaction.obj
 0001:00014d80       _tsx_on_state_proceeding_uac 00415d80 f   pjsip-core-i386-win32-vc14-release:sip_transaction.obj
 0001:00015270       _tsx_on_state_completed_uas 00416270 f   pjsip-core-i386-win32-vc14-release:sip_transaction.obj
 0001:00015530       _tsx_on_state_completed_uac 00416530 f   pjsip-core-i386-win32-vc14-release:sip_transaction.obj
 0001:000155b0       _tsx_on_state_confirmed    004165b0 f   pjsip-core-i386-win32-vc14-release:sip_transaction.obj
 0001:00015610       _tsx_on_state_terminated   00416610 f   pjsip-core-i386-win32-vc14-release:sip_transaction.obj
 0001:00015640       _tsx_on_state_destroyed    00416640 f   pjsip-core-i386-win32-vc14-release:sip_transaction.obj
 0001:00015650       _create_tsx_key_2543       00416650 f   pjsip-core-i386-win32-vc14-release:sip_transaction.obj
 0001:000157d0       _create_tsx_key_3261       004167d0 f   pjsip-core-i386-win32-vc14-release:sip_transaction.obj
 0001:00015880       _mod_tsx_layer_register_tsx 00416880 f   pjsip-core-i386-win32-vc14-release:sip_transaction.obj
 0001:00015910       _mod_tsx_layer_unregister_tsx 00416910 f   pjsip-core-i386-win32-vc14-release:sip_transaction.obj
 0001:00016400       _send_msg_callback         00417400 f   pjsip-core-i386-win32-vc14-release:sip_transaction.obj
 0001:000168b0       _transport_callback        004178b0 f   pjsip-core-i386-win32-vc14-release:sip_transaction.obj
 0001:00016970       _tsx_cancel_timer          00417970 f   pjsip-core-i386-win32-vc14-release:sip_transaction.obj
 0001:00016990       _tsx_create                00417990 f   pjsip-core-i386-win32-vc14-release:sip_transaction.obj
 0001:00016ae0       _tsx_layer_destroy         00417ae0 f   pjsip-core-i386-win32-vc14-release:sip_transaction.obj
 0001:00016b30       _tsx_on_destroy            00417b30 f   pjsip-core-i386-win32-vc14-release:sip_transaction.obj
 0001:00016b70       _tsx_resched_retransmission 00417b70 f   pjsip-core-i386-win32-vc14-release:sip_transaction.obj
 0001:00016c20       _tsx_retransmit            00417c20 f   pjsip-core-i386-win32-vc14-release:sip_transaction.obj
 0001:00016cd0       _tsx_schedule_timer        00417cd0 f   pjsip-core-i386-win32-vc14-release:sip_transaction.obj
 0001:00016d00       _tsx_send_msg              00417d00 f   pjsip-core-i386-win32-vc14-release:sip_transaction.obj
 0001:00016fb0       _tsx_set_state             00417fb0 f   pjsip-core-i386-win32-vc14-release:sip_transaction.obj
 0001:00017190       _tsx_shutdown              00418190 f   pjsip-core-i386-win32-vc14-release:sip_transaction.obj
 0001:00017290       _tsx_timer_callback        00418290 f   pjsip-core-i386-win32-vc14-release:sip_transaction.obj
 0001:00017450       _tsx_tp_state_callback     00418450 f   pjsip-core-i386-win32-vc14-release:sip_transaction.obj
 0001:000174d0       _tsx_update_transport      004184d0 f   pjsip-core-i386-win32-vc14-release:sip_transaction.obj
 0001:00017560       _mod_ua_load               00418560 f   pjsip-core-i386-win32-vc14-release:sip_ua_layer.obj
 0001:00017600       _mod_ua_unload             00418600 f   pjsip-core-i386-win32-vc14-release:sip_ua_layer.obj
 0001:00017640       _mod_ua_on_rx_request      00418640 f   pjsip-core-i386-win32-vc14-release:sip_ua_layer.obj
 0001:000178a0       _mod_ua_on_rx_response     004188a0 f   pjsip-core-i386-win32-vc14-release:sip_ua_layer.obj
 0001:00017b10       _mod_ua_on_tsx_state       00418b10 f   pjsip-core-i386-win32-vc14-release:sip_ua_layer.obj
 0001:00017b40       _alloc_dlgset_node         00418b40 f   pjsip-core-i386-win32-vc14-release:sip_ua_layer.obj
 0001:00017dc0       _create_dialog             00418dc0 f   pjsip-core-i386-win32-vc14-release:sip_dialog.obj
 0001:000183c0       _destroy_dialog            004193c0 f   pjsip-core-i386-win32-vc14-release:sip_dialog.obj
 0001:00018440       _dlg_beautify_response     00419440 f   pjsip-core-i386-win32-vc14-release:sip_dialog.obj
 0001:000185f0       _dlg_update_routeset       004195f0 f   pjsip-core-i386-win32-vc14-release:sip_dialog.obj
 0001:0001a220       _unregister_and_destroy_dialog 0041b220 f   pjsip-core-i386-win32-vc14-release:sip_dialog.obj
 0001:0001a290       _auth_respond              0041b290 f   pjsip-core-i386-win32-vc14-release:sip_auth_client.obj
 0001:0001a520       _digest2str                0041b520 f   pjsip-core-i386-win32-vc14-release:sip_auth_client.obj
 0001:0001ae10       _process_auth              0041be10 f   pjsip-core-i386-win32-vc14-release:sip_auth_client.obj
 0001:0001b040       _respond_digest            0041c040 f   pjsip-core-i386-win32-vc14-release:sip_auth_client.obj
 0001:0001b350       _find_handler              0041c350 f   pjsip-core-i386-win32-vc14-release:sip_parser.obj
 0001:0001b3d0       _find_handler_imp          0041c3d0 f   pjsip-core-i386-win32-vc14-release:sip_parser.obj
 0001:0001b4d0       _find_uri_handler          0041c4d0 f   pjsip-core-i386-win32-vc14-release:sip_parser.obj
 0001:0001b530       _init_parser               0041c530 f   pjsip-core-i386-win32-vc14-release:sip_parser.obj
 0001:0001bbd0       _int_parse_contact_param   0041cbd0 f   pjsip-core-i386-win32-vc14-release:sip_parser.obj
 0001:0001bf30       _int_parse_msg             0041cf30 f   pjsip-core-i386-win32-vc14-release:sip_parser.obj
 0001:0001c350       _int_parse_name_addr       0041d350 f   pjsip-core-i386-win32-vc14-release:sip_parser.obj
 0001:0001c460       _int_parse_other_uri       0041d460 f   pjsip-core-i386-win32-vc14-release:sip_parser.obj
 0001:0001c4d0       _int_parse_sip_url         0041d4d0 f   pjsip-core-i386-win32-vc14-release:sip_parser.obj
 0001:0001ca40       _int_parse_status_line     0041da40 f   pjsip-core-i386-win32-vc14-release:sip_parser.obj
 0001:0001cb20       _int_parse_uri_or_name_addr 0041db20 f   pjsip-core-i386-win32-vc14-release:sip_parser.obj
 0001:0001cbd0       _int_parse_via_param       0041dbd0 f   pjsip-core-i386-win32-vc14-release:sip_parser.obj
 0001:0001ce90       _int_register_parser       0041de90 f   pjsip-core-i386-win32-vc14-release:sip_parser.obj
 0001:0001d020       _on_str_parse_error        0041e020 f   pjsip-core-i386-win32-vc14-release:sip_parser.obj
 0001:0001d0b0       _parse_pgp_credential      0041e0b0 f   pjsip-core-i386-win32-vc14-release:sip_auth_parser.obj
 0001:0001d0b0       _on_syntax_error           0041e0b0 f   pjsip-core-i386-win32-vc14-release:sip_parser.obj
 0001:0001d0b0       _parse_pgp_challenge       0041e0b0 f   pjsip-core-i386-win32-vc14-release:sip_auth_parser.obj
 0001:0001d0c0       _parse_generic_array_hdr   0041e0c0 f   pjsip-core-i386-win32-vc14-release:sip_parser.obj
 0001:0001d170       _parse_hdr_accept          0041e170 f   pjsip-core-i386-win32-vc14-release:sip_parser.obj
 0001:0001d1a0       _parse_hdr_allow           0041e1a0 f   pjsip-core-i386-win32-vc14-release:sip_parser.obj
 0001:0001d1d0       _parse_hdr_call_id         0041e1d0 f   pjsip-core-i386-win32-vc14-release:sip_parser.obj
 0001:0001d230       _parse_hdr_contact         0041e230 f   pjsip-core-i386-win32-vc14-release:sip_parser.obj
 0001:0001d360       _parse_hdr_content_len     0041e360 f   pjsip-core-i386-win32-vc14-release:sip_parser.obj
 0001:0001d3d0       _parse_hdr_content_type    0041e3d0 f   pjsip-core-i386-win32-vc14-release:sip_parser.obj
 0001:0001d530       _parse_hdr_cseq            0041e530 f   pjsip-core-i386-win32-vc14-release:sip_parser.obj
 0001:0001d5f0       _parse_hdr_expires         0041e5f0 f   pjsip-core-i386-win32-vc14-release:sip_parser.obj
 0001:0001d660       _parse_hdr_from            0041e660 f   pjsip-core-i386-win32-vc14-release:sip_parser.obj
 0001:0001d6a0       _parse_hdr_fromto          0041e6a0 f   pjsip-core-i386-win32-vc14-release:sip_parser.obj
 0001:0001d810       _parse_hdr_generic_string  0041e810 f   pjsip-core-i386-win32-vc14-release:sip_parser.obj
 0001:0001d960       _parse_hdr_max_forwards    0041e960 f   pjsip-core-i386-win32-vc14-release:sip_parser.obj
 0001:0001d9d0       _parse_hdr_min_expires     0041e9d0 f   pjsip-core-i386-win32-vc14-release:sip_parser.obj
 0001:0001da40       _parse_hdr_require         0041ea40 f   pjsip-core-i386-win32-vc14-release:sip_parser.obj
 0001:0001dab0       _parse_hdr_retry_after     0041eab0 f   pjsip-core-i386-win32-vc14-release:sip_parser.obj
 0001:0001dc90       _parse_hdr_route           0041ec90 f   pjsip-core-i386-win32-vc14-release:sip_parser.obj
 0001:0001dd20       _parse_hdr_rr              0041ed20 f   pjsip-core-i386-win32-vc14-release:sip_parser.obj
 0001:0001ddb0       _parse_hdr_rr_route        0041edb0 f   pjsip-core-i386-win32-vc14-release:sip_parser.obj
 0001:0001deb0       _parse_hdr_supported       0041eeb0 f   pjsip-core-i386-win32-vc14-release:sip_parser.obj
 0001:0001df20       _parse_hdr_to              0041ef20 f   pjsip-core-i386-win32-vc14-release:sip_parser.obj
 0001:0001df60       _parse_hdr_unsupported     0041ef60 f   pjsip-core-i386-win32-vc14-release:sip_parser.obj
 0001:0001df90       _parse_hdr_via             0041ef90 f   pjsip-core-i386-win32-vc14-release:sip_parser.obj
 0001:0001e150       _parse_param_imp           0041f150 f   pjsip-core-i386-win32-vc14-release:sip_parser.obj
 0001:0001e200       _parse_sip_version         0041f200 f   pjsip-core-i386-win32-vc14-release:sip_parser.obj
 0001:0001ec50       _multipart_clone_data      0041fc50 f   pjsip-core-i386-win32-vc14-release:sip_multipart.obj
 0001:0001ed20       _multipart_print_body      0041fd20 f   pjsip-core-i386-win32-vc14-release:sip_multipart.obj
 0001:0001efa0       _parse_multipart_part      0041ffa0 f   pjsip-core-i386-win32-vc14-release:sip_multipart.obj
 0001:0001f560       _pjsip_url_get_scheme      00420560 f   pjsip-core-i386-win32-vc14-release:sip_uri.obj
 0001:0001f570       _pjsips_url_get_scheme     00420570 f   pjsip-core-i386-win32-vc14-release:sip_uri.obj
 0001:0001f580       _pjsip_name_addr_get_scheme 00420580 f   pjsip-core-i386-win32-vc14-release:sip_uri.obj
 0001:0001f5a0       _tel_uri_get_uri           004205a0 f   pjsip-core-i386-win32-vc14-release:sip_tel_uri.obj
 0001:0001f5a0       _pjsip_get_uri             004205a0 f   pjsip-core-i386-win32-vc14-release:sip_uri.obj
 0001:0001f5a0       _other_uri_get_uri         004205a0 f   pjsip-core-i386-win32-vc14-release:sip_uri.obj
 0001:0001f5b0       _pjsip_name_addr_get_uri   004205b0 f   pjsip-core-i386-win32-vc14-release:sip_uri.obj
 0001:0001f5d0       _pjsip_name_addr_clone     004205d0 f   pjsip-core-i386-win32-vc14-release:sip_uri.obj
 0001:0001f640       _pjsip_name_addr_print     00420640 f   pjsip-core-i386-win32-vc14-release:sip_uri.obj
 0001:0001f730       _pjsip_name_addr_compare   00420730 f   pjsip-core-i386-win32-vc14-release:sip_uri.obj
 0001:0001f780       _pjsip_url_print           00420780 f   pjsip-core-i386-win32-vc14-release:sip_uri.obj
 0001:0001fc30       _pjsip_url_compare         00420c30 f   pjsip-core-i386-win32-vc14-release:sip_uri.obj
 0001:0001fe30       _pjsip_url_clone           00420e30 f   pjsip-core-i386-win32-vc14-release:sip_uri.obj
 0001:0001ff50       _other_uri_get_scheme      00420f50 f   pjsip-core-i386-win32-vc14-release:sip_uri.obj
 0001:0001ff60       _other_uri_print           00420f60 f   pjsip-core-i386-win32-vc14-release:sip_uri.obj
 0001:0001ffd0       _other_uri_cmp             00420fd0 f   pjsip-core-i386-win32-vc14-release:sip_uri.obj
 0001:00020020       _other_uri_clone           00421020 f   pjsip-core-i386-win32-vc14-release:sip_uri.obj
 0001:00020430       _dns_a_callback            00421430 f   pjsip-core-i386-win32-vc14-release:sip_resolve.obj
 0001:00020580       _dns_aaaa_callback         00421580 f   pjsip-core-i386-win32-vc14-release:sip_resolve.obj
 0001:00020df0       _srv_resolver_cb           00421df0 f   pjsip-core-i386-win32-vc14-release:sip_resolve.obj
 0001:000210e0       _tel_uri_get_scheme        004220e0 f   pjsip-core-i386-win32-vc14-release:sip_tel_uri.obj
 0001:000210f0       _tel_uri_print             004220f0 f   pjsip-core-i386-win32-vc14-release:sip_tel_uri.obj
 0001:00021280       _tel_uri_cmp               00422280 f   pjsip-core-i386-win32-vc14-release:sip_tel_uri.obj
 0001:000213b0       _tel_uri_clone             004223b0 f   pjsip-core-i386-win32-vc14-release:sip_tel_uri.obj
 0001:00021750       _tel_uri_parse             00422750 f   pjsip-core-i386-win32-vc14-release:sip_tel_uri.obj
 0001:00021940       _mod_util_on_tsx_state     00422940 f   pjsip-core-i386-win32-vc14-release:sip_util_statefull.obj
 0001:00021990       _pjsip_authorization_hdr_clone 00422990 f   pjsip-core-i386-win32-vc14-release:sip_auth_msg.obj
 0001:00021b50       _pjsip_authorization_hdr_shallow_clone 00422b50 f   pjsip-core-i386-win32-vc14-release:sip_auth_msg.obj
 0001:00021b90       _pjsip_authorization_hdr_print 00422b90 f   pjsip-core-i386-win32-vc14-release:sip_auth_msg.obj
 0001:00021c70       _pjsip_www_authenticate_hdr_print 00422c70 f   pjsip-core-i386-win32-vc14-release:sip_auth_msg.obj
 0001:00021d30       _pjsip_www_authenticate_hdr_clone 00422d30 f   pjsip-core-i386-win32-vc14-release:sip_auth_msg.obj
 0001:00021eb0       _pjsip_www_authenticate_hdr_shallow_clone 00422eb0 f   pjsip-core-i386-win32-vc14-release:sip_auth_msg.obj
 0001:000220b0       _print_digest_challenge    004230b0 f   pjsip-core-i386-win32-vc14-release:sip_auth_msg.obj
 0001:000223e0       _print_digest_credential   004233e0 f   pjsip-core-i386-win32-vc14-release:sip_auth_msg.obj
 0001:00022860       _print_oauth_credential    00423860 f   pjsip-core-i386-win32-vc14-release:sip_auth_msg.obj
 0001:00022af0       _int_parse_hdr_authenticate 00423af0 f   pjsip-core-i386-win32-vc14-release:sip_auth_parser.obj
 0001:00022d10       _int_parse_hdr_authorization 00423d10 f   pjsip-core-i386-win32-vc14-release:sip_auth_parser.obj
 0001:00022f90       _parse_hdr_authorization   00423f90 f   pjsip-core-i386-win32-vc14-release:sip_auth_parser.obj
 0001:00022fc0       _parse_hdr_proxy_authenticate 00423fc0 f   pjsip-core-i386-win32-vc14-release:sip_auth_parser.obj
 0001:00022ff0       _parse_hdr_proxy_authorization 00423ff0 f   pjsip-core-i386-win32-vc14-release:sip_auth_parser.obj
 0001:00023020       _parse_hdr_www_authenticate 00424020 f   pjsip-core-i386-win32-vc14-release:sip_auth_parser.obj
 0001:000232f0       _factory_init              004242f0 f   pjmedia-audiodev-i386-win32-vc14-release:wmme_dev.obj
 0001:00023330       _factory_destroy           00424330 f   pjmedia-audiodev-i386-win32-vc14-release:wmme_dev.obj
 0001:00023360       _factory_refresh           00424360 f   pjmedia-audiodev-i386-win32-vc14-release:wmme_dev.obj
 0001:00023610       _factory_get_dev_info      00424610 f   pjmedia-audiodev-i386-win32-vc14-release:wmme_dev.obj
 0001:00023650       _factory_default_param     00424650 f   pjmedia-audiodev-i386-win32-vc14-release:wmme_dev.obj
 0001:00023720       _factory_create_stream     00424720 f   pjmedia-audiodev-i386-win32-vc14-release:wmme_dev.obj
 0001:000239c0       _stream_get_param          004249c0 f   pjmedia-audiodev-i386-win32-vc14-release:wmme_dev.obj
 0001:00023a40       _stream_get_cap            00424a40 f   pjmedia-audiodev-i386-win32-vc14-release:wmme_dev.obj
 0001:00023ad0       _stream_set_cap            00424ad0 f   pjmedia-audiodev-i386-win32-vc14-release:wmme_dev.obj
 0001:00023b60       _stream_start              00424b60 f   pjmedia-audiodev-i386-win32-vc14-release:wmme_dev.obj
 0001:00023be0       _stream_stop               00424be0 f   pjmedia-audiodev-i386-win32-vc14-release:wmme_dev.obj
 0001:00023c70       _stream_destroy            00424c70 f   pjmedia-audiodev-i386-win32-vc14-release:wmme_dev.obj
 0001:00023e40       _build_dev_info            00424e40 f   pjmedia-audiodev-i386-win32-vc14-release:wmme_dev.obj
 0001:00023fa0       _init_capture_stream       00424fa0 f   pjmedia-audiodev-i386-win32-vc14-release:wmme_dev.obj
 0001:000241c0       _init_player_stream        004251c0 f   pjmedia-audiodev-i386-win32-vc14-release:wmme_dev.obj
 0001:00024400       _init_waveformatex         00425400 f   pjmedia-audiodev-i386-win32-vc14-release:wmme_dev.obj
 0001:00024520       _wmme_dev_thread           00425520 f   pjmedia-audiodev-i386-win32-vc14-release:wmme_dev.obj
 0001:00024b80       _init_sdp_parser           00425b80 f   pjmedia-i386-win32-vc14-release:sdp.obj
 0001:00024c10       _on_scanner_error          00425c10 f   pjmedia-i386-win32-vc14-release:sdp.obj
 0001:00024c20       _parse_generic_line        00425c20 f   pjmedia-i386-win32-vc14-release:sdp.obj
 0001:00026428       $LN223                     00427428     pjmedia-i386-win32-vc14-release:sdp.obj
 0001:00026450       $LN208                     00427450     pjmedia-i386-win32-vc14-release:sdp.obj
 0001:00026bf0       _print_connection_info     00427bf0 f   pjmedia-i386-win32-vc14-release:sdp.obj
 0001:00026c30       _print_media_desc          00427c30 f   pjmedia-i386-win32-vc14-release:sdp.obj
 0001:00026e80       _print_session             00427e80 f   pjmedia-i386-win32-vc14-release:sdp.obj
 0001:00027130       _validate_sdp_conn         00428130 f   pjmedia-i386-win32-vc14-release:sdp.obj
 0001:00027470       _worker_proc               00428470 f   pjmedia-i386-win32-vc14-release:endpoint.obj
 0001:00027560       _g711_test_alloc           00428560 f   pjmedia-i386-win32-vc14-release:g711.obj
 0001:00027580       _g711_default_attr         00428580 f   pjmedia-i386-win32-vc14-release:g711.obj
 0001:000275e0       _g711_enum_codecs          004285e0 f   pjmedia-i386-win32-vc14-release:g711.obj
 0001:00027670       _g711_alloc_codec          00428670 f   pjmedia-i386-win32-vc14-release:g711.obj
 0001:00027790       _g711_dealloc_codec        00428790 f   pjmedia-i386-win32-vc14-release:g711.obj
 0001:00027860       _g711_open                 00428860 f   pjmedia-i386-win32-vc14-release:g711.obj
 0001:00027890       _g711_modify               00428890 f   pjmedia-i386-win32-vc14-release:g711.obj
 0001:000278d0       _g711_parse                004288d0 f   pjmedia-i386-win32-vc14-release:g711.obj
 0001:00027960       _g711_encode               00428960 f   pjmedia-i386-win32-vc14-release:g711.obj
 0001:00027a80       _g711_decode               00428a80 f   pjmedia-i386-win32-vc14-release:g711.obj
 0001:00027b50       _g711_recover              00428b50 f   pjmedia-i386-win32-vc14-release:g711.obj
 0001:00028180       _parse_rtcp_report         00429180 f   pjmedia-i386-win32-vc14-release:rtcp.obj
 0001:00028490       _pj_math_stat_update       00429490 f   pjmedia-i386-win32-vc14-release:rtcp.obj
 0001:00028c6c       $LN86                      00429c6c     pjmedia-i386-win32-vc14-release:rtcp.obj
 0001:00028c8c       $LN87                      00429c8c     pjmedia-i386-win32-vc14-release:rtcp.obj
 0001:00028ec0       _apply_answer_symmetric_pt 00429ec0 f   pjmedia-i386-win32-vc14-release:sdp_neg.obj
 0001:00029140       _custom_fmt_match          0042a140 f   pjmedia-i386-win32-vc14-release:sdp_neg.obj
 0001:000291a0       _match_offer               0042a1a0 f   pjmedia-i386-win32-vc14-release:sdp_neg.obj
 0001:0002a370       _process_m_answer          0042b370 f   pjmedia-i386-win32-vc14-release:sdp_neg.obj
 0001:0002a8b0       _sdp_media_clone_deactivate 0042b8b0 f   pjmedia-i386-win32-vc14-release:sdp_neg.obj
 0001:0002a970       _update_media_direction    0042b970 f   pjmedia-i386-win32-vc14-release:sdp_neg.obj
 0001:0002aab0       _get_audio_codec_info_param 0042bab0 f   pjmedia-i386-win32-vc14-release:stream_info.obj
 0001:0002b770       _transport_get_info        0042c770 f   pjmedia-i386-win32-vc14-release:transport_udp.obj
 0001:0002b860       _transport_attach          0042c860 f   pjmedia-i386-win32-vc14-release:transport_udp.obj
 0001:0002b890       _transport_attach2         0042c890 f   pjmedia-i386-win32-vc14-release:transport_udp.obj
 0001:0002b8c0       _transport_detach          0042c8c0 f   pjmedia-i386-win32-vc14-release:transport_udp.obj
 0001:0002b960       _transport_send_rtp        0042c960 f   pjmedia-i386-win32-vc14-release:transport_udp.obj
 0001:0002ba30       _transport_send_rtcp       0042ca30 f   pjmedia-i386-win32-vc14-release:transport_udp.obj
 0001:0002ba90       _transport_send_rtcp2      0042ca90 f   pjmedia-i386-win32-vc14-release:transport_udp.obj
 0001:0002bb00       _transport_media_create    0042cb00 f   pjmedia-i386-win32-vc14-release:transport_udp.obj
 0001:0002bb30       _transport_encode_sdp      0042cb30 f   pjmedia-i386-win32-vc14-release:transport_udp.obj
 0001:0002bcb0       _transport_media_start     0042ccb0 f   pjmedia-i386-win32-vc14-release:transport_udp.obj
 0001:0002bd70       _transport_media_stop      0042cd70 f   pjmedia-i386-win32-vc14-release:transport_udp.obj
 0001:0002bdd0       _transport_simulate_lost   0042cdd0 f   pjmedia-i386-win32-vc14-release:transport_udp.obj
 0001:0002be10       _transport_destroy         0042ce10 f   pjmedia-i386-win32-vc14-release:transport_udp.obj
 0001:0002beb0       _call_rtcp_cb              0042ceb0 f   pjmedia-i386-win32-vc14-release:transport_udp.obj
 0001:0002bee0       _call_rtp_cb               0042cee0 f   pjmedia-i386-win32-vc14-release:transport_udp.obj
 0001:0002bf60       _on_rx_rtcp                0042cf60 f   pjmedia-i386-win32-vc14-release:transport_udp.obj
 0001:0002c180       _on_rx_rtp                 0042d180 f   pjmedia-i386-win32-vc14-release:transport_udp.obj
 0001:0002c9c0       _tp_attach                 0042d9c0 f   pjmedia-i386-win32-vc14-release:transport_udp.obj
 0001:0002cbb0       _transport_restart         0042dbb0 f   pjmedia-i386-win32-vc14-release:transport_udp.obj
 0001:0002ce20       _make_global_index         0042de20 f   pjmedia-i386-win32-vc14-release:audiodev.obj
 0001:0002d230       _event_mgr_distribute_events 0042e230 f   pjmedia-i386-win32-vc14-release:event.obj
 0001:0002d310       _event_queue_add_event     0042e310 f   pjmedia-i386-win32-vc14-release:event.obj
 0001:0002dbf0       _sort_codecs               0042ebf0 f   pjmedia-i386-win32-vc14-release:codec.obj
 0001:0002ddd0       _plc_wsola_create          0042edd0 f   pjmedia-i386-win32-vc14-release:plc_common.obj
 0001:0002de10       _plc_wsola_save            0042ee10 f   pjmedia-i386-win32-vc14-release:plc_common.obj
 0001:0002de40       _plc_wsola_generate        0042ee40 f   pjmedia-i386-win32-vc14-release:plc_common.obj
 0001:0002e1e0       _get_codec_info_from_sdp   0042f1e0 f   pjmedia-i386-win32-vc14-release:rtcp_fb.obj
 0001:0002e8a0       _transport_get_info        0042f8a0 f   pjmedia-i386-win32-vc14-release:transport_srtp.obj
 0001:0002e9d0       _transport_detach          0042f9d0 f   pjmedia-i386-win32-vc14-release:transport_srtp.obj
 0001:0002ea40       _transport_send_rtp        0042fa40 f   pjmedia-i386-win32-vc14-release:transport_srtp.obj
 0001:0002eb00       _transport_send_rtcp       0042fb00 f   pjmedia-i386-win32-vc14-release:transport_srtp.obj
 0001:0002ebd0       _transport_send_rtcp2      0042fbd0 f   pjmedia-i386-win32-vc14-release:transport_srtp.obj
 0001:0002eca0       _transport_media_create    0042fca0 f   pjmedia-i386-win32-vc14-release:transport_srtp.obj
 0001:0002ee30       _transport_encode_sdp      0042fe30 f   pjmedia-i386-win32-vc14-release:transport_srtp.obj
 0001:0002eff0       _transport_media_start     0042fff0 f   pjmedia-i386-win32-vc14-release:transport_srtp.obj
 0001:0002f270       _transport_media_stop      00430270 f   pjmedia-i386-win32-vc14-release:transport_srtp.obj
 0001:0002f3f0       _transport_simulate_lost   004303f0 f   pjmedia-i386-win32-vc14-release:transport_srtp.obj
 0001:0002f420       _transport_destroy         00430420 f   pjmedia-i386-win32-vc14-release:transport_srtp.obj
 0001:0002f4c0       _transport_attach2         004304c0 f   pjmedia-i386-win32-vc14-release:transport_srtp.obj
 0001:0002f650       _sdes_media_create         00430650 f   pjmedia-i386-win32-vc14-release:transport_srtp.obj
 0001:0002f6d0       _sdes_encode_sdp           004306d0 f   pjmedia-i386-win32-vc14-release:transport_srtp.obj
 0001:0002fc60       _sdes_media_start          00430c60 f   pjmedia-i386-win32-vc14-release:transport_srtp.obj
 0001:00030040       _fill_local_crypto         00431040 f   pjmedia-i386-win32-vc14-release:transport_srtp.obj
 0001:00030380       _generate_crypto_attr_value 00431380 f   pjmedia-i386-win32-vc14-release:transport_srtp.obj
 0001:00030620       _get_crypto_idx            00431620 f   pjmedia-i386-win32-vc14-release:transport_srtp.obj
 0001:000306a0       _parse_attr_crypto         004316a0 f   pjmedia-i386-win32-vc14-release:transport_srtp.obj
 0001:000310f0       _srtp_crypto_cmp           004320f0 f   pjmedia-i386-win32-vc14-release:transport_srtp.obj
 0001:00031130       _srtp_rtcp_cb              00432130 f   pjmedia-i386-win32-vc14-release:transport_srtp.obj
 0001:00031230       _srtp_rtp_cb               00432230 f   pjmedia-i386-win32-vc14-release:transport_srtp.obj
 0001:00031530       _expand                    00432530 f   pjmedia-i386-win32-vc14-release:wsola.obj
 0001:00031730       _fade_in                   00432730 f   pjmedia-i386-win32-vc14-release:wsola.obj
 0001:000317f0       _find_pitch                004327f0 f   pjmedia-i386-win32-vc14-release:wsola.obj
 0001:00031a90       _overlapp_add              00432a90 f   pjmedia-i386-win32-vc14-release:wsola.obj
 0001:00031b00       _overlapp_add_simple       00432b00 f   pjmedia-i386-win32-vc14-release:wsola.obj
 0001:00031b90       _pjmedia_circ_buf_adv_read_ptr 00432b90 f   pjmedia-i386-win32-vc14-release:wsola.obj
 0001:00031be0       _pjmedia_circ_buf_copy     00432be0 f   pjmedia-i386-win32-vc14-release:wsola.obj
 0001:00031c90       _pjmedia_circ_buf_get_read_regions 00432c90 f   pjmedia-i386-win32-vc14-release:wsola.obj
 0001:00032460       _wsola_fade_out            00433460 f   pjmedia-i386-win32-vc14-release:wsola.obj
 0001:00032690       __getopt_internal          00433690 f   pjlib-util-i386-win32-vc14-release:getopt.obj
 0001:00032e20       _exchange                  00433e20 f   pjlib-util-i386-win32-vc14-release:getopt.obj
 0001:00032f10       _my_index                  00433f10 f   pjlib-util-i386-win32-vc14-release:getopt.obj
 0001:00033890       _alloc_qnode               00434890 f   pjlib-util-i386-win32-vc14-release:resolver.obj
 0001:00033910       _init_res_key              00434910 f   pjlib-util-i386-win32-vc14-release:resolver.obj
 0001:00033980       _on_timeout                00434980 f   pjlib-util-i386-win32-vc14-release:resolver.obj
 0001:00034320       _set_nameserver_state      00435320 f   pjlib-util-i386-win32-vc14-release:resolver.obj
 0001:00034400       _transmit_query            00435400 f   pjlib-util-i386-win32-vc14-release:resolver.obj
 0001:00034850       _MD5Transform              00435850 f   pjlib-util-i386-win32-vc14-release:md5.obj
 0001:000350d0       $LN16                      004360d0     pjlib-util-i386-win32-vc14-release:dns.obj
 0001:000350f8       $LN14                      004360f8     pjlib-util-i386-win32-vc14-release:dns.obj
 0001:00035210       _build_server_entries      00436210 f   pjlib-util-i386-win32-vc14-release:srv_resolver.obj
 0001:00035880       _dns_callback              00436880 f   pjlib-util-i386-win32-vc14-release:srv_resolver.obj
 0001:00036580       _init_mutex                00437580 f   pjlib-i386-win32-vc14-release:os_core_win32.obj
 0001:00037260       _pj_sem_wait_for           00438260 f   pjlib-i386-win32-vc14-release:os_core_win32.obj
 0001:000379b0       _thread_main@4             004389b0 f   pjlib-i386-win32-vc14-release:os_core_win32.obj
 0001:00037ac0       _invoke_log                00438ac0 f   pjlib-i386-win32-vc14-release:errno.obj
 0001:00037ba0       _pj_perror_imp             00438ba0 f   pjlib-i386-win32-vc14-release:errno.obj
 0001:0003a350       _reset_pool                0043b350 f   pjlib-i386-win32-vc14-release:pool.obj
 0001:0003a3d0       _cpool_create_pool         0043b3d0 f   pjlib-i386-win32-vc14-release:pool_caching.obj
 0001:0003a500       _cpool_dump_status         0043b500 f   pjlib-i386-win32-vc14-release:pool_caching.obj
 0001:0003a650       _cpool_on_block_alloc      0043b650 f   pjlib-i386-win32-vc14-release:pool_caching.obj
 0001:0003a670       _cpool_on_block_free       0043b670 f   pjlib-i386-win32-vc14-release:pool_caching.obj
 0001:0003a680       _cpool_release_pool        0043b680 f   pjlib-i386-win32-vc14-release:pool_caching.obj
 0001:0003b900       _logging_shutdown          0043c900 f   pjlib-i386-win32-vc14-release:log.obj
 0001:0003bf2c       $LN14                      0043cf2c     pjlib-i386-win32-vc14-release:log.obj
 0001:0003c090       _default_block_alloc       0043d090 f   pjlib-i386-win32-vc14-release:pool_policy_malloc.obj
 0001:0003c0f0       _default_block_free        0043d0f0 f   pjlib-i386-win32-vc14-release:pool_policy_malloc.obj
 0001:0003c130       _default_pool_callback     0043d130 f   pjlib-i386-win32-vc14-release:pool_policy_malloc.obj
 0001:0003c260       _create_mutex_lock         0043d260 f   pjlib-i386-win32-vc14-release:lock.obj
 0001:0003c2d0       _grp_lock_acquire          0043d2d0 f   pjlib-i386-win32-vc14-release:lock.obj
 0001:0003c340       _grp_lock_destroy          0043d340 f   pjlib-i386-win32-vc14-release:lock.obj
 0001:0003c3f0       _grp_lock_release          0043d3f0 f   pjlib-i386-win32-vc14-release:lock.obj
 0001:0003c460       _grp_lock_tryacquire       0043d460 f   pjlib-i386-win32-vc14-release:lock.obj
 0001:0003c960       _cancel_timer              0043d960 f   pjlib-i386-win32-vc14-release:timer.obj
 0001:0003cea0       _reheap_up                 0043dea0 f   pjlib-i386-win32-vc14-release:timer.obj
 0001:0003cf30       _remove_node               0043df30 f   pjlib-i386-win32-vc14-release:timer.obj
 0001:0003d0c0       _schedule_w_grp_lock       0043e0c0 f   pjlib-i386-win32-vc14-release:timer.obj
 0001:0003d280       _decrement_counter         0043e280 f   pjlib-i386-win32-vc14-release:ioqueue_select.obj
 0001:0003d310       _increment_counter         0043e310 f   pjlib-i386-win32-vc14-release:ioqueue_select.obj
 0001:0003e760       _scan_closing_keys         0043f760 f   pjlib-i386-win32-vc14-release:ioqueue_select.obj
 0001:0003e7e0       _exception_cleanup         0043f7e0 f   pjlib-i386-win32-vc14-release:except.obj
 0001:0003e9f0       _find_entry                0043f9f0 f   pjlib-i386-win32-vc14-release:hash.obj
 0001:0003f550       _pool_buf_cleanup          00440550 f   pjlib-i386-win32-vc14-release:pool_buf.obj
 0001:0003f580       _stack_alloc               00440580 f   pjlib-i386-win32-vc14-release:pool_buf.obj
 0001:0003f5c0       _MyGetAdapterAddresses     004405c0 f   pjlib-i386-win32-vc14-release:ip_helper_win32.obj
 0001:0003f640       _MyGetIpAddrTable          00440640 f   pjlib-i386-win32-vc14-release:ip_helper_win32.obj
 0001:0003f6b0       _enum_ipv4_interface       004406b0 f   pjlib-i386-win32-vc14-release:ip_helper_win32.obj
 0001:0003fb50       _unload_iphlp_module       00440b50 f   pjlib-i386-win32-vc14-release:ip_helper_win32.obj
 0001:00040114       $LN11                      00441114     libsrtp-i386-win32-vc14-release:srtp.obj
 0001:00040140       _base_key_length           00441140 f   libsrtp-i386-win32-vc14-release:srtp.obj
 0001:00040174       $LN11                      00441174     libsrtp-i386-win32-vc14-release:srtp.obj
 0001:00040180       $LN9                       00441180     libsrtp-i386-win32-vc14-release:srtp.obj
 0001:00040190       _be64_to_cpu               00441190 f   libsrtp-i386-win32-vc14-release:srtp.obj
 0001:00040280       _srtp_calc_aead_iv         00441280 f   libsrtp-i386-win32-vc14-release:srtp.obj
 0001:00040370       _srtp_calc_aead_iv_srtcp   00441370 f   libsrtp-i386-win32-vc14-release:srtp.obj
 0001:00040750       _srtp_get_est_pkt_index    00441750 f   libsrtp-i386-win32-vc14-release:srtp.obj
 0001:00040990       _srtp_kdf_generate         00441990 f   libsrtp-i386-win32-vc14-release:srtp.obj
 0001:00040a10       _srtp_kdf_init             00441a10 f   libsrtp-i386-win32-vc14-release:srtp.obj
 0001:00040a80       _srtp_process_header_encryption 00441a80 f   libsrtp-i386-win32-vc14-release:srtp.obj
 0001:00040cd0       _srtp_protect_aead         00441cd0 f   libsrtp-i386-win32-vc14-release:srtp.obj
 0001:000415b0       _srtp_protect_rtcp_aead    004425b0 f   libsrtp-i386-win32-vc14-release:srtp.obj
 0001:000421c0       _srtp_stream_free          004431c0 f   libsrtp-i386-win32-vc14-release:srtp.obj
 0001:00042c20       $LN96                      00443c20     libsrtp-i386-win32-vc14-release:srtp.obj
 0001:00042c60       _srtp_unprotect_aead       00443c60 f   libsrtp-i386-win32-vc14-release:srtp.obj
 0001:000435d0       _srtp_unprotect_rtcp_aead  004445d0 f   libsrtp-i386-win32-vc14-release:srtp.obj
 0001:00043d70       _srtp_validate_rtp_header  00444d70 f   libsrtp-i386-win32-vc14-release:srtp.obj
 0001:00044ce0       _srtp_null_cipher_alloc    00445ce0 f   libsrtp-i386-win32-vc14-release:null_cipher.obj
 0001:00044d50       _srtp_null_cipher_dealloc  00445d50 f   libsrtp-i386-win32-vc14-release:null_cipher.obj
 0001:00044d70       _srtp_null_cipher_init     00445d70 f   libsrtp-i386-win32-vc14-release:null_cipher.obj
 0001:00044da0       _srtp_aes_icm_alloc        00445da0 f   libsrtp-i386-win32-vc14-release:aes_icm.obj
 0001:00044e80       _srtp_aes_icm_dealloc      00445e80 f   libsrtp-i386-win32-vc14-release:aes_icm.obj
 0001:00044ec0       _srtp_aes_icm_context_init 00445ec0 f   libsrtp-i386-win32-vc14-release:aes_icm.obj
 0001:00045000       _srtp_aes_icm_set_iv       00446000 f   libsrtp-i386-win32-vc14-release:aes_icm.obj
 0001:000450b0       _srtp_aes_icm_encrypt      004460b0 f   libsrtp-i386-win32-vc14-release:aes_icm.obj
 0001:00045280       _srtp_aes_icm_advance      00446280 f   libsrtp-i386-win32-vc14-release:aes_icm.obj
 0001:00045310       _srtp_null_auth_alloc      00446310 f   libsrtp-i386-win32-vc14-release:null_auth.obj
 0001:000453a0       _srtp_null_auth_dealloc    004463a0 f   libsrtp-i386-win32-vc14-release:null_auth.obj
 0001:000453c0       _srtp_hmac_alloc           004463c0 f   libsrtp-i386-win32-vc14-release:hmac.obj
 0001:00045470       _srtp_hmac_dealloc         00446470 f   libsrtp-i386-win32-vc14-release:hmac.obj
 0001:00045490       _srtp_hmac_init            00446490 f   libsrtp-i386-win32-vc14-release:hmac.obj
 0001:00045700       _srtp_hmac_start           00446700 f   libsrtp-i386-win32-vc14-release:hmac.obj
 0001:00045720       _srtp_hmac_update          00446720 f   libsrtp-i386-win32-vc14-release:hmac.obj
 0001:00045770       _srtp_hmac_compute         00446770 f   libsrtp-i386-win32-vc14-release:hmac.obj
 0001:000458a0       _aes_128_expand_encryption_key 004468a0 f   libsrtp-i386-win32-vc14-release:aes.obj
 0001:00045d00       _aes_final_round           00446d00 f   libsrtp-i386-win32-vc14-release:aes.obj
 0001:00045e00       _aes_inv_final_round       00446e00 f   libsrtp-i386-win32-vc14-release:aes.obj
 0001:00045f00       _aes_inv_round             00446f00 f   libsrtp-i386-win32-vc14-release:aes.obj
 0001:00045ff0       _aes_round                 00446ff0 f   libsrtp-i386-win32-vc14-release:aes.obj
 0001:00047300       $LN112                     00448300     libsrtp-i386-win32-vc14-release:sha1.obj
 0001:00047640       $$000000                   00448640     MSVCRT:llmul.obj
 0001:00047680       $$000000                   00448680     MSVCRT:ulldiv.obj
 0001:000476e8       ?pre_c_initialization@@YAHXZ 004486e8 f   MSVCRT:exe_main.obj
 0001:00047793       ?post_pgo_initialization@@YAHXZ 00448793 f   MSVCRT:exe_main.obj
 0001:0004779b       ?pre_cpp_initialization@@YAXXZ 0044879b f   MSVCRT:exe_main.obj
 0001:000477ad       ?__scrt_common_main_seh@@YAHXZ 004487ad f   MSVCRT:exe_main.obj
 0001:00047940       $$000000                   00448940     MSVCRT:ullrem.obj
 0001:000479c0       $$000000                   004489c0     MSVCRT:svml_dcos2_dispatch.obj
 0001:00047b60       $$000000                   00448b60     MSVCRT:lldiv.obj
 0001:00047c10       $$000000                   00448c10     MSVCRT:ftol3.obj
 0001:00047f87       ?find_pe_section@@YAPAU_IMAGE_SECTION_HEADER@@QAEI@Z 00448f87 f   MSVCRT:utility.obj
 0001:00048204       ___get_entropy             00449204 f   MSVCRT:gs_support.obj
 0001:00048520       $$000000                   00449520     MSVCRT:sehprolg4.obj
 0001:000485a0       $$000000                   004495a0     MSVCRT:svml_dcos2_sse2.obj
 0001:00048750       $$000000                   00449750     MSVCRT:svml_dtrig.obj
 0001:00048a40       ___common_srl              00449a40 f   MSVCRT:svml_dtrig.obj
 0001:00048a70       ___common_sll              00449a70 f   MSVCRT:svml_dtrig.obj
 0002:000002a4       ?pre_cpp_initializer@@3P6AXXZA 0044b2a4     MSVCRT:exe_main.obj
 0002:000002b0       ?pre_c_initializer@@3P6AHXZA 0044b2b0     MSVCRT:exe_main.obj
 0002:000002b4       ?post_pgo_initializer@@3P6AHXZA 0044b2b4     MSVCRT:exe_main.obj
 0002:00000354       _pjsip_update_method       0044b354     pjsip-ua-i386-win32-vc14-release:sip_inv.obj
 0002:000009b0       _tag_100rel                0044b9b0     pjsip-ua-i386-win32-vc14-release:sip_100rel.obj
 0002:000009b8       _RSEQ                      0044b9b8     pjsip-ua-i386-win32-vc14-release:sip_100rel.obj
 0002:000009c0       _RACK                      0044b9c0     pjsip-ua-i386-win32-vc14-release:sip_100rel.obj
 0002:00000bd0       _STR_SE                    0044bbd0     pjsip-ua-i386-win32-vc14-release:sip_timer.obj
 0002:00000bd8       _STR_SHORT_SE              0044bbd8     pjsip-ua-i386-win32-vc14-release:sip_timer.obj
 0002:00000be0       _STR_MIN_SE                0044bbe0     pjsip-ua-i386-win32-vc14-release:sip_timer.obj
 0002:00000be8       _STR_REFRESHER             0044bbe8     pjsip-ua-i386-win32-vc14-release:sip_timer.obj
 0002:00000bf0       _STR_UAC                   0044bbf0     pjsip-ua-i386-win32-vc14-release:sip_timer.obj
 0002:00000bf8       _STR_UAS                   0044bbf8     pjsip-ua-i386-win32-vc14-release:sip_timer.obj
 0002:00000c00       _STR_TIMER                 0044bc00     pjsip-ua-i386-win32-vc14-release:sip_timer.obj
 0002:000025e8       _HCONTACT                  0044d5e8     pjsip-core-i386-win32-vc14-release:sip_dialog.obj
 0002:00002e90       _err_str                   0044de90     pjsip-core-i386-win32-vc14-release:sip_errno.obj
 0002:00004408       _err_str                   0044f408     pjmedia-audiodev-i386-win32-vc14-release:errno.obj
 0002:00004c64       _STR_RTP_AVP               0044fc64     pjmedia-i386-win32-vc14-release:endpoint.obj
 0002:00004c6c       _STR_IN                    0044fc6c     pjmedia-i386-win32-vc14-release:endpoint.obj
 0002:00004c74       _STR_IP4                   0044fc74     pjmedia-i386-win32-vc14-release:endpoint.obj
 0002:00004c7c       _STR_IP6                   0044fc7c     pjmedia-i386-win32-vc14-release:endpoint.obj
 0002:00004c84       _STR_SDP_NAME              0044fc84     pjmedia-i386-win32-vc14-release:endpoint.obj
 0002:00004c8c       _STR_SENDRECV              0044fc8c     pjmedia-i386-win32-vc14-release:endpoint.obj
 0002:00004ee8       _ID_AUDIO                  0044fee8     pjmedia-i386-win32-vc14-release:stream_info.obj
 0002:00004ef0       _ID_IN                     0044fef0     pjmedia-i386-win32-vc14-release:stream_info.obj
 0002:00004ef8       _ID_IP4                    0044fef8     pjmedia-i386-win32-vc14-release:stream_info.obj
 0002:00004f00       _ID_IP6                    0044ff00     pjmedia-i386-win32-vc14-release:stream_info.obj
 0002:00004f08       _ID_RTPMAP                 0044ff08     pjmedia-i386-win32-vc14-release:stream_info.obj
 0002:00004f10       _ID_TELEPHONE_EVENT        0044ff10     pjmedia-i386-win32-vc14-release:stream_info.obj
 0002:00004f8c       _STR_RTCP_MUX              0044ff8c     pjmedia-i386-win32-vc14-release:transport_udp.obj
 0002:000053d0       _err_str                   004503d0     pjmedia-i386-win32-vc14-release:errno.obj
 0002:0000f52c       _ID_RTP_AVP                0045a52c     pjmedia-i386-win32-vc14-release:transport_srtp.obj
 0002:0000f534       _ID_RTP_SAVP               0045a534     pjmedia-i386-win32-vc14-release:transport_srtp.obj
 0002:0000f53c       _ID_CRYPTO                 0045a53c     pjmedia-i386-win32-vc14-release:transport_srtp.obj
 0002:0000fc10       _err_str                   0045ac10     pjlib-util-i386-win32-vc14-release:errno.obj
 0002:00011000       _base64_char               0045c000     pjlib-util-i386-win32-vc14-release:base64.obj
 0002:000111c0       _err_str                   0045c1c0     pjlib-i386-win32-vc14-release:errno.obj
 0002:00011e70       _gaErrorList               0045ce70     pjlib-i386-win32-vc14-release:os_error_win32.obj
 0002:00012860       _qos_map                   0045d860     pjlib-i386-win32-vc14-release:sock_qos_common.obj
 0002:000130d8       _srtp_null_cipher_description 0045e0d8     libsrtp-i386-win32-vc14-release:null_cipher.obj
 0002:000130e4       _srtp_null_cipher_test_0   0045e0e4     libsrtp-i386-win32-vc14-release:null_cipher.obj
 0002:0001319c       _srtp_aes_icm_128_description 0045e19c     libsrtp-i386-win32-vc14-release:aes_icm.obj
 0002:000131bc       _srtp_aes_icm_256_description 0045e1bc     libsrtp-i386-win32-vc14-release:aes_icm.obj
 0002:000131dc       _srtp_aes_icm_128_test_case_0_key 0045e1dc     libsrtp-i386-win32-vc14-release:aes_icm.obj
 0002:000131fc       _srtp_aes_icm_128_test_case_0_plaintext 0045e1fc     libsrtp-i386-win32-vc14-release:aes_icm.obj
 0002:0001321c       _srtp_aes_icm_128_test_case_0_ciphertext 0045e21c     libsrtp-i386-win32-vc14-release:aes_icm.obj
 0002:0001323c       _srtp_aes_icm_128_test_case_0 0045e23c     libsrtp-i386-win32-vc14-release:aes_icm.obj
 0002:00013268       _srtp_aes_icm_256_test_case_0_key 0045e268     libsrtp-i386-win32-vc14-release:aes_icm.obj
 0002:00013298       _srtp_aes_icm_256_test_case_0_plaintext 0045e298     libsrtp-i386-win32-vc14-release:aes_icm.obj
 0002:000132b8       _srtp_aes_icm_256_test_case_0_ciphertext 0045e2b8     libsrtp-i386-win32-vc14-release:aes_icm.obj
 0002:000132d8       _srtp_aes_icm_256_test_case_0 0045e2d8     libsrtp-i386-win32-vc14-release:aes_icm.obj
 0002:000133f0       _srtp_null_auth_test_case_0 0045e3f0     libsrtp-i386-win32-vc14-release:null_auth.obj
 0002:0001340c       _srtp_null_auth_description 0045e40c     libsrtp-i386-win32-vc14-release:null_auth.obj
 0002:000134a8       _srtp_hmac_test_case_0_key 0045e4a8     libsrtp-i386-win32-vc14-release:hmac.obj
 0002:000134bc       _srtp_hmac_test_case_0_data 0045e4bc     libsrtp-i386-win32-vc14-release:hmac.obj
 0002:000134c4       _srtp_hmac_test_case_0_tag 0045e4c4     libsrtp-i386-win32-vc14-release:hmac.obj
 0002:000134d8       _srtp_hmac_test_case_0     0045e4d8     libsrtp-i386-win32-vc14-release:hmac.obj
 0002:000134f4       _srtp_hmac_description     0045e4f4     libsrtp-i386-win32-vc14-release:hmac.obj
 0002:00013560       _T0                        0045e560     libsrtp-i386-win32-vc14-release:aes.obj
 0002:00013960       _T1                        0045e960     libsrtp-i386-win32-vc14-release:aes.obj
 0002:00013d60       _T2                        0045ed60     libsrtp-i386-win32-vc14-release:aes.obj
 0002:00014160       _T3                        0045f160     libsrtp-i386-win32-vc14-release:aes.obj
 0002:00014560       _U0                        0045f560     libsrtp-i386-win32-vc14-release:aes.obj
 0002:00014960       _U1                        0045f960     libsrtp-i386-win32-vc14-release:aes.obj
 0002:00014d60       _U2                        0045fd60     libsrtp-i386-win32-vc14-release:aes.obj
 0002:00015160       _U3                        00460160     libsrtp-i386-win32-vc14-release:aes.obj
 0002:00015560       _aes_sbox                  00460560     libsrtp-i386-win32-vc14-release:aes.obj
 0002:00015660       _aes_inv_sbox              00460660     libsrtp-i386-win32-vc14-release:aes.obj
 0002:00015810       _GS_ExceptionPointers      00460810     MSVCRT:gs_report.obj
 0002:00015820       _Int32ToUInt32             00460820     MSVCRT:ftol3.obj
 0002:00015828       _DP2to32                   00460828     MSVCRT:ftol3.obj
 0002:00015830       _MantissaMask              00460830     MSVCRT:ftol3.obj
 0002:00015838       _IntegerBit                00460838     MSVCRT:ftol3.obj
 0002:00015840       _SignBit64                 00460840     MSVCRT:ftol3.obj
 0002:00015848       _MinFP64                   00460848     MSVCRT:ftol3.obj
 0002:00015850       _MinInt64                  00460850     MSVCRT:ftol3.obj
 0002:00015858       _MaxInt64                  00460858     MSVCRT:ftol3.obj
 0002:00015860       _MaxUInt64                 00460860     MSVCRT:ftol3.obj
 0002:00015868       _MaxFP32                   00460868     MSVCRT:ftol3.obj
 0002:00015870       _MinFP32                   00460870     MSVCRT:ftol3.obj
 0002:00015878       _MinSubInexact             00460878     MSVCRT:ftol3.obj
 0002:00015880       _FpExcptTable              00460880     MSVCRT:ftol3.obj
 0002:00015890       _i1075                     00460890     MSVCRT:ftol3.obj
 0002:00015894       _i1087                     00460894     MSVCRT:ftol3.obj
 0002:00015898       _x0800                     00460898     MSVCRT:ftol3.obj
 0002:0001589c       _x17FF                     0046089c     MSVCRT:ftol3.obj
 0002:000158a0       _CWMask                    004608a0     MSVCRT:ftol3.obj
 0002:00015bc0       __sehtable$?__scrt_common_main_seh@@YAHXZ 00460bc0     MSVCRT:exe_main.obj
 0002:00015be0       __sehtable$___scrt_is_nonwritable_in_current_image 00460be0     MSVCRT:utility.obj
 0002:00015fc0       .idata$6                   00460fc0     ole32:ole32.dll
 0002:00016010       .idata$6                   00461010     ws2_32:WS2_32.dll
 0002:000161dc       .idata$6                   004611dc     winmm:WINMM.dll
 0002:00016560       .idata$6                   00461560     kernel32:KERNEL32.dll
 0002:000165d0       .idata$6                   004615d0     vcruntime:VCRUNTIME140.dll
 0002:000168d2       .idata$6                   004618d2     ucrt:api-ms-win-crt-stdio-l1-1-0.dll
 0002:000168f2       .idata$6                   004618f2     ucrt:api-ms-win-crt-convert-l1-1-0.dll
 0002:00016914       .idata$6                   00461914     ucrt:api-ms-win-crt-string-l1-1-0.dll
 0002:00016936       .idata$6                   00461936     ucrt:api-ms-win-crt-math-l1-1-0.dll
 0002:00016956       .idata$6                   00461956     ucrt:api-ms-win-crt-utility-l1-1-0.dll
 0002:00016978       .idata$6                   00461978     ucrt:api-ms-win-crt-heap-l1-1-0.dll
 0002:00016998       .idata$6                   00461998     ucrt:api-ms-win-crt-runtime-l1-1-0.dll
 0002:000169ba       .idata$6                   004619ba     ucrt:api-ms-win-crt-locale-l1-1-0.dll
 0003:00000000       $SG4341                    00462000     siprtp.obj
 0003:00000564       $SG30380                   00462564     siprtp.obj
 0003:00000574       $SG30383                   00462574     siprtp.obj
 0003:000005f8       $SG30382                   004625f8     siprtp.obj
 0003:00000600       $SG30384                   00462600     siprtp.obj
 0003:00000604       $SG30385                   00462604     siprtp.obj
 0003:00000608       $SG30386                   00462608     siprtp.obj
 0003:00000610       $SG30387                   00462610     siprtp.obj
 0003:00000618       $SG30388                   00462618     siprtp.obj
 0003:00000620       $SG30389                   00462620     siprtp.obj
 0003:0000062c       $SG30390                   0046262c     siprtp.obj
 0003:00000634       $SG30391                   00462634     siprtp.obj
 0003:0000063c       $SG56016                   0046263c     siprtp.obj
 0003:00000650       $SG55962                   00462650     siprtp.obj
 0003:000006c8       _USAGE                     004626c8     siprtp.obj
 0003:000006cc       _mod_siprtp                004626cc     siprtp.obj
 0003:00000708       $SG30441                   00462708     siprtp.obj
 0003:0000070c       $SG30445                   0046270c     siprtp.obj
 0003:0000072c       $SG30446                   0046272c     siprtp.obj
 0003:00000738       $SG30448                   00462738     siprtp.obj
 0003:00000758       $SG30449                   00462758     siprtp.obj
 0003:00000764       $SG30451                   00462764     siprtp.obj
 0003:00000784       $SG30452                   00462784     siprtp.obj
 0003:00000790       $SG30494                   00462790     siprtp.obj
 0003:00000798       $SG30579                   00462798     siprtp.obj
 0003:000007a8       $SG30584                   004627a8     siprtp.obj
 0003:000007c0       $SG30606                   004627c0     siprtp.obj
 0003:000007d8       $SG30644                   004627d8     siprtp.obj
 0003:00000800       $SG30645                   00462800     siprtp.obj
 0003:0000080c       $SG30648                   0046280c     siprtp.obj
 0003:00000824       $SG30649                   00462824     siprtp.obj
 0003:00000830       $SG30654                   00462830     siprtp.obj
 0003:0000084c       $SG30655                   0046284c     siprtp.obj
 0003:00000858       $SG30672                   00462858     siprtp.obj
 0003:0000086c       $SG30715                   0046286c     siprtp.obj
 0003:00000874       $SG30717                   00462874     siprtp.obj
 0003:00000878       $SG30719                   00462878     siprtp.obj
 0003:00000884       $SG30721                   00462884     siprtp.obj
 0003:00000890       $SG30723                   00462890     siprtp.obj
 0003:0000089c       $SG30725                   0046289c     siprtp.obj
 0003:000008a8       $SG30727                   004628a8     siprtp.obj
 0003:000008b4       $SG30729                   004628b4     siprtp.obj
 0003:000008bc       $SG30731                   004628bc     siprtp.obj
 0003:000008c8       $SG30733                   004628c8     siprtp.obj
 0003:000008d8       $SG30735                   004628d8     siprtp.obj
 0003:000008e4       $SG30737                   004628e4     siprtp.obj
 0003:000008f0       $SG30738                   004628f0     siprtp.obj
 0003:00000904       $SG30742                   00462904     siprtp.obj
 0003:00000930       $SG30743                   00462930     siprtp.obj
 0003:0000093c       $SG30762                   0046293c     siprtp.obj
 0003:00000948       $SG30790                   00462948     siprtp.obj
 0003:00000958       $SG30791                   00462958     siprtp.obj
 0003:0000095c       $SG30792                   0046295c     siprtp.obj
 0003:00000960       $SG30793                   00462960     siprtp.obj
 0003:00000968       $SG30794                   00462968     siprtp.obj
 0003:0000096c       $SG30795                   0046296c     siprtp.obj
 0003:00000970       $SG30796                   00462970     siprtp.obj
 0003:00000978       $SG30797                   00462978     siprtp.obj
 0003:00000980       $SG30798                   00462980     siprtp.obj
 0003:00000984       $SG30799                   00462984     siprtp.obj
 0003:00000990       $SG30800                   00462990     siprtp.obj
 0003:00000994       $SG30801                   00462994     siprtp.obj
 0003:0000099c       $SG30802                   0046299c     siprtp.obj
 0003:000009b8       $SG30803                   004629b8     siprtp.obj
 0003:000009c0       $SG30804                   004629c0     siprtp.obj
 0003:000009cc       $SG55495                   004629cc     siprtp.obj
 0003:000009e0       $SG55496                   004629e0     siprtp.obj
 0003:000009ec       $SG55498                   004629ec     siprtp.obj
 0003:00000a00       $SG55499                   00462a00     siprtp.obj
 0003:00000a0c       $SG55511                   00462a0c     siprtp.obj
 0003:00000a28       $SG55512                   00462a28     siprtp.obj
 0003:00000a34       $SG55557                   00462a34     siprtp.obj
 0003:00000a50       $SG55558                   00462a50     siprtp.obj
 0003:00000a5c       $SG55562                   00462a5c     siprtp.obj
 0003:00000a78       $SG55563                   00462a78     siprtp.obj
 0003:00000a84       $SG55587                   00462a84     siprtp.obj
 0003:00000a9c       $SG55588                   00462a9c     siprtp.obj
 0003:00000aa8       $SG55590                   00462aa8     siprtp.obj
 0003:00000acc       $SG55591                   00462acc     siprtp.obj
 0003:00000ad8       $SG55597                   00462ad8     siprtp.obj
 0003:00000afc       $SG55598                   00462afc     siprtp.obj
 0003:00000b08       $SG55599                   00462b08     siprtp.obj
 0003:00000b10       $SG55601                   00462b10     siprtp.obj
 0003:00000b34       $SG55602                   00462b34     siprtp.obj
 0003:00000b40       $SG55603                   00462b40     siprtp.obj
 0003:00000b48       $SG55605                   00462b48     siprtp.obj
 0003:00000b64       $SG55606                   00462b64     siprtp.obj
 0003:00000b70       $SG55636                   00462b70     siprtp.obj
 0003:00000b74       $SG55639                   00462b74     siprtp.obj
 0003:00000b80       $SG55640                   00462b80     siprtp.obj
 0003:00000b8c       $SG55774                   00462b8c     siprtp.obj
 0003:00000b9c       $SG55775                   00462b9c     siprtp.obj
 0003:00000ba0       $SG55776                   00462ba0     siprtp.obj
 0003:00000ba4       $SG55777                   00462ba4     siprtp.obj
 0003:00000bac       $SG55778                   00462bac     siprtp.obj
 0003:00000bb4       $SG55779                   00462bb4     siprtp.obj
 0003:00000bb8       $SG55780                   00462bb8     siprtp.obj
 0003:00000bc0       $SG55781                   00462bc0     siprtp.obj
 0003:00000bc8       $SG55782                   00462bc8     siprtp.obj
 0003:00000bd0       $SG55783                   00462bd0     siprtp.obj
 0003:00000bd4       $SG55784                   00462bd4     siprtp.obj
 0003:00000bdc       $SG55785                   00462bdc     siprtp.obj
 0003:00000be4       $SG55786                   00462be4     siprtp.obj
 0003:00000be8       $SG55787                   00462be8     siprtp.obj
 0003:00000bf0       $SG55788                   00462bf0     siprtp.obj
 0003:00000bf8       $SG55789                   00462bf8     siprtp.obj
 0003:00000c00       $SG55790                   00462c00     siprtp.obj
 0003:00000c04       $SG55791                   00462c04     siprtp.obj
 0003:00000c0c       $SG55863                   00462c0c     siprtp.obj
 0003:00000c18       $SG55792                   00462c18     siprtp.obj
 0003:00000eec       $SG55860                   00462eec     siprtp.obj
 0003:00000f14       $SG55862                   00462f14     siprtp.obj
 0003:00000f24       $SG55866                   00462f24     siprtp.obj
 0003:00000f38       $SG55868                   00462f38     siprtp.obj
 0003:00000f40       $SG55869                   00462f40     siprtp.obj
 0003:00000f4c       $SG55874                   00462f4c     siprtp.obj
 0003:00000f68       $SG55877                   00462f68     siprtp.obj
 0003:00000f84       $SG55879                   00462f84     siprtp.obj
 0003:00000fa0       $SG55880                   00462fa0     siprtp.obj
 0003:00000fac       $SG55883                   00462fac     siprtp.obj
 0003:00000fb8       $SG55882                   00462fb8     siprtp.obj
 0003:00000ffc       $SG55886                   00462ffc     siprtp.obj
 0003:00001004       $SG55887                   00463004     siprtp.obj
 0003:00001024       $SG55894                   00463024     siprtp.obj
 0003:00001030       $SG55893                   00463030     siprtp.obj
 0003:00001194       $SG55897                   00463194     siprtp.obj
 0003:0000119c       $SG55898                   0046319c     siprtp.obj
 0003:000011bc       $SG55905                   004631bc     siprtp.obj
 0003:000011c8       $SG55904                   004631c8     siprtp.obj
 0003:00001328       $SG55908                   00463328     siprtp.obj
 0003:00001364       $SG55909                   00463364     siprtp.obj
 0003:00001370       $SG55916                   00463370     siprtp.obj
 0003:00001380       $SG55954                   00463380     siprtp.obj
 0003:00001398       _MENU                      00463398     siprtp.obj
 0003:0000139c       $SG55974                   0046339c     siprtp.obj
 0003:000013a0       $SG55975                   004633a0     siprtp.obj
 0003:000013a8       $SG55977                   004633a8     siprtp.obj
 0003:000013d4       $SG55982                   004633d4     siprtp.obj
 0003:000013ec       $SG55986                   004633ec     siprtp.obj
 0003:000013fc       $SG55987                   004633fc     siprtp.obj
 0003:00001400       $SG55996                   00463400     siprtp.obj
 0003:0000142c       $SG55997                   0046342c     siprtp.obj
 0003:00001438       $SG56006                   00463438     siprtp.obj
 0003:00001460       $SG56007                   00463460     siprtp.obj
 0003:0000146c       _msg_logger                0046346c     siprtp.obj
 0003:000014a8       $SG56038                   004634a8     siprtp.obj
 0003:000014ac       $SG56041                   004634ac     siprtp.obj
 0003:000014c8       $SG56042                   004634c8     siprtp.obj
 0003:000014d4       $SG56078                   004634d4     siprtp.obj
 0003:000014f0       $SG56075                   004634f0     siprtp.obj
 0003:00001534       $SG56079                   00463534     siprtp.obj
 0003:00001540       $SG56081                   00463540     siprtp.obj
 0003:0000155c       $SG56082                   0046355c     siprtp.obj
 0003:00001568       $SG56083                   00463568     siprtp.obj
 0003:0000156c       $SG56087                   0046356c     siprtp.obj
 0003:00001584       $SG56088                   00463584     siprtp.obj
 0003:00001590       $SG56090                   00463590     siprtp.obj
 0003:000015a4       $SG56091                   004635a4     siprtp.obj
 0003:000015b0       $SG56095                   004635b0     siprtp.obj
 0003:000015d4       $SG56096                   004635d4     siprtp.obj
 0003:000015e0       _inv_state_handler         004635e0     pjsip-ua-i386-win32-vc14-release:sip_inv.obj
 0003:00001600       _mod_inv                   00463600     pjsip-ua-i386-win32-vc14-release:sip_inv.obj
 0003:00001668       _inv_state_names           00463668     pjsip-ua-i386-win32-vc14-release:sip_inv.obj
 0003:00001688       _mod_100rel                00463688     pjsip-ua-i386-win32-vc14-release:sip_100rel.obj
 0003:000016c8       _se_hdr_vptr               004636c8     pjsip-ua-i386-win32-vc14-release:sip_timer.obj
 0003:000016d4       _min_se_hdr_vptr           004636d4     pjsip-ua-i386-win32-vc14-release:sip_timer.obj
 0003:000016e0       _method_names              004636e0     pjsip-core-i386-win32-vc14-release:sip_msg.obj
 0003:000016f8       _generic_hdr_vptr          004636f8     pjsip-core-i386-win32-vc14-release:sip_msg.obj
 0003:00001704       _generic_int_hdr_vptr      00463704     pjsip-core-i386-win32-vc14-release:sip_msg.obj
 0003:00001710       _generic_array_hdr_vptr    00463710     pjsip-core-i386-win32-vc14-release:sip_msg.obj
 0003:0000171c       _clen_hdr_vptr             0046371c     pjsip-core-i386-win32-vc14-release:sip_msg.obj
 0003:00001728       _cseq_hdr_vptr             00463728     pjsip-core-i386-win32-vc14-release:sip_msg.obj
 0003:00001734       _contact_hdr_vptr          00463734     pjsip-core-i386-win32-vc14-release:sip_msg.obj
 0003:00001740       _ctype_hdr_vptr            00463740     pjsip-core-i386-win32-vc14-release:sip_msg.obj
 0003:0000174c       _fromto_hdr_vptr           0046374c     pjsip-core-i386-win32-vc14-release:sip_msg.obj
 0003:00001758       _routing_hdr_vptr          00463758     pjsip-core-i386-win32-vc14-release:sip_msg.obj
 0003:00001764       _retry_after_hdr_vptr      00463764     pjsip-core-i386-win32-vc14-release:sip_msg.obj
 0003:00001770       _via_hdr_vptr              00463770     pjsip-core-i386-win32-vc14-release:sip_msg.obj
 0003:00001780       _mod_msg_print             00463780     pjsip-core-i386-win32-vc14-release:sip_transport.obj
 0003:000017c0       _transport_names           004637c0     pjsip-core-i386-win32-vc14-release:sip_transport.obj
 0003:00001a40       _event_str                 00463a40     pjsip-core-i386-win32-vc14-release:sip_util.obj
 0003:00001a5c       _str_TEXT                  00463a5c     pjsip-core-i386-win32-vc14-release:sip_util.obj
 0003:00001a64       _str_PLAIN                 00463a64     pjsip-core-i386-win32-vc14-release:sip_util.obj
 0003:00001a70       _mod_tsx_layer             00463a70     pjsip-core-i386-win32-vc14-release:sip_transaction.obj
 0003:00001abc       _t1_timer_val              00463abc     pjsip-core-i386-win32-vc14-release:sip_transaction.obj
 0003:00001ac4       _t2_timer_val              00463ac4     pjsip-core-i386-win32-vc14-release:sip_transaction.obj
 0003:00001acc       _t4_timer_val              00463acc     pjsip-core-i386-win32-vc14-release:sip_transaction.obj
 0003:00001ad4       _td_timer_val              00463ad4     pjsip-core-i386-win32-vc14-release:sip_transaction.obj
 0003:00001adc       _timeout_timer_val         00463adc     pjsip-core-i386-win32-vc14-release:sip_transaction.obj
 0003:00001ae4       _state_str                 00463ae4     pjsip-core-i386-win32-vc14-release:sip_transaction.obj
 0003:00001b04       _role_name                 00463b04     pjsip-core-i386-win32-vc14-release:sip_transaction.obj
 0003:00001b0c       _tsx_state_handler_uac     00463b0c     pjsip-core-i386-win32-vc14-release:sip_transaction.obj
 0003:00001b2c       _tsx_state_handler_uas     00463b2c     pjsip-core-i386-win32-vc14-release:sip_transaction.obj
 0003:00001b50       _mod_ua                    00463b50     pjsip-core-i386-win32-vc14-release:sip_ua_layer.obj
 0003:00001bd0       _pconst                    00463bd0     pjsip-core-i386-win32-vc14-release:sip_parser.obj
 0003:00001d5c       _sip_str                   00463d5c     pjsip-core-i386-win32-vc14-release:sip_uri.obj
 0003:00001d64       _sips_str                  00463d64     pjsip-core-i386-win32-vc14-release:sip_uri.obj
 0003:00001d6c       _sips_url_vptr             00463d6c     pjsip-core-i386-win32-vc14-release:sip_uri.obj
 0003:00001d80       _sip_url_vptr              00463d80     pjsip-core-i386-win32-vc14-release:sip_uri.obj
 0003:00001d94       _name_addr_vptr            00463d94     pjsip-core-i386-win32-vc14-release:sip_uri.obj
 0003:00001da8       _other_uri_vptr            00463da8     pjsip-core-i386-win32-vc14-release:sip_uri.obj
 0003:00001dbc       _pjsip_ISUB_STR            00463dbc     pjsip-core-i386-win32-vc14-release:sip_tel_uri.obj
 0003:00001dc4       _pjsip_EXT_STR             00463dc4     pjsip-core-i386-win32-vc14-release:sip_tel_uri.obj
 0003:00001dcc       _pjsip_PH_CTX_STR          00463dcc     pjsip-core-i386-win32-vc14-release:sip_tel_uri.obj
 0003:00001dd4       _tel_uri_vptr              00463dd4     pjsip-core-i386-win32-vc14-release:sip_tel_uri.obj
 0003:00001e24       _authorization_hdr_vptr    00463e24     pjsip-core-i386-win32-vc14-release:sip_auth_msg.obj
 0003:00001e30       _www_authenticate_hdr_vptr 00463e30     pjsip-core-i386-win32-vc14-release:sip_auth_msg.obj
 0003:00001e3c       _stream_op                 00463e3c     pjmedia-audiodev-i386-win32-vc14-release:wmme_dev.obj
 0003:00001e54       _factory_op                00463e54     pjmedia-audiodev-i386-win32-vc14-release:wmme_dev.obj
 0003:00001e78       _g711_op                   00463e78     pjmedia-i386-win32-vc14-release:g711.obj
 0003:00001e98       _g711_factory_op           00463e98     pjmedia-i386-win32-vc14-release:g711.obj
 0003:00001eb0       _state_str                 00463eb0     pjmedia-i386-win32-vc14-release:sdp_neg.obj
 0003:00001ec4       _transport_udp_op          00463ec4     pjmedia-i386-win32-vc14-release:transport_udp.obj
 0003:00001ef8       _cap_infos                 00463ef8     pjmedia-i386-win32-vc14-release:audiodev.obj
 0003:00001f68       _plc_wsola                 00463f68     pjmedia-i386-win32-vc14-release:plc_common.obj
 0003:00001f90       _crypto_suites             00463f90     pjmedia-i386-win32-vc14-release:transport_srtp.obj
 0003:0000206c       _transport_srtp_op         0046406c     pjmedia-i386-win32-vc14-release:transport_srtp.obj
 0003:000020a0       ?liberr@?1??get_libsrtp_errstr@@9@9 004640a0     pjmedia-i386-win32-vc14-release:transport_srtp.obj
 0003:00002104       _sdes_op                   00464104     pjmedia-i386-win32-vc14-release:transport_srtp.obj
 0003:00002140       _state_names               00464140     pjlib-util-i386-win32-vc14-release:resolver.obj
 0003:0000214c       _thread_tls_id             0046414c     pjlib-i386-win32-vc14-release:os_core_win32.obj
 0003:00002150       _pool_sizes                00464150     pjlib-i386-win32-vc14-release:pool_caching.obj
 0003:00002190       _pj_log_max_level          00464190     pjlib-i386-win32-vc14-release:log.obj
 0003:00002194       _thread_suspended_tls_id   00464194     pjlib-i386-win32-vc14-release:log.obj
 0003:00002198       _thread_indent_tls_id      00464198     pjlib-i386-win32-vc14-release:log.obj
 0003:0000219c       _log_writer                0046419c     pjlib-i386-win32-vc14-release:log.obj
 0003:000021a0       _log_decor                 004641a0     pjlib-i386-win32-vc14-release:log.obj
 0003:000021a4       _PJ_LOG_COLOR_0            004641a4     pjlib-i386-win32-vc14-release:log.obj
 0003:000021a8       _PJ_LOG_COLOR_1            004641a8     pjlib-i386-win32-vc14-release:log.obj
 0003:000021ac       _PJ_LOG_COLOR_2            004641ac     pjlib-i386-win32-vc14-release:log.obj
 0003:000021b0       _PJ_LOG_COLOR_3            004641b0     pjlib-i386-win32-vc14-release:log.obj
 0003:000021b4       _PJ_LOG_COLOR_4            004641b4     pjlib-i386-win32-vc14-release:log.obj
 0003:000021b8       _PJ_LOG_COLOR_5            004641b8     pjlib-i386-win32-vc14-release:log.obj
 0003:000021bc       _PJ_LOG_COLOR_6            004641bc     pjlib-i386-win32-vc14-release:log.obj
 0003:000021c0       _PJ_LOG_COLOR_77           004641c0     pjlib-i386-win32-vc14-release:log.obj
 0003:000021c4       ?ltexts@?2??pj_log@@9@9    004641c4     pjlib-i386-win32-vc14-release:log.obj
 0003:000021e0       ?wdays@?3??pj_log@@9@9     004641e0     pjlib-i386-win32-vc14-release:log.obj
 0003:0000220c       _mutex_lock_template       0046420c     pjlib-i386-win32-vc14-release:lock.obj
 0003:00002220       _null_lock_template        00464220     pjlib-i386-win32-vc14-release:lock.obj
 0003:00002234       _sem_lock_template         00464234     pjlib-i386-win32-vc14-release:lock.obj
 0003:00002248       _thread_local_id           00464248     pjlib-i386-win32-vc14-release:except.obj
 0003:0000224c       ?hex@?1??hex2digit@@9@9    0046424c     pjlib-i386-win32-vc14-release:guid_win32.obj
 0003:0000225c       _tls                       0046425c     pjlib-i386-win32-vc14-release:pool_buf.obj
 0003:00002264       _id                        00464264     pjlib-i386-win32-vc14-release:config.obj
 0003:00002270       _srtp_event_handler        00464270     libsrtp-i386-win32-vc14-release:srtp.obj
 0003:00002720       _app                       00464720     siprtp.obj
 0003:001d8968       ?ip_addr@?1??init_options@@9@9 0063a968     siprtp.obj
 0003:001d8978       ?local_uri@?1??init_options@@9@9 0063a978     siprtp.obj
 0003:001d89b8       $SG55889                   0063a9b8     siprtp.obj
 0003:001d89b9       $SG55890                   0063a9b9     siprtp.obj
 0003:001d89ba       $SG55891                   0063a9ba     siprtp.obj
 0003:001d89bb       $SG55892                   0063a9bb     siprtp.obj
 0003:001d89bc       $SG55900                   0063a9bc     siprtp.obj
 0003:001d89bd       $SG55901                   0063a9bd     siprtp.obj
 0003:001d89be       $SG55902                   0063a9be     siprtp.obj
 0003:001d89bf       $SG55903                   0063a9bf     siprtp.obj
 0003:001d89c0       $SG55907                   0063a9c0     siprtp.obj
 0003:001d89c4       _log_file                  0063a9c4     siprtp.obj
 0003:001d89c8       _is_initialized            0063a9c8     pjsip-ua-i386-win32-vc14-release:sip_timer.obj
 0003:001d89d0       _status_phrase             0063a9d0     pjsip-core-i386-win32-vc14-release:sip_msg.obj
 0003:001da000       ?is_initialized@?1??pjsip_get_status_text@@9@9 0063c000     pjsip-core-i386-win32-vc14-release:sip_msg.obj
 0003:001da008       _handler                   0063c008     pjsip-core-i386-win32-vc14-release:sip_parser.obj
 0003:001db688       _handler_count             0063d688     pjsip-core-i386-win32-vc14-release:sip_parser.obj
 0003:001db68c       _parser_is_initialized     0063d68c     pjsip-core-i386-win32-vc14-release:sip_parser.obj
 0003:001db690       _uri_handler               0063d690     pjsip-core-i386-win32-vc14-release:sip_parser.obj
 0003:001db6c0       _uri_handler_count         0063d6c0     pjsip-core-i386-win32-vc14-release:sip_parser.obj
 0003:001db6c8       _cis_buf                   0063d6c8     pjsip-core-i386-win32-vc14-release:sip_parser.obj
 0003:001dbad0       _pjsip_TEL_NUMBER_SPEC     0063dad0     pjsip-core-i386-win32-vc14-release:sip_tel_uri.obj
 0003:001dbad8       _pjsip_TEL_EXT_VALUE_SPEC  0063dad8     pjsip-core-i386-win32-vc14-release:sip_tel_uri.obj
 0003:001dbae0       _pjsip_TEL_PHONE_CONTEXT_SPEC 0063dae0     pjsip-core-i386-win32-vc14-release:sip_tel_uri.obj
 0003:001dbae8       _pjsip_TEL_URIC_SPEC       0063dae8     pjsip-core-i386-win32-vc14-release:sip_tel_uri.obj
 0003:001dbaf0       _pjsip_TEL_PNAME_SPEC      0063daf0     pjsip-core-i386-win32-vc14-release:sip_tel_uri.obj
 0003:001dbaf8       _pjsip_TEL_PVALUE_SPEC     0063daf8     pjsip-core-i386-win32-vc14-release:sip_tel_uri.obj
 0003:001dbb00       _cis_buf                   0063db00     pjsip-core-i386-win32-vc14-release:sip_tel_uri.obj
 0003:001dbf04       _pjsip_TEL_VISUAL_SEP_SPEC 0063df04     pjsip-core-i386-win32-vc14-release:sip_tel_uri.obj
 0003:001dbf0c       _pjsip_TEL_PVALUE_SPEC_ESC 0063df0c     pjsip-core-i386-win32-vc14-release:sip_tel_uri.obj
 0003:001dbf14       _pjsip_TEL_PARSING_PVALUE_SPEC 0063df14     pjsip-core-i386-win32-vc14-release:sip_tel_uri.obj
 0003:001dbf1c       _pjsip_TEL_PARSING_PVALUE_SPEC_ESC 0063df1c     pjsip-core-i386-win32-vc14-release:sip_tel_uri.obj
 0003:001dbf24       ?name@?1??get_fmt_name@@9@9 0063df24     pjmedia-audiodev-i386-win32-vc14-release:wmme_dev.obj
 0003:001dbf2c       ?rec_cnt@?1??wmme_dev_thread@@9@9 0063df2c     pjmedia-audiodev-i386-win32-vc14-release:wmme_dev.obj
 0003:001dbf30       ?play_cnt@?1??wmme_dev_thread@@9@9 0063df30     pjmedia-audiodev-i386-win32-vc14-release:wmme_dev.obj
 0003:001dbf38       _is_initialized            0063df38     pjmedia-i386-win32-vc14-release:sdp.obj
 0003:001dbf40       _cis_buf                   0063df40     pjmedia-i386-win32-vc14-release:sdp.obj
 0003:001dc344       _cs_digit                  0063e344     pjmedia-i386-win32-vc14-release:sdp.obj
 0003:001dc34c       _cs_token                  0063e34c     pjmedia-i386-win32-vc14-release:sdp.obj
 0003:001dc354       _g711_factory              0063e354     pjmedia-i386-win32-vc14-release:g711.obj
 0003:001dc388       _fmt_match_cb_cnt          0063e388     pjmedia-i386-win32-vc14-release:sdp_neg.obj
 0003:001dc390       _fmt_match_cb              0063e390     pjmedia-i386-win32-vc14-release:sdp_neg.obj
 0003:001dc3f0       _aud_subsys                0063e3f0     pjmedia-i386-win32-vc14-release:audiodev.obj
 0003:001dc8c0       _event_manager_instance    0063e8c0     pjmedia-i386-win32-vc14-release:event.obj
 0003:001dc8c8       ?ev_queue@?9??pjmedia_event_publish@@9@9 0063e8c8     pjmedia-i386-win32-vc14-release:event.obj
 0003:001dccd8       ?msg@?3??get_libsrtp_errstr@@9@9 0063ecd8     pjmedia-i386-win32-vc14-release:transport_srtp.obj
 0003:001dccf8       _libsrtp_initialized       0063ecf8     pjmedia-i386-win32-vc14-release:transport_srtp.obj
 0003:001dcd00       ___getopt_initialized      0063ed00     pjlib-util-i386-win32-vc14-release:getopt.obj
 0003:001dcd04       _nextchar                  0063ed04     pjlib-util-i386-win32-vc14-release:getopt.obj
 0003:001dcd08       _ordering                  0063ed08     pjlib-util-i386-win32-vc14-release:getopt.obj
 0003:001dcd0c       _posixly_correct           0063ed0c     pjlib-util-i386-win32-vc14-release:getopt.obj
 0003:001dcd10       _first_nonopt              0063ed10     pjlib-util-i386-win32-vc14-release:getopt.obj
 0003:001dcd14       _last_nonopt               0063ed14     pjlib-util-i386-win32-vc14-release:getopt.obj
 0003:001dcd18       _initialized               0063ed18     pjlib-i386-win32-vc14-release:os_core_win32.obj
 0003:001dcd1c       _atexit_count              0063ed1c     pjlib-i386-win32-vc14-release:os_core_win32.obj
 0003:001dcd20       _main_thread               0063ed20     pjlib-i386-win32-vc14-release:os_core_win32.obj
 0003:001dce20       _critical_section_mutex    0063ee20     pjlib-i386-win32-vc14-release:os_core_win32.obj
 0003:001dce58       _atexit_func               0063ee58     pjlib-i386-win32-vc14-release:os_core_win32.obj
 0003:001dced8       _err_msg_hnd_cnt           0063eed8     pjlib-i386-win32-vc14-release:errno.obj
 0003:001dcee0       _err_msg_hnd               0063eee0     pjlib-i386-win32-vc14-release:errno.obj
 0003:001dcf58       ?buf@?1??pj_gethostname@@9@9 0063ef58     pjlib-i386-win32-vc14-release:sock_bsd.obj
 0003:001dcfd8       ?hostname@?1??pj_gethostname@@9@9 0063efd8     pjlib-i386-win32-vc14-release:sock_bsd.obj
 0003:001dcfe0       _base_time                 0063efe0     pjlib-i386-win32-vc14-release:os_time_win32.obj
 0003:001dcfe8       _g_last_thread             0063efe8     pjlib-i386-win32-vc14-release:log.obj
 0003:001dcff0       _exception_id_names        0063eff0     pjlib-i386-win32-vc14-release:except.obj
 0003:001dd030       ?unknown_name@?1??pj_exception_id_name@@9@9 0063f030     pjlib-i386-win32-vc14-release:except.obj
 0003:001dd050       _stack_based_factory       0063f050     pjlib-i386-win32-vc14-release:pool_buf.obj
 0003:001dd074       _is_initialized            0063f074     pjlib-i386-win32-vc14-release:pool_buf.obj
 0003:001dd078       _s_hDLL                    0063f078     pjlib-i386-win32-vc14-release:ip_helper_win32.obj
 0003:001dd07c       _s_pfnGetIpAddrTable       0063f07c     pjlib-i386-win32-vc14-release:ip_helper_win32.obj
 0003:001dd080       _s_pfnGetAdapterAddresses  0063f080     pjlib-i386-win32-vc14-release:ip_helper_win32.obj
 0003:001dd084       _s_pfnGetIpForwardTable    0063f084     pjlib-i386-win32-vc14-release:ip_helper_win32.obj
 0003:001dd088       _s_pfnGetIfEntry           0063f088     pjlib-i386-win32-vc14-release:ip_helper_win32.obj
 0003:001dd08c       _srtp_log_handler          0063f08c     libsrtp-i386-win32-vc14-release:srtp.obj
 0003:001dd090       _srtp_log_handler_data     0063f090     libsrtp-i386-win32-vc14-release:srtp.obj
 0003:001dd0a8       _srtp_aes_icm_128_test_case_0_nonce 0063f0a8     libsrtp-i386-win32-vc14-release:aes_icm.obj
 0003:001dd0b8       _srtp_aes_icm_256_test_case_0_nonce 0063f0b8     libsrtp-i386-win32-vc14-release:aes_icm.obj
 0003:001dd0c8       _GS_ExceptionRecord        0063f0c8     MSVCRT:gs_report.obj
 0003:001dd118       _GS_ContextRecord          0063f118     MSVCRT:gs_report.obj
 0003:001dd3f4       ?is_initialized_as_dll@@3_NA 0063f3f4     MSVCRT:utility.obj
 0003:001dd3f5       ?module_local_atexit_table_initialized@@3_NA 0063f3f5     MSVCRT:utility.obj
 0003:001dd3f8       ?module_local_atexit_table@@3U_onexit_table_t@@A 0063f3f8     MSVCRT:utility.obj
 0003:001dd404       ?module_local_at_quick_exit_table@@3U_onexit_table_t@@A 0063f404     MSVCRT:utility.obj
 0004:00000000       _static_const_table        00640000     MSVCRT:svml_dcos2_sse2.obj
 0004:00000200       __e02PI                    00640200     MSVCRT:svml_dtrig.obj
 0004:000003a0       __e04PI                    006403a0     MSVCRT:svml_dtrig.obj
 0004:00000530       _2il0floatpacket_2         00640530     MSVCRT:svml_dtrig.obj
 0004:00000540       _2il0floatpacket_9         00640540     MSVCRT:svml_dtrig.obj
 0004:00000550       _2il0floatpacket_12        00640550     MSVCRT:svml_dtrig.obj
 0004:00000560       __dPI02                    00640560     MSVCRT:svml_dtrig.obj
 0004:00000570       __d02PI                    00640570     MSVCRT:svml_dtrig.obj
 0004:00000580       __DP4                      00640580     MSVCRT:svml_dtrig.obj
 0004:000005a0       __dPI04                    006405a0     MSVCRT:svml_dtrig.obj
 0004:000005b0       __d04PI                    006405b0     MSVCRT:svml_dtrig.obj
 0004:000005c0       __QP4                      006405c0     MSVCRT:svml_dtrig.obj
